

Microchip MPLAB XC8 Assembler V2.40 build 20220703182018 
                                                                                               Sun Jun 11 11:10:46 2023

Microchip MPLAB XC8 C Compiler v2.40 (Free license) build 20220703182018 Og1 
     1                           	processor	18F26K83
     2                           	fnconf	rparam,??,?,0
     3                           	pagewidth 120
     4                           	opt	flic
     5                           	psect	mediumconst,global,reloc=2,class=MEDIUMCONST,delta=1,noexec
     6                           	psect	cinit,global,reloc=2,class=CODE,delta=1
     7                           	psect	bssCOMRAM,global,class=COMRAM,space=1,delta=1,lowdata,noexec
     8                           	psect	bssBANK0,global,class=BANK0,space=1,delta=1,lowdata,noexec
     9                           	psect	bssBANK1,global,class=BANK1,space=1,delta=1,lowdata,noexec
    10                           	psect	cstackBANK1,global,class=BANK1,space=1,delta=1,lowdata,noexec
    11                           	psect	cstackCOMRAM,global,class=COMRAM,space=1,delta=1,lowdata,noexec
    12                           	psect	text0,global,reloc=2,class=CODE,delta=1
    13                           	psect	text1,global,reloc=2,class=CODE,delta=1
    14                           	psect	text2,global,reloc=2,class=CODE,delta=1
    15                           	psect	text3,global,reloc=2,class=CODE,delta=1
    16                           	psect	text4,global,reloc=2,class=CODE,delta=1
    17                           	psect	text5,global,reloc=2,class=CODE,delta=1
    18                           	psect	text6,global,reloc=2,class=CODE,delta=1
    19                           	psect	text7,global,reloc=2,class=CODE,delta=1
    20                           	psect	text8,global,reloc=2,class=CODE,delta=1
    21                           	psect	text9,global,reloc=2,class=CODE,delta=1
    22                           	psect	text10,global,reloc=2,class=CODE,delta=1
    23                           	psect	text11,global,reloc=2,class=CODE,delta=1
    24                           	psect	text12,global,reloc=2,class=CODE,delta=1
    25                           	psect	text13,global,reloc=2,class=CODE,delta=1
    26                           	psect	text14,global,reloc=2,class=CODE,delta=1
    27                           	psect	text15,global,reloc=2,class=CODE,delta=1
    28                           	psect	text16,global,reloc=2,class=CODE,delta=1
    29                           	psect	text17,global,reloc=2,class=CODE,delta=1
    30                           	psect	text18,global,reloc=2,class=CODE,delta=1
    31                           	psect	text19,global,reloc=2,class=CODE,delta=1
    32                           	psect	text20,global,reloc=2,class=CODE,delta=1
    33                           	psect	text21,global,reloc=2,class=CODE,delta=1
    34                           	psect	text22,global,reloc=2,class=CODE,delta=1
    35                           	psect	text23,global,reloc=2,class=CODE,delta=1
    36                           	psect	text24,global,reloc=2,class=CODE,delta=1
    37                           	psect	text25,global,reloc=2,class=CODE,delta=1
    38                           	psect	text26,global,reloc=2,class=CODE,delta=1
    39                           	psect	text27,global,reloc=2,class=CODE,delta=1
    40                           	psect	text28,global,reloc=2,class=CODE,delta=1
    41                           	psect	text29,global,reloc=2,class=CODE,delta=1
    42                           	psect	text30,global,reloc=2,class=CODE,delta=1
    43                           	psect	text31,global,reloc=2,class=CODE,delta=1
    44                           	psect	text32,global,reloc=2,class=CODE,delta=1
    45                           	psect	text33,global,reloc=2,class=CODE,delta=1
    46                           	psect	text34,global,reloc=2,class=CODE,delta=1
    47                           	psect	text35,global,reloc=2,class=CODE,delta=1
    48                           	psect	text36,global,reloc=2,class=CODE,delta=1
    49                           	psect	text37,global,reloc=2,class=CODE,delta=1
    50                           	psect	text38,global,reloc=2,class=CODE,delta=1
    51                           	psect	text39,global,reloc=2,class=CODE,delta=1
    52                           	psect	text40,global,reloc=2,class=CODE,delta=1
    53                           	psect	text41,global,reloc=2,class=CODE,delta=1
    54                           	psect	text42,global,reloc=2,class=CODE,delta=1
    55                           	psect	text43,global,reloc=2,class=CODE,delta=1
    56                           	psect	text44,global,reloc=2,class=CODE,delta=1
    57                           	psect	text45,global,reloc=2,class=CODE,delta=1
    58                           	psect	text46,global,reloc=2,class=CODE,delta=1
    59                           	psect	text47,global,reloc=2,class=CODE,delta=1
    60                           	psect	text48,global,reloc=2,class=CODE,delta=1
    61                           	psect	text49,global,reloc=2,class=CODE,delta=1
    62                           	psect	text50,global,reloc=2,class=CODE,delta=1,group=1
    63                           	psect	text51,global,reloc=2,class=CODE,delta=1
    64                           	psect	text52,global,reloc=2,class=CODE,delta=1
    65                           	psect	text53,global,reloc=2,class=CODE,delta=1
    66                           	psect	text54,global,reloc=2,class=CODE,delta=1
    67                           	psect	text55,global,reloc=2,class=CODE,delta=1
    68                           	psect	text56,global,reloc=2,class=CODE,delta=1
    69                           	psect	text57,global,reloc=2,class=CODE,delta=1
    70                           	psect	text58,global,reloc=2,class=CODE,delta=1
    71                           	psect	text59,global,reloc=2,class=CODE,delta=1
    72                           	psect	text60,global,reloc=2,class=CODE,delta=1
    73                           	psect	text61,global,reloc=2,class=CODE,delta=1
    74                           	psect	text62,global,reloc=2,class=CODE,delta=1
    75                           	psect	text63,global,reloc=2,class=CODE,delta=1
    76                           	psect	ivt0x8,global,reloc=2,class=CODE,delta=1,noexec,keep,optim=
    77                           	psect	intsave_regs,global,class=BIGRAM,space=1,delta=1,noexec
    78                           	psect	text64,global,reloc=2,class=CODE,delta=1
    79                           	psect	rparam,global,class=COMRAM,space=1,delta=1,noexec
    80                           	psect	idloc,global,abs,ovrld,class=IDLOC,space=5,delta=1,noexec
    81                           	psect	config,global,abs,ovrld,class=CONFIG,space=4,delta=1,noexec
    82   000000                     
    83                           ; Version 2.35
    84                           ; Generated 05/05/2021 GMT
    85                           ; 
    86                           ; Copyright © 2021, Microchip Technology Inc. and its subsidiaries ("Microchip")
    87                           ; All rights reserved.
    88                           ; 
    89                           ; This software is developed by Microchip Technology Inc. and its subsidiaries ("Microch
      +                          ip").
    90                           ; 
    91                           ; Redistribution and use in source and binary forms, with or without modification, are
    92                           ; permitted provided that the following conditions are met:
    93                           ; 
    94                           ;     1. Redistributions of source code must retain the above copyright notice, this lis
      +                          t of
    95                           ;        conditions and the following disclaimer.
    96                           ; 
    97                           ;     2. Redistributions in binary form must reproduce the above copyright notice, this 
      +                          list
    98                           ;        of conditions and the following disclaimer in the documentation and/or other
    99                           ;        materials provided with the distribution. Publication is not required when
   100                           ;        this file is used in an embedded application.
   101                           ; 
   102                           ;     3. Microchip's name may not be used to endorse or promote products derived from th
      +                          is
   103                           ;        software without specific prior written permission.
   104                           ; 
   105                           ; THIS SOFTWARE IS PROVIDED BY MICROCHIP "AS IS" AND ANY EXPRESS OR IMPLIED WARRANTIES,
   106                           ; INCLUDING, BUT NOT LIMITED TO, THE IMPLIED WARRANTIES OF MERCHANTABILITY AND FITNESS F
      +                          OR
   107                           ; PURPOSE ARE DISCLAIMED.  IN NO EVENT SHALL MICROCHIP BE LIABLE FOR ANY DIRECT, INDIREC
      +                          T,
   108                           ; INCIDENTAL, SPECIAL, EXEMPLARY, OR CONSEQUENTIAL DAMAGES (INCLUDING BUT NOT LIMITED TO
   109                           ; PROCUREMENT OF SUBSTITUTE GOODS OR SERVICES; LOSS OF USE, DATA OR PROFITS; OR BUSINESS
   110                           ; INTERRUPTION) HOWSOEVER CAUSED AND ON ANY THEORY OF LIABILITY, WHETHER IN CONTRACT, ST
      +                          RICT
   111                           ; LIABILITY, OR TORT (INCLUDING NEGLIGENCE OR OTHERWISE) ARISING IN ANY WAY OUT OF THE U
      +                          SE OF
   112                           ; THIS SOFTWARE, EVEN IF ADVISED OF THE POSSIBILITY OF SUCH DAMAGE.
   113                           ; 
   114                           ; 
   115                           ; Code-generator required, PIC18F26K83 Definitions
   116                           ; 
   117                           ; SFR Addresses
   118   000000                     
   119 ;; Function __CO_COMM_NMTE_HeartBeatAccessEvent is unused but had its address taken
   120   000000                     
   121 ;; Function __CO_COMM_NMTE_GuardTimeAccessEvent is unused but had its address taken
   122   000000                     
   123 ;; Function __CO_COMM_NMTE_LifeFactorAccessEvent is unused but had its address taken
   124   000000                     
   125 ;; Function __CO_COMM_SDO1_CS_COBIDAccessEvent is unused but had its address taken
   126   000000                     
   127 ;; Function __CO_COMM_SDO1_SC_COBIDAccessEvent is unused but had its address taken
   128   000000                     
   129 ;; Function __CO_COMM_SYNC_COBIDAccessEvent is unused but had its address taken
   130   000000                     
   131 ;; Function _rd1RegCompleteHandler is unused but had its address taken
   132   000000                     
   133 ;; Function _rd2RegCompleteHandler is unused but had its address taken
   134   000000                     
   135 ;; Function _wr1RegCompleteHandler is unused but had its address taken
   136   000000                     
   137 ;; Function _wr2RegCompleteHandler is unused but had its address taken
   138   000000                     
   139 ;; Function _rdBlkRegCompleteHandler is unused but had its address taken
   140   000000                     
   141 ;; Function _UART1_DefaultFramingErrorHandler is unused but had its address taken
   142   000000                     
   143 ;; Function _UART1_DefaultOverrunErrorHandler is unused but had its address taken
   144   000000                     
   145 ;; Function _UART1_DefaultErrorHandler is unused but had its address taken
   146   000000                     
   147 ;; Function _I2C1_DO_IDLE is unused but had its address taken
   148   000000                     
   149 ;; Function _I2C1_DO_SEND_ADR_READ is unused but had its address taken
   150   000000                     
   151 ;; Function _I2C1_DO_SEND_ADR_WRITE is unused but had its address taken
   152   000000                     
   153 ;; Function _I2C1_DO_TX is unused but had its address taken
   154   000000                     
   155 ;; Function _I2C1_DO_RX is unused but had its address taken
   156   000000                     
   157 ;; Function _I2C1_DO_TX_EMPTY is unused but had its address taken
   158   000000                     
   159 ;; Function _I2C1_DO_RX_EMPTY is unused but had its address taken
   160   000000                     
   161 ;; Function _I2C1_DO_SEND_RESTART_READ is unused but had its address taken
   162   000000                     
   163 ;; Function _I2C1_DO_SEND_RESTART_WRITE is unused but had its address taken
   164   000000                     
   165 ;; Function _I2C1_DO_SEND_RESTART is unused but had its address taken
   166   000000                     
   167 ;; Function _I2C1_DO_SEND_STOP is unused but had its address taken
   168   000000                     
   169 ;; Function _I2C1_DO_RX_ACK is unused but had its address taken
   170   000000                     
   171 ;; Function _I2C1_DO_TX_ACK is unused but had its address taken
   172   000000                     
   173 ;; Function _I2C1_DO_RX_NACK_STOP is unused but had its address taken
   174   000000                     
   175 ;; Function _I2C1_DO_RX_NACK_RESTART is unused but had its address taken
   176   000000                     
   177 ;; Function _I2C1_DO_RESET is unused but had its address taken
   178   000000                     
   179 ;; Function _I2C1_DO_ADDRESS_NACK is unused but had its address taken
   180   000000                     
   181 ;; Function _I2C1_DO_BUS_COLLISION is unused but had its address taken
   182   000000                     
   183 ;; Function _I2C1_DO_BUS_ERROR is unused but had its address taken
   184   000000                     
   185 ;; Function _I2C1_CallbackReturnStop is unused but had its address taken
   186   000000                     
   187 ;; Function _I2C1_CallbackReturnReset is unused but had its address taken
   188   000000                     
   189 ;; Function _CO_COMM_RPDO1_COBIDAccessEvent is unused but had its address taken
   190   000000                     
   191 ;; Function _CO_COMM_TPDO1_COBIDAccessEvent is unused but had its address taken
   192   000000                     
   193 ;; Function _CO_COMM_TPDO1_TypeAccessEvent is unused but had its address taken
   194   000000                     
   195                           	psect	mediumconst
   196   00FD2C                     __pmediumconst:
   197                           	callstack 0
   198   00FD2C  00                 	db	0
   199   00FD2D                     _i2c1_fsmStateTable:
   200                           	callstack 0
   201   00FD2D  00                 	db	0
   202   00FD2E  00                 	db	0
   203   00FD2F  00                 	db	0
   204   00FD30  00                 	db	0
   205   00FD31  00                 	db	0
   206   00FD32  00                 	db	0
   207   00FD33  00                 	db	0
   208   00FD34  00                 	db	0
   209   00FD35  00                 	db	0
   210   00FD36  00                 	db	0
   211   00FD37  00                 	db	0
   212   00FD38  00                 	db	0
   213   00FD39  00                 	db	0
   214   00FD3A  00                 	db	0
   215   00FD3B  00                 	db	0
   216   00FD3C  00                 	db	0
   217   00FD3D  00                 	db	0
   218   00FD3E  00                 	db	0
   219   00FD3F  00                 	db	0
   220   00FD40  00                 	db	0
   221   00FD41  00                 	db	0
   222   00FD42  00                 	db	0
   223   00FD43  00                 	db	0
   224   00FD44  00                 	db	0
   225   00FD45  00                 	db	0
   226   00FD46  00                 	db	0
   227   00FD47  00                 	db	0
   228   00FD48  00                 	db	0
   229   00FD49  00                 	db	0
   230   00FD4A  00                 	db	0
   231   00FD4B  00                 	db	0
   232   00FD4C  00                 	db	0
   233   00FD4D  00                 	db	0
   234   00FD4E  00                 	db	0
   235   00FD4F  00                 	db	0
   236   00FD50  00                 	db	0
   237   00FD51  00                 	db	0
   238   00FD52  00                 	db	0
   239   00FD53                     __end_of_i2c1_fsmStateTable:
   240                           	callstack 0
   241   00FD53                     __db_device:
   242                           	callstack 0
   243   00FD53  1000               	dw	4096
   244   00FD55  00                 	db	0
   245   00FD56  05                 	db	5
   246   00FD57  0004               	dw	4
   247   00FD59  F6                 	db	low _rCO_DevType
   248   00FD5A  FF                 	db	high _rCO_DevType
   249   00FD5B  1001               	dw	4097
   250   00FD5D  00                 	db	0
   251   00FD5E  01                 	db	1
   252   00FD5F  0001               	dw	1
   253   00FD61  FE                 	db	low _uCO_DevErrReg
   254   00FD62  00                 	db	high _uCO_DevErrReg
   255   00FD63  1002               	dw	4098
   256   00FD65  00                 	db	0
   257   00FD66  01                 	db	1
   258   00FD67  0004               	dw	4
   259   00FD69  F4                 	db	low _uCO_DevManufacturerStatReg
   260   00FD6A  00                 	db	high _uCO_DevManufacturerStatReg
   261   00FD6B  1005               	dw	4101
   262   00FD6D  00                 	db	0
   263   00FD6E  13                 	db	19
   264   00FD6F  0004               	dw	4
   265   00FD71  00                 	db	0
   266   00FD72  00                 	db	0
   267   00FD73  1008               	dw	4104
   268   00FD75  00                 	db	0
   269   00FD76  05                 	db	5
   270   00FD77  0018               	dw	24
   271   00FD79  03                 	db	low _rCO_DevName
   272   00FD7A  FF                 	db	high _rCO_DevName
   273   00FD7B  1009               	dw	4105
   274   00FD7D  00                 	db	0
   275   00FD7E  05                 	db	5
   276   00FD7F  0004               	dw	4
   277   00FD81  D1                 	db	low _rCO_DevHardwareVer
   278   00FD82  FF                 	db	high _rCO_DevHardwareVer
   279   00FD83  100A               	dw	4106
   280   00FD85  00                 	db	0
   281   00FD86  05                 	db	5
   282   00FD87  0004               	dw	4
   283   00FD89  CC                 	db	low _rCO_DevSoftwareVer
   284   00FD8A  FF                 	db	high _rCO_DevSoftwareVer
   285   00FD8B  100C               	dw	4108
   286   00FD8D  00                 	db	0
   287   00FD8E  13                 	db	19
   288   00FD8F  0002               	dw	2
   289   00FD91  00                 	db	0
   290   00FD92  00                 	db	0
   291   00FD93  100D               	dw	4109
   292   00FD95  00                 	db	0
   293   00FD96  13                 	db	19
   294   00FD97  0001               	dw	1
   295   00FD99  00                 	db	0
   296   00FD9A  00                 	db	0
   297   00FD9B  1017               	dw	4119
   298   00FD9D  00                 	db	0
   299   00FD9E  13                 	db	19
   300   00FD9F  0002               	dw	2
   301   00FDA1  00                 	db	0
   302   00FDA2  00                 	db	0
   303   00FDA3  1018               	dw	4120
   304   00FDA5  00                 	db	0
   305   00FDA6  05                 	db	5
   306   00FDA7  0001               	dw	1
   307   00FDA9  FE                 	db	low _rCO_DevIdentityIndx
   308   00FDAA  FF                 	db	high _rCO_DevIdentityIndx
   309   00FDAB  1018               	dw	4120
   310   00FDAD  01                 	db	1
   311   00FDAE  05                 	db	5
   312   00FDAF  0004               	dw	4
   313   00FDB1  F2                 	db	low _rCO_DevVendorID
   314   00FDB2  FF                 	db	high _rCO_DevVendorID
   315   00FDB3  1018               	dw	4120
   316   00FDB5  02                 	db	2
   317   00FDB6  05                 	db	5
   318   00FDB7  0004               	dw	4
   319   00FDB9  EE                 	db	low _rCO_DevProductCode
   320   00FDBA  FF                 	db	high _rCO_DevProductCode
   321   00FDBB  1018               	dw	4120
   322   00FDBD  03                 	db	3
   323   00FDBE  05                 	db	5
   324   00FDBF  0004               	dw	4
   325   00FDC1  EA                 	db	low _rCO_DevRevNo
   326   00FDC2  FF                 	db	high _rCO_DevRevNo
   327   00FDC3  1018               	dw	4120
   328   00FDC5  04                 	db	4
   329   00FDC6  05                 	db	5
   330   00FDC7  0004               	dw	4
   331   00FDC9  E6                 	db	low _rCO_DevSerialNo
   332   00FDCA  FF                 	db	high _rCO_DevSerialNo
   333   00FDCB                     __end_of__db_device:
   334                           	callstack 0
   335   00FDCB                     __db_standard_g1:
   336                           	callstack 0
   337   00FDCB  6000               	dw	24576
   338   00FDCD  00                 	db	0
   339   00FDCE  01                 	db	1
   340   00FDCF  0001               	dw	1
   341   00FDD1  EC                 	db	low _uLocalXmtBuffer
   342   00FDD2  00                 	db	high _uLocalXmtBuffer
   343   00FDD3  6002               	dw	24578
   344   00FDD5  00                 	db	0
   345   00FDD6  05                 	db	5
   346   00FDD7  0001               	dw	1
   347   00FDD9  FC                 	db	low _rMaxIndex1
   348   00FDDA  FF                 	db	high _rMaxIndex1
   349   00FDDB  6002               	dw	24578
   350   00FDDD  01                 	db	1
   351   00FDDE  03                 	db	3
   352   00FDDF  0001               	dw	1
   353   00FDE1  FD                 	db	low _uIOinPolarity
   354   00FDE2  00                 	db	high _uIOinPolarity
   355   00FDE3  6003               	dw	24579
   356   00FDE5  00                 	db	0
   357   00FDE6  05                 	db	5
   358   00FDE7  0001               	dw	1
   359   00FDE9  FC                 	db	low _rMaxIndex1
   360   00FDEA  FF                 	db	high _rMaxIndex1
   361   00FDEB  6003               	dw	24579
   362   00FDED  01                 	db	1
   363   00FDEE  03                 	db	3
   364   00FDEF  0001               	dw	1
   365   00FDF1  FC                 	db	low _uIOinFilter
   366   00FDF2  00                 	db	high _uIOinFilter
   367   00FDF3  6005               	dw	24581
   368   00FDF5  00                 	db	0
   369   00FDF6  05                 	db	5
   370   00FDF7  0001               	dw	1
   371   00FDF9  FC                 	db	low _rMaxIndex1
   372   00FDFA  FF                 	db	high _rMaxIndex1
   373   00FDFB  6005               	dw	24581
   374   00FDFD  01                 	db	1
   375   00FDFE  03                 	db	3
   376   00FDFF  0001               	dw	1
   377   00FE01  FB                 	db	low _uIOinIntEnable
   378   00FE02  00                 	db	high _uIOinIntEnable
   379   00FE03  6006               	dw	24582
   380   00FE05  00                 	db	0
   381   00FE06  05                 	db	5
   382   00FE07  0001               	dw	1
   383   00FE09  FC                 	db	low _rMaxIndex1
   384   00FE0A  FF                 	db	high _rMaxIndex1
   385   00FE0B  6006               	dw	24582
   386   00FE0D  01                 	db	1
   387   00FE0E  03                 	db	3
   388   00FE0F  0001               	dw	1
   389   00FE11  FA                 	db	low _uIOinIntChange
   390   00FE12  00                 	db	high _uIOinIntChange
   391   00FE13  6007               	dw	24583
   392   00FE15  00                 	db	0
   393   00FE16  05                 	db	5
   394   00FE17  0001               	dw	1
   395   00FE19  FC                 	db	low _rMaxIndex1
   396   00FE1A  FF                 	db	high _rMaxIndex1
   397   00FE1B  6007               	dw	24583
   398   00FE1D  01                 	db	1
   399   00FE1E  03                 	db	3
   400   00FE1F  0001               	dw	1
   401   00FE21  F9                 	db	low _uIOinIntRise
   402   00FE22  00                 	db	high _uIOinIntRise
   403   00FE23  6008               	dw	24584
   404   00FE25  00                 	db	0
   405   00FE26  05                 	db	5
   406   00FE27  0001               	dw	1
   407   00FE29  FC                 	db	low _rMaxIndex1
   408   00FE2A  FF                 	db	high _rMaxIndex1
   409   00FE2B  6008               	dw	24584
   410   00FE2D  01                 	db	1
   411   00FE2E  03                 	db	3
   412   00FE2F  0001               	dw	1
   413   00FE31  F8                 	db	low _uIOinIntFall
   414   00FE32  00                 	db	high _uIOinIntFall
   415   00FE33  6200               	dw	25088
   416   00FE35  00                 	db	0
   417   00FE36  03                 	db	3
   418   00FE37  0001               	dw	1
   419   00FE39  E4                 	db	low _uLocalRcvBuffer
   420   00FE3A  00                 	db	high _uLocalRcvBuffer
   421   00FE3B                     __end_of__db_standard_g1:
   422                           	callstack 0
   423   00FE3B                     __db_pdo1_tx_map:
   424                           	callstack 0
   425   00FE3B  1A00               	dw	6656
   426   00FE3D  00                 	db	0
   427   00FE3E  05                 	db	5
   428   00FE3F  0001               	dw	1
   429   00FE41  FB                 	db	low _rMaxIndex2
   430   00FE42  FF                 	db	high _rMaxIndex2
   431   00FE43  1A00               	dw	6656
   432   00FE45  01                 	db	1
   433   00FE46  05                 	db	5
   434   00FE47  0004               	dw	4
   435   00FE49  DA                 	db	low _uTPDO1Map
   436   00FE4A  FF                 	db	high _uTPDO1Map
   437   00FE4B  1A00               	dw	6656
   438   00FE4D  02                 	db	2
   439   00FE4E  05                 	db	5
   440   00FE4F  0004               	dw	4
   441   00FE51  DE                 	db	low _uPDO1Dummy
   442   00FE52  FF                 	db	high _uPDO1Dummy
   443   00FE53  1A00               	dw	6656
   444   00FE55  03                 	db	3
   445   00FE56  05                 	db	5
   446   00FE57  0004               	dw	4
   447   00FE59  DE                 	db	low _uPDO1Dummy
   448   00FE5A  FF                 	db	high _uPDO1Dummy
   449   00FE5B  1A00               	dw	6656
   450   00FE5D  04                 	db	4
   451   00FE5E  05                 	db	5
   452   00FE5F  0004               	dw	4
   453   00FE61  DE                 	db	low _uPDO1Dummy
   454   00FE62  FF                 	db	high _uPDO1Dummy
   455   00FE63  1A00               	dw	6656
   456   00FE65  05                 	db	5
   457   00FE66  05                 	db	5
   458   00FE67  0004               	dw	4
   459   00FE69  DE                 	db	low _uPDO1Dummy
   460   00FE6A  FF                 	db	high _uPDO1Dummy
   461   00FE6B  1A00               	dw	6656
   462   00FE6D  06                 	db	6
   463   00FE6E  05                 	db	5
   464   00FE6F  0004               	dw	4
   465   00FE71  DE                 	db	low _uPDO1Dummy
   466   00FE72  FF                 	db	high _uPDO1Dummy
   467   00FE73  1A00               	dw	6656
   468   00FE75  07                 	db	7
   469   00FE76  05                 	db	5
   470   00FE77  0004               	dw	4
   471   00FE79  DE                 	db	low _uPDO1Dummy
   472   00FE7A  FF                 	db	high _uPDO1Dummy
   473   00FE7B  1A00               	dw	6656
   474   00FE7D  08                 	db	8
   475   00FE7E  05                 	db	5
   476   00FE7F  0004               	dw	4
   477   00FE81  DE                 	db	low _uPDO1Dummy
   478   00FE82  FF                 	db	high _uPDO1Dummy
   479   00FE83                     __end_of__db_pdo1_tx_map:
   480                           	callstack 0
   481   00FE83                     __db_pdo1_rx_map:
   482                           	callstack 0
   483   00FE83  1600               	dw	5632
   484   00FE85  00                 	db	0
   485   00FE86  05                 	db	5
   486   00FE87  0001               	dw	1
   487   00FE89  FB                 	db	low _rMaxIndex2
   488   00FE8A  FF                 	db	high _rMaxIndex2
   489   00FE8B  1600               	dw	5632
   490   00FE8D  01                 	db	1
   491   00FE8E  05                 	db	5
   492   00FE8F  0004               	dw	4
   493   00FE91  E2                 	db	low _uRPDO1Map
   494   00FE92  FF                 	db	high _uRPDO1Map
   495   00FE93  1600               	dw	5632
   496   00FE95  02                 	db	2
   497   00FE96  05                 	db	5
   498   00FE97  0004               	dw	4
   499   00FE99  DE                 	db	low _uPDO1Dummy
   500   00FE9A  FF                 	db	high _uPDO1Dummy
   501   00FE9B  1600               	dw	5632
   502   00FE9D  03                 	db	3
   503   00FE9E  05                 	db	5
   504   00FE9F  0004               	dw	4
   505   00FEA1  DE                 	db	low _uPDO1Dummy
   506   00FEA2  FF                 	db	high _uPDO1Dummy
   507   00FEA3  1600               	dw	5632
   508   00FEA5  04                 	db	4
   509   00FEA6  05                 	db	5
   510   00FEA7  0004               	dw	4
   511   00FEA9  DE                 	db	low _uPDO1Dummy
   512   00FEAA  FF                 	db	high _uPDO1Dummy
   513   00FEAB  1600               	dw	5632
   514   00FEAD  05                 	db	5
   515   00FEAE  05                 	db	5
   516   00FEAF  0004               	dw	4
   517   00FEB1  DE                 	db	low _uPDO1Dummy
   518   00FEB2  FF                 	db	high _uPDO1Dummy
   519   00FEB3  1600               	dw	5632
   520   00FEB5  06                 	db	6
   521   00FEB6  05                 	db	5
   522   00FEB7  0004               	dw	4
   523   00FEB9  DE                 	db	low _uPDO1Dummy
   524   00FEBA  FF                 	db	high _uPDO1Dummy
   525   00FEBB  1600               	dw	5632
   526   00FEBD  07                 	db	7
   527   00FEBE  05                 	db	5
   528   00FEBF  0004               	dw	4
   529   00FEC1  DE                 	db	low _uPDO1Dummy
   530   00FEC2  FF                 	db	high _uPDO1Dummy
   531   00FEC3  1600               	dw	5632
   532   00FEC5  08                 	db	8
   533   00FEC6  05                 	db	5
   534   00FEC7  0004               	dw	4
   535   00FEC9  DE                 	db	low _uPDO1Dummy
   536   00FECA  FF                 	db	high _uPDO1Dummy
   537   00FECB                     __end_of__db_pdo1_rx_map:
   538                           	callstack 0
   539   00FECB                     __db_objects:
   540                           	callstack 0
   541   00FECB  0001               	dw	1
   542   00FECD  00                 	db	0
   543   00FECE  26                 	db	38
   544   00FECF  0001               	dw	1
   545   00FED1  D6                 	db	low ___dummy
   546   00FED2  FF                 	db	high ___dummy
   547   00FED3  0002               	dw	2
   548   00FED5  00                 	db	0
   549   00FED6  26                 	db	38
   550   00FED7  0001               	dw	1
   551   00FED9  D6                 	db	low ___dummy
   552   00FEDA  FF                 	db	high ___dummy
   553   00FEDB  0003               	dw	3
   554   00FEDD  00                 	db	0
   555   00FEDE  26                 	db	38
   556   00FEDF  0002               	dw	2
   557   00FEE1  D6                 	db	low ___dummy
   558   00FEE2  FF                 	db	high ___dummy
   559   00FEE3  0004               	dw	4
   560   00FEE5  00                 	db	0
   561   00FEE6  26                 	db	38
   562   00FEE7  0004               	dw	4
   563   00FEE9  D6                 	db	low ___dummy
   564   00FEEA  FF                 	db	high ___dummy
   565   00FEEB  0005               	dw	5
   566   00FEED  00                 	db	0
   567   00FEEE  26                 	db	38
   568   00FEEF  0001               	dw	1
   569   00FEF1  D6                 	db	low ___dummy
   570   00FEF2  FF                 	db	high ___dummy
   571   00FEF3  0006               	dw	6
   572   00FEF5  00                 	db	0
   573   00FEF6  26                 	db	38
   574   00FEF7  0002               	dw	2
   575   00FEF9  D6                 	db	low ___dummy
   576   00FEFA  FF                 	db	high ___dummy
   577   00FEFB  0007               	dw	7
   578   00FEFD  00                 	db	0
   579   00FEFE  26                 	db	38
   580   00FEFF  0004               	dw	4
   581   00FF01  D6                 	db	low ___dummy
   582   00FF02  FF                 	db	high ___dummy
   583   00FF03                     __end_of__db_objects:
   584                           	callstack 0
   585   00FF03                     _rCO_DevName:
   586   00FF03  4D                 	db	77
   587   00FF04  69                 	db	105
   588   00FF05  63                 	db	99
   589   00FF06  72                 	db	114
   590   00FF07  6F                 	db	111
   591   00FF08  63                 	db	99
   592   00FF09  68                 	db	104
   593   00FF0A  69                 	db	105
   594   00FF0B  70                 	db	112
   595   00FF0C  20                 	db	32
   596   00FF0D  43                 	db	67
   597   00FF0E  41                 	db	65
   598   00FF0F  4E                 	db	78
   599   00FF10  6F                 	db	111
   600   00FF11  70                 	db	112
   601   00FF12  65                 	db	101
   602   00FF13  6E                 	db	110
   603   00FF14  20                 	db	32
   604   00FF15  44                 	db	68
   605   00FF16  65                 	db	101
   606   00FF17  76                 	db	118
   607   00FF18  69                 	db	105
   608   00FF19  63                 	db	99
   609   00FF1A  65                 	db	101
   610   00FF1B  00                 	db	0
   611   00FF1C                     __end_of_rCO_DevName:
   612                           	callstack 0
   613   00FF1C                     __db_pdo1_tx_comm:
   614                           	callstack 0
   615   00FF1C  1800               	dw	6144
   616   00FF1E  00                 	db	0
   617   00FF1F  05                 	db	5
   618   00FF20  0001               	dw	1
   619   00FF22  FA                 	db	low _uDemoTPDO1Len
   620   00FF23  FF                 	db	high _uDemoTPDO1Len
   621   00FF24  1800               	dw	6144
   622   00FF26  01                 	db	1
   623   00FF27  13                 	db	19
   624   00FF28  0004               	dw	4
   625   00FF2A  00                 	db	0
   626   00FF2B  00                 	db	0
   627   00FF2C  1800               	dw	6144
   628   00FF2E  02                 	db	2
   629   00FF2F  13                 	db	19
   630   00FF30  0001               	dw	1
   631   00FF32  00                 	db	0
   632   00FF33  00                 	db	0
   633   00FF34                     __end_of__db_pdo1_tx_comm:
   634                           	callstack 0
   635   00FF34                     __db_sdo:
   636                           	callstack 0
   637   00FF34  1200               	dw	4608
   638   00FF36  00                 	db	0
   639   00FF37  05                 	db	5
   640   00FF38  0001               	dw	1
   641   00FF3A  FD                 	db	low __uSDO1COMMIndx
   642   00FF3B  FF                 	db	high __uSDO1COMMIndx
   643   00FF3C  1200               	dw	4608
   644   00FF3E  01                 	db	1
   645   00FF3F  11                 	db	17
   646   00FF40  0004               	dw	4
   647   00FF42  00                 	db	0
   648   00FF43  00                 	db	0
   649   00FF44  1200               	dw	4608
   650   00FF46  02                 	db	2
   651   00FF47  11                 	db	17
   652   00FF48  0004               	dw	4
   653   00FF4A  00                 	db	0
   654   00FF4B  00                 	db	0
   655   00FF4C                     __end_of__db_sdo:
   656                           	callstack 0
   657   00FF4C                     __db_standard_g4:
   658                           	callstack 0
   659   00FF4C  9000               	dw	36864
   660   00FF4E  00                 	db	0
   661   00FF4F  00                 	db	0
   662   00FF50  0001               	dw	1
   663   00FF52  D6                 	db	low ___dummy
   664   00FF53  FF                 	db	high ___dummy
   665   00FF54  9000               	dw	36864
   666   00FF56  00                 	db	0
   667   00FF57  00                 	db	0
   668   00FF58  0001               	dw	1
   669   00FF5A  D6                 	db	low ___dummy
   670   00FF5B  FF                 	db	high ___dummy
   671   00FF5C                     __end_of__db_standard_g4:
   672                           	callstack 0
   673   00FF5C                     __db_standard_g3:
   674                           	callstack 0
   675   00FF5C  8000               	dw	32768
   676   00FF5E  00                 	db	0
   677   00FF5F  00                 	db	0
   678   00FF60  0001               	dw	1
   679   00FF62  D6                 	db	low ___dummy
   680   00FF63  FF                 	db	high ___dummy
   681   00FF64  8000               	dw	32768
   682   00FF66  00                 	db	0
   683   00FF67  00                 	db	0
   684   00FF68  0001               	dw	1
   685   00FF6A  D6                 	db	low ___dummy
   686   00FF6B  FF                 	db	high ___dummy
   687   00FF6C                     __end_of__db_standard_g3:
   688                           	callstack 0
   689   00FF6C                     __db_standard_g2:
   690                           	callstack 0
   691   00FF6C  7000               	dw	28672
   692   00FF6E  00                 	db	0
   693   00FF6F  00                 	db	0
   694   00FF70  0001               	dw	1
   695   00FF72  D6                 	db	low ___dummy
   696   00FF73  FF                 	db	high ___dummy
   697   00FF74  7000               	dw	28672
   698   00FF76  00                 	db	0
   699   00FF77  00                 	db	0
   700   00FF78  0001               	dw	1
   701   00FF7A  D6                 	db	low ___dummy
   702   00FF7B  FF                 	db	high ___dummy
   703   00FF7C                     __end_of__db_standard_g2:
   704                           	callstack 0
   705   00FF7C                     __db_manufacturer_g4:
   706                           	callstack 0
   707   00FF7C  5000               	dw	20480
   708   00FF7E  00                 	db	0
   709   00FF7F  00                 	db	0
   710   00FF80  0001               	dw	1
   711   00FF82  D6                 	db	low ___dummy
   712   00FF83  FF                 	db	high ___dummy
   713   00FF84  5000               	dw	20480
   714   00FF86  00                 	db	0
   715   00FF87  00                 	db	0
   716   00FF88  0001               	dw	1
   717   00FF8A  D6                 	db	low ___dummy
   718   00FF8B  FF                 	db	high ___dummy
   719   00FF8C                     __end_of__db_manufacturer_g4:
   720                           	callstack 0
   721   00FF8C                     __db_manufacturer_g3:
   722                           	callstack 0
   723   00FF8C  4000               	dw	16384
   724   00FF8E  00                 	db	0
   725   00FF8F  00                 	db	0
   726   00FF90  0001               	dw	1
   727   00FF92  D6                 	db	low ___dummy
   728   00FF93  FF                 	db	high ___dummy
   729   00FF94  4000               	dw	16384
   730   00FF96  00                 	db	0
   731   00FF97  00                 	db	0
   732   00FF98  0001               	dw	1
   733   00FF9A  D6                 	db	low ___dummy
   734   00FF9B  FF                 	db	high ___dummy
   735   00FF9C                     __end_of__db_manufacturer_g3:
   736                           	callstack 0
   737   00FF9C                     __db_manufacturer_g2:
   738                           	callstack 0
   739   00FF9C  3000               	dw	12288
   740   00FF9E  00                 	db	0
   741   00FF9F  00                 	db	0
   742   00FFA0  0001               	dw	1
   743   00FFA2  D6                 	db	low ___dummy
   744   00FFA3  FF                 	db	high ___dummy
   745   00FFA4  3000               	dw	12288
   746   00FFA6  00                 	db	0
   747   00FFA7  00                 	db	0
   748   00FFA8  0001               	dw	1
   749   00FFAA  D6                 	db	low ___dummy
   750   00FFAB  FF                 	db	high ___dummy
   751   00FFAC                     __end_of__db_manufacturer_g2:
   752                           	callstack 0
   753   00FFAC                     __db_manufacturer_g1:
   754                           	callstack 0
   755   00FFAC  2000               	dw	8192
   756   00FFAE  00                 	db	0
   757   00FFAF  00                 	db	0
   758   00FFB0  0001               	dw	1
   759   00FFB2  D6                 	db	low ___dummy
   760   00FFB3  FF                 	db	high ___dummy
   761   00FFB4  2000               	dw	8192
   762   00FFB6  00                 	db	0
   763   00FFB7  00                 	db	0
   764   00FFB8  0001               	dw	1
   765   00FFBA  D6                 	db	low ___dummy
   766   00FFBB  FF                 	db	high ___dummy
   767   00FFBC                     __end_of__db_manufacturer_g1:
   768                           	callstack 0
   769   00FFBC                     __db_pdo1_rx_comm:
   770                           	callstack 0
   771   00FFBC  1400               	dw	5120
   772   00FFBE  00                 	db	0
   773   00FFBF  05                 	db	5
   774   00FFC0  0001               	dw	1
   775   00FFC2  FC                 	db	low _rMaxIndex1
   776   00FFC3  FF                 	db	high _rMaxIndex1
   777   00FFC4  1400               	dw	5120
   778   00FFC6  01                 	db	1
   779   00FFC7  13                 	db	19
   780   00FFC8  0004               	dw	4
   781   00FFCA  00                 	db	0
   782   00FFCB  00                 	db	0
   783   00FFCC                     __end_of__db_pdo1_rx_comm:
   784                           	callstack 0
   785   00FFCC                     _rCO_DevSoftwareVer:
   786   00FFCC  56                 	db	86
   787   00FFCD  31                 	db	49
   788   00FFCE  2E                 	db	46
   789   00FFCF  30                 	db	48
   790   00FFD0  00                 	db	0
   791   00FFD1                     __end_of_rCO_DevSoftwareVer:
   792                           	callstack 0
   793   00FFD1                     _rCO_DevHardwareVer:
   794   00FFD1  56                 	db	86
   795   00FFD2  31                 	db	49
   796   00FFD3  2E                 	db	46
   797   00FFD4  30                 	db	48
   798   00FFD5  00                 	db	0
   799   00FFD6                     __end_of_rCO_DevHardwareVer:
   800                           	callstack 0
   801   00FFD6                     ___dummy:
   802   00FFD6  00                 	db	0
   803   00FFD7  00                 	db	0
   804   00FFD8  00                 	db	0
   805   00FFD9  00                 	db	0
   806   00FFDA                     __end_of___dummy:
   807                           	callstack 0
   808   00FFDA                     _uTPDO1Map:
   809   00FFDA  0108               	dw	264
   810   00FFDC  6000               	dw	24576
   811   00FFDE                     __end_of_uTPDO1Map:
   812                           	callstack 0
   813   00FFDE                     _uPDO1Dummy:
   814   00FFDE  0008               	dw	8
   815   00FFE0  0000               	dw	0
   816   00FFE2                     __end_of_uPDO1Dummy:
   817                           	callstack 0
   818   00FFE2                     _uRPDO1Map:
   819   00FFE2  0108               	dw	264
   820   00FFE4  6200               	dw	25088
   821   00FFE6                     __end_of_uRPDO1Map:
   822                           	callstack 0
   823   00FFE6                     _rCO_DevSerialNo:
   824   00FFE6  4321               	dw	17185
   825   00FFE8  8765               	dw	34661
   826   00FFEA                     __end_of_rCO_DevSerialNo:
   827                           	callstack 0
   828   00FFEA                     _rCO_DevRevNo:
   829   00FFEA  5678               	dw	22136
   830   00FFEC  1234               	dw	4660
   831   00FFEE                     __end_of_rCO_DevRevNo:
   832                           	callstack 0
   833   00FFEE                     _rCO_DevProductCode:
   834   00FFEE  4321               	dw	17185
   835   00FFF0  8765               	dw	34661
   836   00FFF2                     __end_of_rCO_DevProductCode:
   837                           	callstack 0
   838   00FFF2                     _rCO_DevVendorID:
   839   00FFF2  5678               	dw	22136
   840   00FFF4  1234               	dw	4660
   841   00FFF6                     __end_of_rCO_DevVendorID:
   842                           	callstack 0
   843   00FFF6                     _rCO_DevType:
   844   00FFF6  934A               	dw	37706
   845   00FFF8  0008               	dw	8
   846   00FFFA                     __end_of_rCO_DevType:
   847                           	callstack 0
   848   00FFFA                     _uDemoTPDO1Len:
   849   00FFFA  02                 	db	2
   850   00FFFB                     __end_of_uDemoTPDO1Len:
   851                           	callstack 0
   852   00FFFB                     _rMaxIndex2:
   853   00FFFB  08                 	db	8
   854   00FFFC                     __end_of_rMaxIndex2:
   855                           	callstack 0
   856   00FFFC                     _rMaxIndex1:
   857   00FFFC  01                 	db	1
   858   00FFFD                     __end_of_rMaxIndex1:
   859                           	callstack 0
   860   00FFFD                     __uSDO1COMMIndx:
   861   00FFFD  03                 	db	3
   862   00FFFE                     __end_of__uSDO1COMMIndx:
   863                           	callstack 0
   864   00FFFE                     _rCO_DevIdentityIndx:
   865   00FFFE  04                 	db	4
   866   00FFFF                     __end_of_rCO_DevIdentityIndx:
   867                           	callstack 0
   868   000000                     _I2C1TXB	set	15723
   869   000000                     _I2C1PIE	set	15738
   870   000000                     _T0CON0	set	16312
   871   000000                     _OSCTUNE	set	14814
   872   000000                     _OSCFRQ	set	14815
   873   000000                     _OSCEN	set	14813
   874   000000                     _COMSTATbits	set	16272
   875   000000                     _RXB1SIDH	set	14321
   876   000000                     _RXB1SIDL	set	14322
   877   000000                     _RXB0D5	set	16267
   878   000000                     _RXB0D4	set	16266
   879   000000                     _RXB0EIDL	set	16260
   880   000000                     _RXB0EIDH	set	16259
   881   000000                     _RXB0SIDL	set	16258
   882   000000                     _TXB2SIDL	set	14274
   883   000000                     _TXB2SIDH	set	14273
   884   000000                     _TXB2EIDH	set	14275
   885   000000                     _TXB1SIDL	set	14290
   886   000000                     _TXB1SIDH	set	14289
   887   000000                     _TXB1EIDH	set	14291
   888   000000                     _TXB0SIDL	set	14306
   889   000000                     _TXB0SIDH	set	14305
   890   000000                     _TXB0EIDH	set	14307
   891   000000                     _RXF5SIDL	set	14261
   892   000000                     _RXF5EIDL	set	14263
   893   000000                     _RXF5EIDH	set	14262
   894   000000                     _RXF4SIDL	set	14257
   895   000000                     _RXF4EIDL	set	14259
   896   000000                     _RXF4EIDH	set	14258
   897   000000                     _RXF3SIDL	set	14253
   898   000000                     _RXF3EIDL	set	14255
   899   000000                     _RXF3EIDH	set	14254
   900   000000                     _RXF2SIDL	set	14249
   901   000000                     _RXF2EIDL	set	14251
   902   000000                     _RXF2EIDH	set	14250
   903   000000                     _RXF1SIDL	set	14245
   904   000000                     _RXF1EIDL	set	14247
   905   000000                     _RXF1EIDH	set	14246
   906   000000                     _RXF0SIDL	set	14241
   907   000000                     _RXF0EIDL	set	14243
   908   000000                     _RXF0EIDH	set	14242
   909   000000                     _RXM1SIDL	set	14269
   910   000000                     _RXM1SIDH	set	14268
   911   000000                     _RXM1EIDL	set	14271
   912   000000                     _RXM1EIDH	set	14270
   913   000000                     _PIE3bits	set	14739
   914   000000                     _PIE5bits	set	14741
   915   000000                     _RXB0D7	set	16269
   916   000000                     _RXB0D6	set	16268
   917   000000                     _RXB0D3	set	16265
   918   000000                     _RXB0D2	set	16264
   919   000000                     _RXB0SIDH	set	16257
   920   000000                     _RXB0D1	set	16263
   921   000000                     _RXB0DLC	set	16261
   922   000000                     _PIR5bits	set	14757
   923   000000                     _TXB2CONbits	set	14272
   924   000000                     _TXB1CONbits	set	14288
   925   000000                     _TXB0CONbits	set	14304
   926   000000                     _BRGCON3	set	14085
   927   000000                     _BRGCON2	set	14084
   928   000000                     _BIE0	set	14142
   929   000000                     _TXBIE	set	14143
   930   000000                     _RXM0EIDL	set	14267
   931   000000                     _RXM0EIDH	set	14266
   932   000000                     _RXM0SIDL	set	14265
   933   000000                     _RXM0SIDH	set	14264
   934   000000                     _MSEL3	set	14140
   935   000000                     _MSEL2	set	14139
   936   000000                     _MSEL1	set	14138
   937   000000                     _MSEL0	set	14137
   938   000000                     _RXFBCON7	set	14136
   939   000000                     _RXFBCON6	set	14135
   940   000000                     _RXFBCON5	set	14134
   941   000000                     _RXFBCON4	set	14133
   942   000000                     _RXFBCON3	set	14132
   943   000000                     _RXFBCON2	set	14131
   944   000000                     _RXFBCON1	set	14130
   945   000000                     _RXFBCON0	set	14129
   946   000000                     _RXFCON1	set	14087
   947   000000                     _ECANCON	set	16273
   948   000000                     _B0CON	set	14144
   949   000000                     _RXB1CON	set	14320
   950   000000                     _RXB0CON	set	16256
   951   000000                     _CANCON	set	16271
   952   000000                     _RXF6SIDH	set	14088
   953   000000                     _RXF5SIDH	set	14260
   954   000000                     _RXF4SIDH	set	14256
   955   000000                     _RXF3SIDH	set	14252
   956   000000                     _RXF2SIDH	set	14248
   957   000000                     _RXF1SIDH	set	14244
   958   000000                     _PLLR	set	118496
   959   000000                     _RXB0D0	set	16262
   960   000000                     _B1CONbits	set	14160
   961   000000                     _B0CONbits	set	14144
   962   000000                     _RXB1CONbits	set	14320
   963   000000                     _RXFCON0	set	14086
   964   000000                     _I2C1PIEbits	set	15738
   965   000000                     _I2C1PIRbits	set	15737
   966   000000                     _I2C1ERRbits	set	15734
   967   000000                     _I2C1CON1bits	set	15732
   968   000000                     _I2C1CON0bits	set	15731
   969   000000                     _U1ERRIRbits	set	15865
   970   000000                     _U1CON0bits	set	15858
   971   000000                     _T0CON0bits	set	16312
   972   000000                     _CANSTAT	set	16270
   973   000000                     _LATB	set	16315
   974   000000                     _RXB0DLCbits	set	16261
   975   000000                     _RXB0CONbits	set	16256
   976   000000                     _CANCONbits	set	16271
   977   000000                     _BRGCON1	set	14083
   978   000000                     _CIOCON	set	14080
   979   000000                     _RXFCON0bits	set	14086
   980   000000                     _RXF0SIDH	set	14240
   981   000000                     _CANSTATbits	set	16270
   982   000000                     _RXF7SIDH	set	14092
   983   000000                     _SDFLC	set	14128
   984   000000                     _BSEL0	set	14141
   985   000000                     _B1CON	set	14160
   986   000000                     _B2CON	set	14176
   987   000000                     _B3CON	set	14192
   988   000000                     _B4CON	set	14208
   989   000000                     _B5CON	set	14224
   990   000000                     _TMR0L	set	16310
   991   000000                     _TMR0H	set	16311
   992   000000                     _T0CON1	set	16313
   993   000000                     _LATA	set	16314
   994   000000                     _LATBbits	set	16315
   995   000000                     _PMD0	set	14784
   996   000000                     _OSCCON1	set	14809
   997   000000                     _RB0PPS	set	14856
   998   000000                     _ANSELA	set	14912
   999   000000                     _ANSELB	set	14928
  1000   000000                     _ANSELC	set	14944
  1001   000000                     _TRISA	set	16322
  1002   000000                     _LATC	set	16316
  1003   000000                     _INTCON0bits	set	16338
  1004   000000                     _PIR2bits	set	14754
  1005   000000                     _PIR3bits	set	14755
  1006   000000                     _TRISC	set	16324
  1007   000000                     _TRISB	set	16323
  1008   000000                     _INLVLC	set	14948
  1009   000000                     _SLRCONC	set	14947
  1010   000000                     _ODCONC	set	14946
  1011   000000                     _WPUC	set	14945
  1012   000000                     _WPUE	set	14977
  1013   000000                     _INLVLB	set	14932
  1014   000000                     _SLRCONB	set	14931
  1015   000000                     _ODCONB	set	14930
  1016   000000                     _WPUB	set	14929
  1017   000000                     _INLVLA	set	14916
  1018   000000                     _SLRCONA	set	14915
  1019   000000                     _ODCONA	set	14914
  1020   000000                     _WPUA	set	14913
  1021   000000                     _INLVLE	set	14980
  1022   000000                     _I2C1SCLPPS	set	15075
  1023   000000                     _I2C1SDAPPS	set	15076
  1024   000000                     _U1RXPPS	set	15079
  1025   000000                     _CANRXPPS	set	15085
  1026   000000                     _RB2PPS	set	14858
  1027   000000                     _RC6PPS	set	14870
  1028   000000                     _I2C1RXB	set	15722
  1029   000000                     _I2C1CNT	set	15724
  1030   000000                     _I2C1CON0	set	15731
  1031   000000                     _U1RXB	set	15848
  1032   000000                     _U1P1L	set	15852
  1033   000000                     _RC7PPS	set	14871
  1034   000000                     _U1ERRIE	set	15866
  1035   000000                     _U1ERRIR	set	15865
  1036   000000                     _U1UIR	set	15864
  1037   000000                     _U1FIFO	set	15863
  1038   000000                     _U1BRGH	set	15862
  1039   000000                     _U1BRGL	set	15861
  1040   000000                     _U1CON2	set	15860
  1041   000000                     _U1CON1	set	15859
  1042   000000                     _U1CON0	set	15858
  1043   000000                     _U1P3H	set	15857
  1044   000000                     _U1P3L	set	15856
  1045   000000                     _U1P2H	set	15855
  1046   000000                     _U1P2L	set	15854
  1047   000000                     _U1P1H	set	15853
  1048   000000                     _U1TXB	set	15850
  1049   000000                     _TXB0D7	set	14317
  1050   000000                     _TXB0D6	set	14316
  1051   000000                     _TXB0D5	set	14315
  1052   000000                     _TXB0D4	set	14314
  1053   000000                     _TXB0D3	set	14313
  1054   000000                     _TXB0D2	set	14312
  1055   000000                     _TXB0D1	set	14311
  1056   000000                     _TXB0D0	set	14310
  1057   000000                     _TXB0DLC	set	14309
  1058   000000                     _TXB0EIDL	set	14308
  1059   000000                     _TXB1D7	set	14301
  1060   000000                     _TXB1D6	set	14300
  1061   000000                     _TXB1D5	set	14299
  1062   000000                     _TXB1D4	set	14298
  1063   000000                     _TXB1D3	set	14297
  1064   000000                     _TXB1D2	set	14296
  1065   000000                     _TXB1D1	set	14295
  1066   000000                     _TXB1D0	set	14294
  1067   000000                     _TXB1DLC	set	14293
  1068   000000                     _TXB1EIDL	set	14292
  1069   000000                     _TXB2D7	set	14285
  1070   000000                     _TXB2D6	set	14284
  1071   000000                     _TXB2D5	set	14283
  1072   000000                     _TXB2D4	set	14282
  1073   000000                     _TXB2D3	set	14281
  1074   000000                     _TXB2D2	set	14280
  1075   000000                     _TXB2D1	set	14279
  1076   000000                     _TXB2D0	set	14278
  1077   000000                     _TXB2DLC	set	14277
  1078   000000                     _TXB2EIDL	set	14276
  1079   000000                     _PIE2bits	set	14738
  1080   000000                     _RXB1D7	set	14333
  1081   000000                     _RXB1D6	set	14332
  1082   000000                     _RXB1D5	set	14331
  1083   000000                     _RXB1D4	set	14330
  1084   000000                     _RXB1D3	set	14329
  1085   000000                     _RXB1D2	set	14328
  1086   000000                     _RXB1D1	set	14327
  1087   000000                     _RXB1D0	set	14326
  1088   000000                     _RXB1DLC	set	14325
  1089   000000                     _RXB1EIDL	set	14324
  1090   000000                     _RXB1EIDH	set	14323
  1091   000000                     _OSCCON3	set	14811
  1092   000000                     _PMD7	set	14791
  1093   000000                     _PMD6	set	14790
  1094   000000                     _PMD5	set	14789
  1095   000000                     _PMD4	set	14788
  1096   000000                     _PMD3	set	14787
  1097   000000                     _PMD2	set	14786
  1098   000000                     _PMD1	set	14785
  1099   000000                     _I2C1STAT1bits	set	15736
  1100   000000                     _I2C1ERR	set	15734
  1101   000000                     _I2C1PIR	set	15737
  1102   000000                     _I2C1CLK	set	15739
  1103   000000                     _I2C1CON2	set	15733
  1104   000000                     _I2C1CON1	set	15732
  1105   00FFFF  00                 	db	0	; dummy byte at the end
  1106   000000                     
  1107                           ; #config settings
  1108                           
  1109                           	psect	cinit
  1110   0021F8                     __pcinit:
  1111                           	callstack 0
  1112   0021F8                     start_initialization:
  1113                           	callstack 0
  1114   0021F8                     __initialization:
  1115                           	callstack 0
  1116                           
  1117                           ; Clear objects allocated to BANK1 (32 bytes)
  1118   0021F8  EE00  F100         	lfsr	0,__pbssBANK1
  1119   0021FC  0E20               	movlw	32
  1120   0021FE                     clear_0:
  1121   0021FE  6AEE               	clrf	postinc0,c
  1122   002200  06E8               	decf	wreg,f,c
  1123   002202  E1FD               	bnz	clear_0
  1124                           
  1125                           ; Clear objects allocated to BANK0 (159 bytes)
  1126   002204  EE00  F060         	lfsr	0,__pbssBANK0
  1127   002208  0E9F               	movlw	159
  1128   00220A                     clear_1:
  1129   00220A  6AEE               	clrf	postinc0,c
  1130   00220C  06E8               	decf	wreg,f,c
  1131   00220E  E1FD               	bnz	clear_1
  1132                           
  1133                           ; Clear objects allocated to COMRAM (69 bytes)
  1134   002210  EE00  F001         	lfsr	0,__pbssCOMRAM
  1135   002214  0E45               	movlw	69
  1136   002216                     clear_2:
  1137   002216  6AEE               	clrf	postinc0,c
  1138   002218  06E8               	decf	wreg,f,c
  1139   00221A  E1FD               	bnz	clear_2
  1140                           
  1141                           ;
  1142                           ; Setup IVTBASE
  1143                           ;
  1144   00221C  0E08               	movlw	(ivt0x8_base shr 0)& (0+255)
  1145   00221E  6ED5               	movwf	213,c
  1146   002220  0E00               	movlw	(ivt0x8_base shr (0+8))& (0+255)
  1147   002222  6ED6               	movwf	214,c
  1148   002224  0E00               	movlw	(ivt0x8_base shr (0+16))& (0+255)
  1149   002226  6ED7               	movwf	215,c
  1150   002228                     end_of_initialization:
  1151                           	callstack 0
  1152   002228                     __end_of__initialization:
  1153                           	callstack 0
  1154   002228  0100               	movlb	0
  1155   00222A  EFA0  F00E         	goto	_main	;jump to C main() function
  1156                           
  1157                           	psect	bssCOMRAM
  1158   000001                     __pbssCOMRAM:
  1159                           	callstack 0
  1160   000001                     __uCOB_ID_out:
  1161                           	callstack 0
  1162   000001                     	ds	4
  1163   000005                     __uCOB_ID_in:
  1164                           	callstack 0
  1165   000005                     	ds	4
  1166   000009                     _uDict:
  1167                           	callstack 0
  1168   000009                     	ds	4
  1169   00000D                     __tMplex:
  1170                           	callstack 0
  1171   00000D                     	ds	3
  1172   000010                     __uNMTEGuardTime:
  1173                           	callstack 0
  1174   000010                     	ds	2
  1175   000012                     __uNMTEHeartBeat:
  1176                           	callstack 0
  1177   000012                     	ds	2
  1178   000014                     __pTmpDBase:
  1179                           	callstack 0
  1180   000014                     	ds	2
  1181   000016                     _uDemoSyncSet:
  1182                           	callstack 0
  1183   000016                     	ds	1
  1184   000017                     _uDemoSyncCount:
  1185                           	callstack 0
  1186   000017                     	ds	1
  1187   000018                     _uDemoState:
  1188                           	callstack 0
  1189   000018                     	ds	1
  1190   000019                     _uart1RxLastError:
  1191                           	callstack 0
  1192   000019                     	ds	1
  1193   00001A                     __hSYNC:
  1194                           	callstack 0
  1195   00001A                     	ds	1
  1196   00001B                     __uSDO1Ctl:
  1197                           	callstack 0
  1198   00001B                     	ds	1
  1199   00001C                     __uSDO1ACode:
  1200                           	callstack 0
  1201   00001C                     	ds	1
  1202   00001D                     __uSDO1State:
  1203                           	callstack 0
  1204   00001D                     	ds	1
  1205   00001E                     __hSDO1:
  1206                           	callstack 0
  1207   00001E                     	ds	1
  1208   00001F                     __uPDOHandles1:
  1209                           	callstack 0
  1210   00001F                     	ds	1
  1211   000020                     __hNMTE:
  1212                           	callstack 0
  1213   000020                     	ds	1
  1214   000021                     __uNMTELifeFactor:
  1215                           	callstack 0
  1216   000021                     	ds	1
  1217   000022                     __uNMTELocalState:
  1218                           	callstack 0
  1219   000022                     	ds	1
  1220   000023                     __hNMT:
  1221                           	callstack 0
  1222   000023                     	ds	1
  1223   000024                     __tDBaseLen:
  1224                           	callstack 0
  1225   000024                     	ds	1
  1226   000025                     __rx_pdo_flg:
  1227                           	callstack 0
  1228   000025                     	ds	1
  1229   000026                     __tx_pdo_que:
  1230                           	callstack 0
  1231   000026                     	ds	1
  1232   000027                     __tx_sdo_que:
  1233                           	callstack 0
  1234   000027                     	ds	1
  1235   000028                     __tx_net_que:
  1236                           	callstack 0
  1237   000028                     	ds	1
  1238   000029                     __tpdo_en:
  1239                           	callstack 0
  1240   000029                     	ds	1
  1241   00002A                     __rpdo_en:
  1242                           	callstack 0
  1243   00002A                     	ds	1
  1244   00002B                     __sdo_en:
  1245                           	callstack 0
  1246   00002B                     	ds	1
  1247   00002C                     __net_en:
  1248                           	callstack 0
  1249   00002C                     	ds	1
  1250   00002D                     __uCO_baud:
  1251                           	callstack 0
  1252   00002D                     	ds	1
  1253   00002E                     __uCO_state:
  1254                           	callstack 0
  1255   00002E                     	ds	1
  1256   00002F                     __uCO_nodeID:
  1257                           	callstack 0
  1258   00002F                     	ds	1
  1259   000030                     __uNMTEState:
  1260                           	callstack 0
  1261   000030                     	ds	1
  1262   000031                     __uCANOldMode:
  1263                           	callstack 0
  1264   000031                     	ds	1
  1265   000032                     __uCANReq:
  1266                           	callstack 0
  1267   000032                     	ds	1
  1268   000033                     __uCAN_Bitrate:
  1269                           	callstack 0
  1270   000033                     	ds	1
  1271   000034                     __uCAN_ret:
  1272                           	callstack 0
  1273   000034                     	ds	1
  1274   000035                     __uCAN_Param1:
  1275                           	callstack 0
  1276   000035                     	ds	1
  1277   000036                     __uCAN_Handle:
  1278                           	callstack 0
  1279   000036                     	ds	1
  1280   000037                     __uSDO1Dict:
  1281                           	callstack 0
  1282   000037                     	ds	15
  1283                           
  1284                           	psect	bssBANK0
  1285   000060                     __pbssBANK0:
  1286                           	callstack 0
  1287   000060                     _I2C1_Status:
  1288                           	callstack 0
  1289   000060                     	ds	36
  1290   000084                     __uCANRxHndls:
  1291                           	callstack 0
  1292   000084                     	ds	8
  1293   00008C                     __uPDO1:
  1294                           	callstack 0
  1295   00008C                     	ds	6
  1296   000092                     __uSYNC_COBID:
  1297                           	callstack 0
  1298   000092                     	ds	4
  1299   000096                     __uSDO1_SC_COBID:
  1300                           	callstack 0
  1301   000096                     	ds	4
  1302   00009A                     __uSDO1_CS_COBID:
  1303                           	callstack 0
  1304   00009A                     	ds	4
  1305   00009E                     _uTPDOComm1:
  1306                           	callstack 0
  1307   00009E                     	ds	4
  1308   0000A2                     _uRPDOComm1:
  1309                           	callstack 0
  1310   0000A2                     	ds	4
  1311   0000A6                     __uNMTE_COBID:
  1312                           	callstack 0
  1313   0000A6                     	ds	4
  1314   0000AA                     __uDictTemp:
  1315                           	callstack 0
  1316   0000AA                     	ds	4
  1317   0000AE                     __uNMTETimer:
  1318                           	callstack 0
  1319   0000AE                     	ds	3
  1320   0000B1                     __uCANTxHndls:
  1321                           	callstack 0
  1322   0000B1                     	ds	3
  1323   0000B4                     _TMR0_InterruptHandler:
  1324                           	callstack 0
  1325   0000B4                     	ds	2
  1326   0000B6                     _WakeUpInterruptHandler:
  1327                           	callstack 0
  1328   0000B6                     	ds	2
  1329   0000B8                     _UART1_ErrorHandler:
  1330                           	callstack 0
  1331   0000B8                     	ds	2
  1332   0000BA                     _UART1_OverrunErrorHandler:
  1333                           	callstack 0
  1334   0000BA                     	ds	2
  1335   0000BC                     _UART1_FramingErrorHandler:
  1336                           	callstack 0
  1337   0000BC                     	ds	2
  1338   0000BE                     __uSDO1BytesLeft:
  1339                           	callstack 0
  1340   0000BE                     	ds	2
  1341   0000C0                     __uSDO1Timer:
  1342                           	callstack 0
  1343   0000C0                     	ds	2
  1344   0000C2                     _uIOinDigiInOld:
  1345                           	callstack 0
  1346   0000C2                     	ds	1
  1347   0000C3                     __rx_sdo_flg:
  1348                           	callstack 0
  1349   0000C3                     	ds	1
  1350   0000C4                     __rx_net_flg:
  1351                           	callstack 0
  1352   0000C4                     	ds	1
  1353   0000C5                     __uCAN_Param4:
  1354                           	callstack 0
  1355   0000C5                     	ds	1
  1356   0000C6                     __uCAN_Param3:
  1357                           	callstack 0
  1358   0000C6                     	ds	1
  1359   0000C7                     __uCAN_Param2:
  1360                           	callstack 0
  1361   0000C7                     	ds	1
  1362   0000C8                     __uSDO1RxBuf:
  1363                           	callstack 0
  1364   0000C8                     	ds	20
  1365   0000DC                     __uSDO1TxBuf:
  1366                           	callstack 0
  1367   0000DC                     	ds	8
  1368   0000E4                     _uLocalRcvBuffer:
  1369                           	callstack 0
  1370   0000E4                     	ds	8
  1371   0000EC                     _uLocalXmtBuffer:
  1372                           	callstack 0
  1373   0000EC                     	ds	8
  1374   0000F4                     _uCO_DevManufacturerStatReg:
  1375                           	callstack 0
  1376   0000F4                     	ds	4
  1377   0000F8                     _uIOinIntFall:
  1378                           	callstack 0
  1379   0000F8                     	ds	1
  1380   0000F9                     _uIOinIntRise:
  1381                           	callstack 0
  1382   0000F9                     	ds	1
  1383   0000FA                     _uIOinIntChange:
  1384                           	callstack 0
  1385   0000FA                     	ds	1
  1386   0000FB                     _uIOinIntEnable:
  1387                           	callstack 0
  1388   0000FB                     	ds	1
  1389   0000FC                     _uIOinFilter:
  1390                           	callstack 0
  1391   0000FC                     	ds	1
  1392   0000FD                     _uIOinPolarity:
  1393                           	callstack 0
  1394   0000FD                     	ds	1
  1395   0000FE                     _uCO_DevErrReg:
  1396                           	callstack 0
  1397   0000FE                     	ds	1
  1398                           
  1399                           	psect	bssBANK1
  1400   000100                     __pbssBANK1:
  1401                           	callstack 0
  1402   000100                     __uCANRxIDRes:
  1403                           	callstack 0
  1404   000100                     	ds	32
  1405                           
  1406                           	psect	cstackBANK1
  1407   000120                     __pcstackBANK1:
  1408                           	callstack 0
  1409   000120                     ??__CANEventManager:
  1410   000120                     ?___wmul:
  1411                           	callstack 0
  1412   000120                     CO_MEMIO_CopySram@pIn:
  1413                           	callstack 0
  1414   000120                     CO_MEMIO_CopyRomToRam@pIn:
  1415                           	callstack 0
  1416   000120                     ___wmul@multiplier:
  1417                           	callstack 0
  1418                           
  1419                           ; 2 bytes @ 0x0
  1420   000120                     	ds	2
  1421   000122                     CO_MEMIO_CopySram@pOut:
  1422                           	callstack 0
  1423   000122                     CO_MEMIO_CopyRomToRam@pOut:
  1424                           	callstack 0
  1425   000122                     ___wmul@multiplicand:
  1426                           	callstack 0
  1427                           
  1428                           ; 2 bytes @ 0x2
  1429   000122                     	ds	2
  1430   000124                     ??__CO_COMM_NMT_RXEvent:
  1431   000124                     CO_MEMIO_CopySram@len:
  1432                           	callstack 0
  1433   000124                     CO_MEMIO_CopyRomToRam@len:
  1434                           	callstack 0
  1435                           
  1436                           ; 2 bytes @ 0x4
  1437   000124                     	ds	2
  1438   000126                     ??__CO_COMM_SDO1_RXEvent:
  1439                           
  1440                           ; 1 bytes @ 0x6
  1441   000126                     	ds	2
  1442   000128                     ??__CO_COMMRXEventManager:
  1443                           
  1444                           ; 1 bytes @ 0x8
  1445   000128                     	ds	2
  1446   00012A                     ??_main:
  1447                           
  1448                           ; 1 bytes @ 0xA
  1449   00012A                     	ds	2
  1450                           
  1451                           	psect	cstackCOMRAM
  1452   000046                     __pcstackCOMRAM:
  1453                           	callstack 0
  1454   000046                     ??_CO_NMTENodeGuardErrEvent:
  1455   000046                     ?i2___wmul:
  1456                           	callstack 0
  1457   000046                     i2___wmul@multiplier:
  1458                           	callstack 0
  1459                           
  1460                           ; 2 bytes @ 0x0
  1461   000046                     	ds	2
  1462   000048                     i2___wmul@multiplicand:
  1463                           	callstack 0
  1464                           
  1465                           ; 2 bytes @ 0x2
  1466   000048                     	ds	2
  1467   00004A                     i2___wmul@product:
  1468                           	callstack 0
  1469                           
  1470                           ; 2 bytes @ 0x4
  1471   00004A                     	ds	2
  1472   00004C                     ??__CO_COMM_NMTE_LSTimerEvent:
  1473                           
  1474                           ; 1 bytes @ 0x6
  1475   00004C                     	ds	3
  1476   00004F                     ??_TMR0_Blink:
  1477                           
  1478                           ; 1 bytes @ 0x9
  1479   00004F                     	ds	1
  1480   000050                     ??_INTERRUPT_InterruptManager:
  1481                           
  1482                           ; 1 bytes @ 0xA
  1483   000050                     	ds	2
  1484   000052                     ??__CANSetBitRate:
  1485   000052                     ??__CO_COMM_NMTE_TXEvent:
  1486   000052                     ??__CO_COMM_SYNC_RXEvent:
  1487   000052                     ??__CO_COMM_SDO1_TXEvent:
  1488   000052                     ??__CO_COB_CANopen2MCHP:
  1489   000052                     ??__CANIsGetReady:
  1490   000052                     ??__CO_COMMTXFinEventManager:
  1491   000052                     ??__CO_DictObjectRead:
  1492   000052                     ??__CO_DictObjectWrite:
  1493   000052                     ??__CO_DictObjectDecode:
  1494   000052                     __CANOpenMessage@i:
  1495                           	callstack 0
  1496   000052                     UART1_SetFramingErrorHandler@interruptHandler:
  1497                           	callstack 0
  1498   000052                     UART1_SetOverrunErrorHandler@interruptHandler:
  1499                           	callstack 0
  1500   000052                     UART1_SetErrorHandler@interruptHandler:
  1501                           	callstack 0
  1502   000052                     TMR0_SetInterruptHandler@InterruptHandler:
  1503                           	callstack 0
  1504   000052                     ___wmul@product:
  1505                           	callstack 0
  1506                           
  1507                           ; 2 bytes @ 0xC
  1508   000052                     	ds	1
  1509   000053                     
  1510                           ; 1 bytes @ 0xD
  1511   000053                     	ds	1
  1512   000054                     
  1513                           ; 1 bytes @ 0xE
  1514 ;;
  1515 ;;Main: autosize = 0, tempsize = 2, incstack = 0, save=0
  1516 ;;
  1517 ;; *************** function _main *****************
  1518 ;; Defined at:
  1519 ;;		line 555 in file "main.c"
  1520 ;; Parameters:    Size  Location     Type
  1521 ;;		None
  1522 ;; Auto vars:     Size  Location     Type
  1523 ;;		None
  1524 ;; Return value:  Size  Location     Type
  1525 ;;                  1    wreg      void 
  1526 ;; Registers used:
  1527 ;;		wreg, fsr1l, fsr1h, fsr2l, fsr2h, status,2, status,0, tblptrl, tblptrh, tblptru, prodl, prodh, cstack
  1528 ;; Tracked objects:
  1529 ;;		On entry : 0/0
  1530 ;;		On exit  : 0/0
  1531 ;;		Unchanged: 0/0
  1532 ;; Data sizes:     COMRAM   BANK0   BANK1   BANK2   BANK3   BANK4   BANK5   BANK6   BANK7   BANK8   BANK9  BANK10  BANK1
      +1  BANK12  BANK13  BANK14  BANK15
  1533 ;;      Params:         0       0       0       0       0       0       0       0       0       0       0       0       
      +0       0       0       0       0
  1534 ;;      Locals:         0       0       0       0       0       0       0       0       0       0       0       0       
      +0       0       0       0       0
  1535 ;;      Temps:          0       0       2       0       0       0       0       0       0       0       0       0       
      +0       0       0       0       0
  1536 ;;      Totals:         0       0       2       0       0       0       0       0       0       0       0       0       
      +0       0       0       0       0
  1537 ;;Total ram usage:        2 bytes
  1538 ;; Hardware stack levels required when called: 12
  1539 ;; This function calls:
  1540 ;;		_CO_ProcessAllEvents
  1541 ;;		_DemoInit
  1542 ;;		_SYSTEM_Initialize
  1543 ;;		_TMR0_SetInterruptHandler
  1544 ;;		_TMR0_StartTimer
  1545 ;;		__CO_COMMResetEventManager
  1546 ;; This function is called by:
  1547 ;;		Startup code after reset
  1548 ;; This function uses a non-reentrant model
  1549 ;;
  1550                           
  1551                           	psect	text0
  1552   001D40                     __ptext0:
  1553                           	callstack 0
  1554   001D40                     _main:
  1555                           	callstack 19
  1556   001D40                     
  1557                           ;main.c: 559:     SYSTEM_Initialize();
  1558   001D40  EC29  F012         	call	_SYSTEM_Initialize	;wreg free
  1559   001D44                     
  1560                           ;main.c: 566:     (INTCON0bits.GIE = 1);
  1561   001D44  8ED2               	bsf	210,7,c	;volatile
  1562                           
  1563                           ;main.c: 572:     TMR0_SetInterruptHandler(TMR0_Blink);
  1564   001D46  0E40               	movlw	low _TMR0_Blink
  1565   001D48  6E52               	movwf	TMR0_SetInterruptHandler@InterruptHandler^0,c
  1566   001D4A  0E21               	movlw	high _TMR0_Blink
  1567   001D4C  6E53               	movwf	(TMR0_SetInterruptHandler@InterruptHandler+1)^0,c
  1568   001D4E  EC5F  F012         	call	_TMR0_SetInterruptHandler	;wreg free
  1569   001D52                     
  1570                           ;main.c: 573:     TMR0_StartTimer();
  1571   001D52  EC64  F012         	call	_TMR0_StartTimer	;wreg free
  1572   001D56                     
  1573                           ;main.c: 574:     _uSYNC_COBID.word = 0x12;;
  1574   001D56  0E12               	movlw	18
  1575   001D58  0100               	movlb	0	; () banked
  1576   001D5A  6F92               	movwf	__uSYNC_COBID& (0+255),b
  1577   001D5C  0E00               	movlw	0
  1578   001D5E  6F93               	movwf	(__uSYNC_COBID+1)& (0+255),b
  1579   001D60  0E00               	movlw	0
  1580   001D62  6F94               	movwf	(__uSYNC_COBID+2)& (0+255),b
  1581   001D64  0E00               	movlw	0
  1582   001D66  6F95               	movwf	(__uSYNC_COBID+3)& (0+255),b
  1583   001D68                     
  1584                           ; BSR set to: 0
  1585                           ;main.c: 575:     _uCO_nodeID.byte = 0x02;
  1586   001D68  0E02               	movlw	2
  1587   001D6A  6E2F               	movwf	__uCO_nodeID^0,c
  1588   001D6C                     
  1589                           ; BSR set to: 0
  1590                           ;main.c: 576:     _uCO_baud.byte = 0x00;
  1591   001D6C  0E00               	movlw	0
  1592   001D6E  6E2D               	movwf	__uCO_baud^0,c
  1593   001D70                     
  1594                           ; BSR set to: 0
  1595                           ;main.c: 577:     _uNMTEHeartBeat.word = 0x10;;
  1596   001D70  0E00               	movlw	0
  1597   001D72  6E13               	movwf	(__uNMTEHeartBeat+1)^0,c
  1598   001D74  0E10               	movlw	16
  1599   001D76  6E12               	movwf	__uNMTEHeartBeat^0,c
  1600   001D78                     
  1601                           ; BSR set to: 0
  1602                           ;main.c: 578:     _uNMTEGuardTime.word = 0x00;;
  1603   001D78  0E00               	movlw	0
  1604   001D7A  6E11               	movwf	(__uNMTEGuardTime+1)^0,c
  1605   001D7C  0E00               	movlw	0
  1606   001D7E  6E10               	movwf	__uNMTEGuardTime^0,c
  1607   001D80                     
  1608                           ; BSR set to: 0
  1609                           ;main.c: 579:     _uNMTELifeFactor.byte = 0x00;;
  1610   001D80  0E00               	movlw	0
  1611   001D82  6E21               	movwf	__uNMTELifeFactor^0,c
  1612   001D84                     
  1613                           ; BSR set to: 0
  1614                           ;main.c: 580:     DemoInit();
  1615   001D84  ECA4  F00A         	call	_DemoInit	;wreg free
  1616   001D88                     
  1617                           ;main.c: 581:     _CO_COMMResetEventManager();
  1618   001D88  EC82  F00F         	call	__CO_COMMResetEventManager	;wreg free
  1619   001D8C                     
  1620                           ;main.c: 583:     {_uCO_state.bits.b0 = 0; _uCO_state.bits.b1 = 1; _uCO_state.bits.b2 = 
      +                          0;};
  1621   001D8C  902E               	bcf	__uCO_state^0,0,c
  1622   001D8E  822E               	bsf	__uCO_state^0,1,c
  1623   001D90  942E               	bcf	__uCO_state^0,2,c
  1624   001D92                     l9970:
  1625                           
  1626                           ;main.c: 586:     {;main.c: 588:         CO_ProcessAllEvents();
  1627   001D92  EC47  F012         	call	_CO_ProcessAllEvents	;wreg free
  1628   001D96                     
  1629                           ;main.c: 600:         _delay((unsigned long)((50)*(64000000/4000.0)));
  1630   001D96  0E05               	movlw	5
  1631   001D98  0101               	movlb	1	; () banked
  1632   001D9A  6F2B               	movwf	(??_main+1)& (0+255),b
  1633   001D9C  0E0F               	movlw	15
  1634   001D9E  6F2A               	movwf	??_main& (0+255),b
  1635   001DA0  0EF1               	movlw	241
  1636   001DA2                     u6197:
  1637   001DA2  2EE8               	decfsz	wreg,f,c
  1638   001DA4  D7FE               	bra	u6197
  1639   001DA6  2F2A               	decfsz	??_main& (0+255),f,b
  1640   001DA8  D7FC               	bra	u6197
  1641   001DAA  2F2B               	decfsz	(??_main+1)& (0+255),f,b
  1642   001DAC  D7FA               	bra	u6197
  1643   001DAE  EFC9  F00E         	goto	l9970
  1644   001DB2  EF0D  F000         	goto	start
  1645   001DB6                     __end_of_main:
  1646                           	callstack 0
  1647                           
  1648 ;; *************** function _TMR0_StartTimer *****************
  1649 ;; Defined at:
  1650 ;;		line 87 in file "mcc_generated_files/tmr0.c"
  1651 ;; Parameters:    Size  Location     Type
  1652 ;;		None
  1653 ;; Auto vars:     Size  Location     Type
  1654 ;;		None
  1655 ;; Return value:  Size  Location     Type
  1656 ;;                  1    wreg      void 
  1657 ;; Registers used:
  1658 ;;		None
  1659 ;; Tracked objects:
  1660 ;;		On entry : 0/0
  1661 ;;		On exit  : 0/0
  1662 ;;		Unchanged: 0/0
  1663 ;; Data sizes:     COMRAM   BANK0   BANK1   BANK2   BANK3   BANK4   BANK5   BANK6   BANK7   BANK8   BANK9  BANK10  BANK1
      +1  BANK12  BANK13  BANK14  BANK15
  1664 ;;      Params:         0       0       0       0       0       0       0       0       0       0       0       0       
      +0       0       0       0       0
  1665 ;;      Locals:         0       0       0       0       0       0       0       0       0       0       0       0       
      +0       0       0       0       0
  1666 ;;      Temps:          0       0       0       0       0       0       0       0       0       0       0       0       
      +0       0       0       0       0
  1667 ;;      Totals:         0       0       0       0       0       0       0       0       0       0       0       0       
      +0       0       0       0       0
  1668 ;;Total ram usage:        0 bytes
  1669 ;; Hardware stack levels used: 1
  1670 ;; Hardware stack levels required when called: 6
  1671 ;; This function calls:
  1672 ;;		Nothing
  1673 ;; This function is called by:
  1674 ;;		_main
  1675 ;; This function uses a non-reentrant model
  1676 ;;
  1677                           
  1678                           	psect	text1
  1679   0024C8                     __ptext1:
  1680                           	callstack 0
  1681   0024C8                     _TMR0_StartTimer:
  1682                           	callstack 24
  1683   0024C8                     
  1684                           ;mcc_generated_files/tmr0.c: 90:     T0CON0bits.T0EN = 1;
  1685   0024C8  8EB8               	bsf	184,7,c	;volatile
  1686   0024CA  0012               	return		;funcret
  1687   0024CC                     __end_of_TMR0_StartTimer:
  1688                           	callstack 0
  1689                           
  1690 ;; *************** function _SYSTEM_Initialize *****************
  1691 ;; Defined at:
  1692 ;;		line 50 in file "mcc_generated_files/mcc.c"
  1693 ;; Parameters:    Size  Location     Type
  1694 ;;		None
  1695 ;; Auto vars:     Size  Location     Type
  1696 ;;		None
  1697 ;; Return value:  Size  Location     Type
  1698 ;;                  1    wreg      void 
  1699 ;; Registers used:
  1700 ;;		wreg, status,2, status,0, cstack
  1701 ;; Tracked objects:
  1702 ;;		On entry : 0/0
  1703 ;;		On exit  : 0/0
  1704 ;;		Unchanged: 0/0
  1705 ;; Data sizes:     COMRAM   BANK0   BANK1   BANK2   BANK3   BANK4   BANK5   BANK6   BANK7   BANK8   BANK9  BANK10  BANK1
      +1  BANK12  BANK13  BANK14  BANK15
  1706 ;;      Params:         0       0       0       0       0       0       0       0       0       0       0       0       
      +0       0       0       0       0
  1707 ;;      Locals:         0       0       0       0       0       0       0       0       0       0       0       0       
      +0       0       0       0       0
  1708 ;;      Temps:          0       0       0       0       0       0       0       0       0       0       0       0       
      +0       0       0       0       0
  1709 ;;      Totals:         0       0       0       0       0       0       0       0       0       0       0       0       
      +0       0       0       0       0
  1710 ;;Total ram usage:        0 bytes
  1711 ;; Hardware stack levels used: 1
  1712 ;; Hardware stack levels required when called: 8
  1713 ;; This function calls:
  1714 ;;		_I2C1_Initialize
  1715 ;;		_INTERRUPT_Initialize
  1716 ;;		_OSCILLATOR_Initialize
  1717 ;;		_PIN_MANAGER_Initialize
  1718 ;;		_PMD_Initialize
  1719 ;;		_TMR0_Initialize
  1720 ;;		_UART1_Initialize
  1721 ;; This function is called by:
  1722 ;;		_main
  1723 ;; This function uses a non-reentrant model
  1724 ;;
  1725                           
  1726                           	psect	text2
  1727   002452                     __ptext2:
  1728                           	callstack 0
  1729   002452                     _SYSTEM_Initialize:
  1730                           	callstack 22
  1731   002452                     
  1732                           ;mcc_generated_files/mcc.c: 52:     INTERRUPT_Initialize();
  1733   002452  EC66  F012         	call	_INTERRUPT_Initialize	;wreg free
  1734   002456                     
  1735                           ;mcc_generated_files/mcc.c: 53:     PMD_Initialize();
  1736   002456  ECE4  F011         	call	_PMD_Initialize	;wreg free
  1737   00245A                     
  1738                           ;mcc_generated_files/mcc.c: 54:     I2C1_Initialize();
  1739   00245A  EC08  F012         	call	_I2C1_Initialize	;wreg free
  1740   00245E                     
  1741                           ;mcc_generated_files/mcc.c: 55:     PIN_MANAGER_Initialize();
  1742   00245E  EC16  F00F         	call	_PIN_MANAGER_Initialize	;wreg free
  1743   002462                     
  1744                           ;mcc_generated_files/mcc.c: 56:     OSCILLATOR_Initialize();
  1745   002462  ECAC  F011         	call	_OSCILLATOR_Initialize	;wreg free
  1746   002466                     
  1747                           ;mcc_generated_files/mcc.c: 57:     TMR0_Initialize();
  1748   002466  ECD2  F011         	call	_TMR0_Initialize	;wreg free
  1749   00246A                     
  1750                           ;mcc_generated_files/mcc.c: 58:     UART1_Initialize();
  1751   00246A  EC4E  F00F         	call	_UART1_Initialize	;wreg free
  1752   00246E  0012               	return		;funcret
  1753   002470                     __end_of_SYSTEM_Initialize:
  1754                           	callstack 0
  1755                           
  1756 ;; *************** function _UART1_Initialize *****************
  1757 ;; Defined at:
  1758 ;;		line 66 in file "mcc_generated_files/uart1.c"
  1759 ;; Parameters:    Size  Location     Type
  1760 ;;		None
  1761 ;; Auto vars:     Size  Location     Type
  1762 ;;		None
  1763 ;; Return value:  Size  Location     Type
  1764 ;;                  1    wreg      void 
  1765 ;; Registers used:
  1766 ;;		wreg, status,2, status,0, cstack
  1767 ;; Tracked objects:
  1768 ;;		On entry : 0/0
  1769 ;;		On exit  : 0/0
  1770 ;;		Unchanged: 0/0
  1771 ;; Data sizes:     COMRAM   BANK0   BANK1   BANK2   BANK3   BANK4   BANK5   BANK6   BANK7   BANK8   BANK9  BANK10  BANK1
      +1  BANK12  BANK13  BANK14  BANK15
  1772 ;;      Params:         0       0       0       0       0       0       0       0       0       0       0       0       
      +0       0       0       0       0
  1773 ;;      Locals:         0       0       0       0       0       0       0       0       0       0       0       0       
      +0       0       0       0       0
  1774 ;;      Temps:          0       0       0       0       0       0       0       0       0       0       0       0       
      +0       0       0       0       0
  1775 ;;      Totals:         0       0       0       0       0       0       0       0       0       0       0       0       
      +0       0       0       0       0
  1776 ;;Total ram usage:        0 bytes
  1777 ;; Hardware stack levels used: 1
  1778 ;; Hardware stack levels required when called: 7
  1779 ;; This function calls:
  1780 ;;		_UART1_SetErrorHandler
  1781 ;;		_UART1_SetFramingErrorHandler
  1782 ;;		_UART1_SetOverrunErrorHandler
  1783 ;; This function is called by:
  1784 ;;		_SYSTEM_Initialize
  1785 ;; This function uses a non-reentrant model
  1786 ;;
  1787                           
  1788                           	psect	text3
  1789   001E9C                     __ptext3:
  1790                           	callstack 0
  1791   001E9C                     _UART1_Initialize:
  1792                           	callstack 22
  1793   001E9C                     
  1794                           ;mcc_generated_files/uart1.c: 73:     U1P1L = 0x00;
  1795   001E9C  0E00               	movlw	0
  1796   001E9E  013D               	movlb	61	; () banked
  1797   001EA0  6FEC               	movwf	236,b	;volatile
  1798                           
  1799                           ;mcc_generated_files/uart1.c: 76:     U1P1H = 0x00;
  1800   001EA2  0E00               	movlw	0
  1801   001EA4  6FED               	movwf	237,b	;volatile
  1802                           
  1803                           ;mcc_generated_files/uart1.c: 79:     U1P2L = 0x00;
  1804   001EA6  0E00               	movlw	0
  1805   001EA8  6FEE               	movwf	238,b	;volatile
  1806                           
  1807                           ;mcc_generated_files/uart1.c: 82:     U1P2H = 0x00;
  1808   001EAA  0E00               	movlw	0
  1809   001EAC  6FEF               	movwf	239,b	;volatile
  1810                           
  1811                           ;mcc_generated_files/uart1.c: 85:     U1P3L = 0x00;
  1812   001EAE  0E00               	movlw	0
  1813   001EB0  6FF0               	movwf	240,b	;volatile
  1814                           
  1815                           ;mcc_generated_files/uart1.c: 88:     U1P3H = 0x00;
  1816   001EB2  0E00               	movlw	0
  1817   001EB4  6FF1               	movwf	241,b	;volatile
  1818                           
  1819                           ;mcc_generated_files/uart1.c: 91:     U1CON0 = 0xB0;
  1820   001EB6  0EB0               	movlw	176
  1821   001EB8  6FF2               	movwf	242,b	;volatile
  1822                           
  1823                           ;mcc_generated_files/uart1.c: 94:     U1CON1 = 0x80;
  1824   001EBA  0E80               	movlw	128
  1825   001EBC  6FF3               	movwf	243,b	;volatile
  1826                           
  1827                           ;mcc_generated_files/uart1.c: 97:     U1CON2 = 0x00;
  1828   001EBE  0E00               	movlw	0
  1829   001EC0  6FF4               	movwf	244,b	;volatile
  1830                           
  1831                           ;mcc_generated_files/uart1.c: 100:     U1BRGL = 0x82;
  1832   001EC2  0E82               	movlw	130
  1833   001EC4  6FF5               	movwf	245,b	;volatile
  1834                           
  1835                           ;mcc_generated_files/uart1.c: 103:     U1BRGH = 0x06;
  1836   001EC6  0E06               	movlw	6
  1837   001EC8  6FF6               	movwf	246,b	;volatile
  1838                           
  1839                           ;mcc_generated_files/uart1.c: 106:     U1FIFO = 0x00;
  1840   001ECA  0E00               	movlw	0
  1841   001ECC  6FF7               	movwf	247,b	;volatile
  1842                           
  1843                           ;mcc_generated_files/uart1.c: 109:     U1UIR = 0x00;
  1844   001ECE  0E00               	movlw	0
  1845   001ED0  6FF8               	movwf	248,b	;volatile
  1846                           
  1847                           ;mcc_generated_files/uart1.c: 112:     U1ERRIR = 0x00;
  1848   001ED2  0E00               	movlw	0
  1849   001ED4  6FF9               	movwf	249,b	;volatile
  1850                           
  1851                           ;mcc_generated_files/uart1.c: 115:     U1ERRIE = 0x00;
  1852   001ED6  0E00               	movlw	0
  1853   001ED8  6FFA               	movwf	250,b	;volatile
  1854   001EDA                     
  1855                           ; BSR set to: 61
  1856                           ;mcc_generated_files/uart1.c: 118:     UART1_SetFramingErrorHandler(UART1_DefaultFraming
      +                          ErrorHandler);
  1857   001EDA  0E00               	movlw	0
  1858   001EDC  6E52               	movwf	UART1_SetFramingErrorHandler@interruptHandler^0,c
  1859   001EDE  0E00               	movlw	0
  1860   001EE0  6E53               	movwf	(UART1_SetFramingErrorHandler@interruptHandler+1)^0,c
  1861   001EE2  EC55  F012         	call	_UART1_SetFramingErrorHandler	;wreg free
  1862   001EE6                     
  1863                           ;mcc_generated_files/uart1.c: 119:     UART1_SetOverrunErrorHandler(UART1_DefaultOverrun
      +                          ErrorHandler);
  1864   001EE6  0E00               	movlw	0
  1865   001EE8  6E52               	movwf	UART1_SetOverrunErrorHandler@interruptHandler^0,c
  1866   001EEA  0E00               	movlw	0
  1867   001EEC  6E53               	movwf	(UART1_SetOverrunErrorHandler@interruptHandler+1)^0,c
  1868   001EEE  EC50  F012         	call	_UART1_SetOverrunErrorHandler	;wreg free
  1869   001EF2                     
  1870                           ;mcc_generated_files/uart1.c: 120:     UART1_SetErrorHandler(UART1_DefaultErrorHandler);
  1871   001EF2  0E00               	movlw	0
  1872   001EF4  6E52               	movwf	UART1_SetErrorHandler@interruptHandler^0,c
  1873   001EF6  0E00               	movlw	0
  1874   001EF8  6E53               	movwf	(UART1_SetErrorHandler@interruptHandler+1)^0,c
  1875   001EFA  EC5A  F012         	call	_UART1_SetErrorHandler	;wreg free
  1876   001EFE                     
  1877                           ;mcc_generated_files/uart1.c: 122:     uart1RxLastError.status = 0;
  1878   001EFE  0E00               	movlw	0
  1879   001F00  6E19               	movwf	_uart1RxLastError^0,c	;volatile
  1880   001F02  0012               	return		;funcret
  1881   001F04                     __end_of_UART1_Initialize:
  1882                           	callstack 0
  1883                           
  1884 ;; *************** function _UART1_SetOverrunErrorHandler *****************
  1885 ;; Defined at:
  1886 ;;		line 194 in file "mcc_generated_files/uart1.c"
  1887 ;; Parameters:    Size  Location     Type
  1888 ;;  interruptHan    2   12[COMRAM] PTR FTN()void 
  1889 ;;		 -> UART1_DefaultOverrunErrorHandler(1), 
  1890 ;; Auto vars:     Size  Location     Type
  1891 ;;		None
  1892 ;; Return value:  Size  Location     Type
  1893 ;;                  1    wreg      void 
  1894 ;; Registers used:
  1895 ;;		wreg, status,2, status,0
  1896 ;; Tracked objects:
  1897 ;;		On entry : 0/0
  1898 ;;		On exit  : 0/0
  1899 ;;		Unchanged: 0/0
  1900 ;; Data sizes:     COMRAM   BANK0   BANK1   BANK2   BANK3   BANK4   BANK5   BANK6   BANK7   BANK8   BANK9  BANK10  BANK1
      +1  BANK12  BANK13  BANK14  BANK15
  1901 ;;      Params:         2       0       0       0       0       0       0       0       0       0       0       0       
      +0       0       0       0       0
  1902 ;;      Locals:         0       0       0       0       0       0       0       0       0       0       0       0       
      +0       0       0       0       0
  1903 ;;      Temps:          0       0       0       0       0       0       0       0       0       0       0       0       
      +0       0       0       0       0
  1904 ;;      Totals:         2       0       0       0       0       0       0       0       0       0       0       0       
      +0       0       0       0       0
  1905 ;;Total ram usage:        2 bytes
  1906 ;; Hardware stack levels used: 1
  1907 ;; Hardware stack levels required when called: 6
  1908 ;; This function calls:
  1909 ;;		Nothing
  1910 ;; This function is called by:
  1911 ;;		_UART1_Initialize
  1912 ;; This function uses a non-reentrant model
  1913 ;;
  1914                           
  1915                           	psect	text4
  1916   0024A0                     __ptext4:
  1917                           	callstack 0
  1918   0024A0                     _UART1_SetOverrunErrorHandler:
  1919                           	callstack 22
  1920   0024A0                     
  1921                           ;mcc_generated_files/uart1.c: 195:     UART1_OverrunErrorHandler = interruptHandler;
  1922   0024A0  C052  F0BA         	movff	UART1_SetOverrunErrorHandler@interruptHandler,_UART1_OverrunErrorHandler
  1923   0024A4  C053  F0BB         	movff	UART1_SetOverrunErrorHandler@interruptHandler+1,_UART1_OverrunErrorHandler+1
  1924   0024A8  0012               	return		;funcret
  1925   0024AA                     __end_of_UART1_SetOverrunErrorHandler:
  1926                           	callstack 0
  1927                           
  1928 ;; *************** function _UART1_SetFramingErrorHandler *****************
  1929 ;; Defined at:
  1930 ;;		line 190 in file "mcc_generated_files/uart1.c"
  1931 ;; Parameters:    Size  Location     Type
  1932 ;;  interruptHan    2   12[COMRAM] PTR FTN()void 
  1933 ;;		 -> UART1_DefaultFramingErrorHandler(1), 
  1934 ;; Auto vars:     Size  Location     Type
  1935 ;;		None
  1936 ;; Return value:  Size  Location     Type
  1937 ;;                  1    wreg      void 
  1938 ;; Registers used:
  1939 ;;		wreg, status,2, status,0
  1940 ;; Tracked objects:
  1941 ;;		On entry : 0/0
  1942 ;;		On exit  : 0/0
  1943 ;;		Unchanged: 0/0
  1944 ;; Data sizes:     COMRAM   BANK0   BANK1   BANK2   BANK3   BANK4   BANK5   BANK6   BANK7   BANK8   BANK9  BANK10  BANK1
      +1  BANK12  BANK13  BANK14  BANK15
  1945 ;;      Params:         2       0       0       0       0       0       0       0       0       0       0       0       
      +0       0       0       0       0
  1946 ;;      Locals:         0       0       0       0       0       0       0       0       0       0       0       0       
      +0       0       0       0       0
  1947 ;;      Temps:          0       0       0       0       0       0       0       0       0       0       0       0       
      +0       0       0       0       0
  1948 ;;      Totals:         2       0       0       0       0       0       0       0       0       0       0       0       
      +0       0       0       0       0
  1949 ;;Total ram usage:        2 bytes
  1950 ;; Hardware stack levels used: 1
  1951 ;; Hardware stack levels required when called: 6
  1952 ;; This function calls:
  1953 ;;		Nothing
  1954 ;; This function is called by:
  1955 ;;		_UART1_Initialize
  1956 ;; This function uses a non-reentrant model
  1957 ;;
  1958                           
  1959                           	psect	text5
  1960   0024AA                     __ptext5:
  1961                           	callstack 0
  1962   0024AA                     _UART1_SetFramingErrorHandler:
  1963                           	callstack 22
  1964   0024AA                     
  1965                           ;mcc_generated_files/uart1.c: 191:     UART1_FramingErrorHandler = interruptHandler;
  1966   0024AA  C052  F0BC         	movff	UART1_SetFramingErrorHandler@interruptHandler,_UART1_FramingErrorHandler
  1967   0024AE  C053  F0BD         	movff	UART1_SetFramingErrorHandler@interruptHandler+1,_UART1_FramingErrorHandler+1
  1968   0024B2  0012               	return		;funcret
  1969   0024B4                     __end_of_UART1_SetFramingErrorHandler:
  1970                           	callstack 0
  1971                           
  1972 ;; *************** function _UART1_SetErrorHandler *****************
  1973 ;; Defined at:
  1974 ;;		line 198 in file "mcc_generated_files/uart1.c"
  1975 ;; Parameters:    Size  Location     Type
  1976 ;;  interruptHan    2   12[COMRAM] PTR FTN()void 
  1977 ;;		 -> UART1_DefaultErrorHandler(1), 
  1978 ;; Auto vars:     Size  Location     Type
  1979 ;;		None
  1980 ;; Return value:  Size  Location     Type
  1981 ;;                  1    wreg      void 
  1982 ;; Registers used:
  1983 ;;		wreg, status,2, status,0
  1984 ;; Tracked objects:
  1985 ;;		On entry : 0/0
  1986 ;;		On exit  : 0/0
  1987 ;;		Unchanged: 0/0
  1988 ;; Data sizes:     COMRAM   BANK0   BANK1   BANK2   BANK3   BANK4   BANK5   BANK6   BANK7   BANK8   BANK9  BANK10  BANK1
      +1  BANK12  BANK13  BANK14  BANK15
  1989 ;;      Params:         2       0       0       0       0       0       0       0       0       0       0       0       
      +0       0       0       0       0
  1990 ;;      Locals:         0       0       0       0       0       0       0       0       0       0       0       0       
      +0       0       0       0       0
  1991 ;;      Temps:          0       0       0       0       0       0       0       0       0       0       0       0       
      +0       0       0       0       0
  1992 ;;      Totals:         2       0       0       0       0       0       0       0       0       0       0       0       
      +0       0       0       0       0
  1993 ;;Total ram usage:        2 bytes
  1994 ;; Hardware stack levels used: 1
  1995 ;; Hardware stack levels required when called: 6
  1996 ;; This function calls:
  1997 ;;		Nothing
  1998 ;; This function is called by:
  1999 ;;		_UART1_Initialize
  2000 ;; This function uses a non-reentrant model
  2001 ;;
  2002                           
  2003                           	psect	text6
  2004   0024B4                     __ptext6:
  2005                           	callstack 0
  2006   0024B4                     _UART1_SetErrorHandler:
  2007                           	callstack 22
  2008   0024B4                     
  2009                           ;mcc_generated_files/uart1.c: 199:     UART1_ErrorHandler = interruptHandler;
  2010   0024B4  C052  F0B8         	movff	UART1_SetErrorHandler@interruptHandler,_UART1_ErrorHandler
  2011   0024B8  C053  F0B9         	movff	UART1_SetErrorHandler@interruptHandler+1,_UART1_ErrorHandler+1
  2012   0024BC  0012               	return		;funcret
  2013   0024BE                     __end_of_UART1_SetErrorHandler:
  2014                           	callstack 0
  2015                           
  2016 ;; *************** function _TMR0_Initialize *****************
  2017 ;; Defined at:
  2018 ;;		line 61 in file "mcc_generated_files/tmr0.c"
  2019 ;; Parameters:    Size  Location     Type
  2020 ;;		None
  2021 ;; Auto vars:     Size  Location     Type
  2022 ;;		None
  2023 ;; Return value:  Size  Location     Type
  2024 ;;                  1    wreg      void 
  2025 ;; Registers used:
  2026 ;;		wreg, status,2, status,0, cstack
  2027 ;; Tracked objects:
  2028 ;;		On entry : 0/0
  2029 ;;		On exit  : 0/0
  2030 ;;		Unchanged: 0/0
  2031 ;; Data sizes:     COMRAM   BANK0   BANK1   BANK2   BANK3   BANK4   BANK5   BANK6   BANK7   BANK8   BANK9  BANK10  BANK1
      +1  BANK12  BANK13  BANK14  BANK15
  2032 ;;      Params:         0       0       0       0       0       0       0       0       0       0       0       0       
      +0       0       0       0       0
  2033 ;;      Locals:         0       0       0       0       0       0       0       0       0       0       0       0       
      +0       0       0       0       0
  2034 ;;      Temps:          0       0       0       0       0       0       0       0       0       0       0       0       
      +0       0       0       0       0
  2035 ;;      Totals:         0       0       0       0       0       0       0       0       0       0       0       0       
      +0       0       0       0       0
  2036 ;;Total ram usage:        0 bytes
  2037 ;; Hardware stack levels used: 1
  2038 ;; Hardware stack levels required when called: 7
  2039 ;; This function calls:
  2040 ;;		_TMR0_SetInterruptHandler
  2041 ;; This function is called by:
  2042 ;;		_SYSTEM_Initialize
  2043 ;; This function uses a non-reentrant model
  2044 ;;
  2045                           
  2046                           	psect	text7
  2047   0023A4                     __ptext7:
  2048                           	callstack 0
  2049   0023A4                     _TMR0_Initialize:
  2050                           	callstack 22
  2051   0023A4                     
  2052                           ;mcc_generated_files/tmr0.c: 66:     T0CON1 = 0x4E;
  2053   0023A4  0E4E               	movlw	78
  2054   0023A6  6EB9               	movwf	185,c	;volatile
  2055                           
  2056                           ;mcc_generated_files/tmr0.c: 69:     TMR0H = 0xF3;
  2057   0023A8  0EF3               	movlw	243
  2058   0023AA  6EB7               	movwf	183,c	;volatile
  2059                           
  2060                           ;mcc_generated_files/tmr0.c: 72:     TMR0L = 0x00;
  2061   0023AC  0E00               	movlw	0
  2062   0023AE  6EB6               	movwf	182,c	;volatile
  2063   0023B0                     
  2064                           ;mcc_generated_files/tmr0.c: 75:     PIR3bits.TMR0IF = 0;
  2065   0023B0  0139               	movlb	57	; () banked
  2066   0023B2  9FA3               	bcf	163,7,b	;volatile
  2067   0023B4                     
  2068                           ; BSR set to: 57
  2069                           ;mcc_generated_files/tmr0.c: 78:     PIE3bits.TMR0IE = 1;
  2070   0023B4  8F93               	bsf	147,7,b	;volatile
  2071   0023B6                     
  2072                           ; BSR set to: 57
  2073                           ;mcc_generated_files/tmr0.c: 81:     TMR0_SetInterruptHandler(TMR0_DefaultInterruptHandl
      +                          er);
  2074   0023B6  0EDA               	movlw	low _TMR0_DefaultInterruptHandler
  2075   0023B8  6E52               	movwf	TMR0_SetInterruptHandler@InterruptHandler^0,c
  2076   0023BA  0E24               	movlw	high _TMR0_DefaultInterruptHandler
  2077   0023BC  6E53               	movwf	(TMR0_SetInterruptHandler@InterruptHandler+1)^0,c
  2078   0023BE  EC5F  F012         	call	_TMR0_SetInterruptHandler	;wreg free
  2079   0023C2                     
  2080                           ;mcc_generated_files/tmr0.c: 84:     T0CON0 = 0x80;
  2081   0023C2  0E80               	movlw	128
  2082   0023C4  6EB8               	movwf	184,c	;volatile
  2083   0023C6  0012               	return		;funcret
  2084   0023C8                     __end_of_TMR0_Initialize:
  2085                           	callstack 0
  2086                           
  2087 ;; *************** function _TMR0_SetInterruptHandler *****************
  2088 ;; Defined at:
  2089 ;;		line 134 in file "mcc_generated_files/tmr0.c"
  2090 ;; Parameters:    Size  Location     Type
  2091 ;;  InterruptHan    2   12[COMRAM] PTR FTN()void 
  2092 ;;		 -> TMR0_Blink(1), TMR0_DefaultInterruptHandler(1), 
  2093 ;; Auto vars:     Size  Location     Type
  2094 ;;		None
  2095 ;; Return value:  Size  Location     Type
  2096 ;;                  1    wreg      void 
  2097 ;; Registers used:
  2098 ;;		wreg, status,2, status,0
  2099 ;; Tracked objects:
  2100 ;;		On entry : 0/0
  2101 ;;		On exit  : 0/0
  2102 ;;		Unchanged: 0/0
  2103 ;; Data sizes:     COMRAM   BANK0   BANK1   BANK2   BANK3   BANK4   BANK5   BANK6   BANK7   BANK8   BANK9  BANK10  BANK1
      +1  BANK12  BANK13  BANK14  BANK15
  2104 ;;      Params:         2       0       0       0       0       0       0       0       0       0       0       0       
      +0       0       0       0       0
  2105 ;;      Locals:         0       0       0       0       0       0       0       0       0       0       0       0       
      +0       0       0       0       0
  2106 ;;      Temps:          0       0       0       0       0       0       0       0       0       0       0       0       
      +0       0       0       0       0
  2107 ;;      Totals:         2       0       0       0       0       0       0       0       0       0       0       0       
      +0       0       0       0       0
  2108 ;;Total ram usage:        2 bytes
  2109 ;; Hardware stack levels used: 1
  2110 ;; Hardware stack levels required when called: 6
  2111 ;; This function calls:
  2112 ;;		Nothing
  2113 ;; This function is called by:
  2114 ;;		_TMR0_Initialize
  2115 ;;		_main
  2116 ;; This function uses a non-reentrant model
  2117 ;;
  2118                           
  2119                           	psect	text8
  2120   0024BE                     __ptext8:
  2121                           	callstack 0
  2122   0024BE                     _TMR0_SetInterruptHandler:
  2123                           	callstack 24
  2124   0024BE                     
  2125                           ;mcc_generated_files/tmr0.c: 135:     TMR0_InterruptHandler = InterruptHandler;
  2126   0024BE  C052  F0B4         	movff	TMR0_SetInterruptHandler@InterruptHandler,_TMR0_InterruptHandler
  2127   0024C2  C053  F0B5         	movff	TMR0_SetInterruptHandler@InterruptHandler+1,_TMR0_InterruptHandler+1
  2128   0024C6  0012               	return		;funcret
  2129   0024C8                     __end_of_TMR0_SetInterruptHandler:
  2130                           	callstack 0
  2131                           
  2132 ;; *************** function _PMD_Initialize *****************
  2133 ;; Defined at:
  2134 ;;		line 80 in file "mcc_generated_files/mcc.c"
  2135 ;; Parameters:    Size  Location     Type
  2136 ;;		None
  2137 ;; Auto vars:     Size  Location     Type
  2138 ;;		None
  2139 ;; Return value:  Size  Location     Type
  2140 ;;                  1    wreg      void 
  2141 ;; Registers used:
  2142 ;;		wreg, status,2
  2143 ;; Tracked objects:
  2144 ;;		On entry : 0/0
  2145 ;;		On exit  : 0/0
  2146 ;;		Unchanged: 0/0
  2147 ;; Data sizes:     COMRAM   BANK0   BANK1   BANK2   BANK3   BANK4   BANK5   BANK6   BANK7   BANK8   BANK9  BANK10  BANK1
      +1  BANK12  BANK13  BANK14  BANK15
  2148 ;;      Params:         0       0       0       0       0       0       0       0       0       0       0       0       
      +0       0       0       0       0
  2149 ;;      Locals:         0       0       0       0       0       0       0       0       0       0       0       0       
      +0       0       0       0       0
  2150 ;;      Temps:          0       0       0       0       0       0       0       0       0       0       0       0       
      +0       0       0       0       0
  2151 ;;      Totals:         0       0       0       0       0       0       0       0       0       0       0       0       
      +0       0       0       0       0
  2152 ;;Total ram usage:        0 bytes
  2153 ;; Hardware stack levels used: 1
  2154 ;; Hardware stack levels required when called: 6
  2155 ;; This function calls:
  2156 ;;		Nothing
  2157 ;; This function is called by:
  2158 ;;		_SYSTEM_Initialize
  2159 ;; This function uses a non-reentrant model
  2160 ;;
  2161                           
  2162                           	psect	text9
  2163   0023C8                     __ptext9:
  2164                           	callstack 0
  2165   0023C8                     _PMD_Initialize:
  2166                           	callstack 23
  2167   0023C8                     
  2168                           ;mcc_generated_files/mcc.c: 83:     PMD0 = 0x00;
  2169   0023C8  0E00               	movlw	0
  2170   0023CA  0139               	movlb	57	; () banked
  2171   0023CC  6FC0               	movwf	192,b	;volatile
  2172                           
  2173                           ;mcc_generated_files/mcc.c: 85:     PMD1 = 0x00;
  2174   0023CE  0E00               	movlw	0
  2175   0023D0  6FC1               	movwf	193,b	;volatile
  2176                           
  2177                           ;mcc_generated_files/mcc.c: 87:     PMD2 = 0x00;
  2178   0023D2  0E00               	movlw	0
  2179   0023D4  6FC2               	movwf	194,b	;volatile
  2180                           
  2181                           ;mcc_generated_files/mcc.c: 89:     PMD3 = 0x00;
  2182   0023D6  0E00               	movlw	0
  2183   0023D8  6FC3               	movwf	195,b	;volatile
  2184                           
  2185                           ;mcc_generated_files/mcc.c: 91:     PMD4 = 0x00;
  2186   0023DA  0E00               	movlw	0
  2187   0023DC  6FC4               	movwf	196,b	;volatile
  2188                           
  2189                           ;mcc_generated_files/mcc.c: 93:     PMD5 = 0x00;
  2190   0023DE  0E00               	movlw	0
  2191   0023E0  6FC5               	movwf	197,b	;volatile
  2192                           
  2193                           ;mcc_generated_files/mcc.c: 95:     PMD6 = 0x00;
  2194   0023E2  0E00               	movlw	0
  2195   0023E4  6FC6               	movwf	198,b	;volatile
  2196                           
  2197                           ;mcc_generated_files/mcc.c: 97:     PMD7 = 0x00;
  2198   0023E6  0E00               	movlw	0
  2199   0023E8  6FC7               	movwf	199,b	;volatile
  2200   0023EA                     
  2201                           ; BSR set to: 57
  2202   0023EA  0012               	return		;funcret
  2203   0023EC                     __end_of_PMD_Initialize:
  2204                           	callstack 0
  2205                           
  2206 ;; *************** function _PIN_MANAGER_Initialize *****************
  2207 ;; Defined at:
  2208 ;;		line 55 in file "mcc_generated_files/pin_manager.c"
  2209 ;; Parameters:    Size  Location     Type
  2210 ;;		None
  2211 ;; Auto vars:     Size  Location     Type
  2212 ;;		None
  2213 ;; Return value:  Size  Location     Type
  2214 ;;                  1    wreg      void 
  2215 ;; Registers used:
  2216 ;;		wreg, status,2
  2217 ;; Tracked objects:
  2218 ;;		On entry : 0/0
  2219 ;;		On exit  : 0/0
  2220 ;;		Unchanged: 0/0
  2221 ;; Data sizes:     COMRAM   BANK0   BANK1   BANK2   BANK3   BANK4   BANK5   BANK6   BANK7   BANK8   BANK9  BANK10  BANK1
      +1  BANK12  BANK13  BANK14  BANK15
  2222 ;;      Params:         0       0       0       0       0       0       0       0       0       0       0       0       
      +0       0       0       0       0
  2223 ;;      Locals:         0       0       0       0       0       0       0       0       0       0       0       0       
      +0       0       0       0       0
  2224 ;;      Temps:          0       0       0       0       0       0       0       0       0       0       0       0       
      +0       0       0       0       0
  2225 ;;      Totals:         0       0       0       0       0       0       0       0       0       0       0       0       
      +0       0       0       0       0
  2226 ;;Total ram usage:        0 bytes
  2227 ;; Hardware stack levels used: 1
  2228 ;; Hardware stack levels required when called: 6
  2229 ;; This function calls:
  2230 ;;		Nothing
  2231 ;; This function is called by:
  2232 ;;		_SYSTEM_Initialize
  2233 ;; This function uses a non-reentrant model
  2234 ;;
  2235                           
  2236                           	psect	text10
  2237   001E2C                     __ptext10:
  2238                           	callstack 0
  2239   001E2C                     _PIN_MANAGER_Initialize:
  2240                           	callstack 23
  2241   001E2C                     
  2242                           ;mcc_generated_files/pin_manager.c: 60:     LATA = 0x00;
  2243   001E2C  0E00               	movlw	0
  2244   001E2E  6EBA               	movwf	186,c	;volatile
  2245                           
  2246                           ;mcc_generated_files/pin_manager.c: 61:     LATB = 0x00;
  2247   001E30  0E00               	movlw	0
  2248   001E32  6EBB               	movwf	187,c	;volatile
  2249                           
  2250                           ;mcc_generated_files/pin_manager.c: 62:     LATC = 0x00;
  2251   001E34  0E00               	movlw	0
  2252   001E36  6EBC               	movwf	188,c	;volatile
  2253   001E38                     
  2254                           ;mcc_generated_files/pin_manager.c: 67:     TRISA = 0xFF;
  2255   001E38  68C2               	setf	194,c	;volatile
  2256                           
  2257                           ;mcc_generated_files/pin_manager.c: 68:     TRISB = 0xEA;
  2258   001E3A  0EEA               	movlw	234
  2259   001E3C  6EC3               	movwf	195,c	;volatile
  2260                           
  2261                           ;mcc_generated_files/pin_manager.c: 69:     TRISC = 0x3F;
  2262   001E3E  0E3F               	movlw	63
  2263   001E40  6EC4               	movwf	196,c	;volatile
  2264                           
  2265                           ;mcc_generated_files/pin_manager.c: 74:     ANSELC = 0x3F;
  2266   001E42  0E3F               	movlw	63
  2267   001E44  013A               	movlb	58	; () banked
  2268   001E46  6F60               	movwf	96,b	;volatile
  2269                           
  2270                           ;mcc_generated_files/pin_manager.c: 75:     ANSELB = 0xF5;
  2271   001E48  0EF5               	movlw	245
  2272   001E4A  6F50               	movwf	80,b	;volatile
  2273   001E4C                     
  2274                           ; BSR set to: 58
  2275                           ;mcc_generated_files/pin_manager.c: 76:     ANSELA = 0xFF;
  2276   001E4C  6940               	setf	64,b	;volatile
  2277                           
  2278                           ;mcc_generated_files/pin_manager.c: 81:     WPUE = 0x00;
  2279   001E4E  0E00               	movlw	0
  2280   001E50  6F81               	movwf	129,b	;volatile
  2281                           
  2282                           ;mcc_generated_files/pin_manager.c: 82:     WPUB = 0x00;
  2283   001E52  0E00               	movlw	0
  2284   001E54  6F51               	movwf	81,b	;volatile
  2285                           
  2286                           ;mcc_generated_files/pin_manager.c: 83:     WPUA = 0x00;
  2287   001E56  0E00               	movlw	0
  2288   001E58  6F41               	movwf	65,b	;volatile
  2289                           
  2290                           ;mcc_generated_files/pin_manager.c: 84:     WPUC = 0x00;
  2291   001E5A  0E00               	movlw	0
  2292   001E5C  6F61               	movwf	97,b	;volatile
  2293                           
  2294                           ;mcc_generated_files/pin_manager.c: 89:     ODCONA = 0x00;
  2295   001E5E  0E00               	movlw	0
  2296   001E60  6F42               	movwf	66,b	;volatile
  2297                           
  2298                           ;mcc_generated_files/pin_manager.c: 90:     ODCONB = 0x00;
  2299   001E62  0E00               	movlw	0
  2300   001E64  6F52               	movwf	82,b	;volatile
  2301                           
  2302                           ;mcc_generated_files/pin_manager.c: 91:     ODCONC = 0xFE;
  2303   001E66  0EFE               	movlw	254
  2304   001E68  6F62               	movwf	98,b	;volatile
  2305   001E6A                     
  2306                           ; BSR set to: 58
  2307                           ;mcc_generated_files/pin_manager.c: 96:     SLRCONA = 0xFF;
  2308   001E6A  6943               	setf	67,b	;volatile
  2309   001E6C                     
  2310                           ; BSR set to: 58
  2311                           ;mcc_generated_files/pin_manager.c: 97:     SLRCONB = 0xFF;
  2312   001E6C  6953               	setf	83,b	;volatile
  2313   001E6E                     
  2314                           ; BSR set to: 58
  2315                           ;mcc_generated_files/pin_manager.c: 98:     SLRCONC = 0xFF;
  2316   001E6E  6963               	setf	99,b	;volatile
  2317   001E70                     
  2318                           ; BSR set to: 58
  2319                           ;mcc_generated_files/pin_manager.c: 103:     INLVLA = 0xFF;
  2320   001E70  6944               	setf	68,b	;volatile
  2321   001E72                     
  2322                           ; BSR set to: 58
  2323                           ;mcc_generated_files/pin_manager.c: 104:     INLVLB = 0xFF;
  2324   001E72  6954               	setf	84,b	;volatile
  2325   001E74                     
  2326                           ; BSR set to: 58
  2327                           ;mcc_generated_files/pin_manager.c: 105:     INLVLC = 0xFF;
  2328   001E74  6964               	setf	100,b	;volatile
  2329                           
  2330                           ;mcc_generated_files/pin_manager.c: 106:     INLVLE = 0x08;
  2331   001E76  0E08               	movlw	8
  2332   001E78  6F84               	movwf	132,b	;volatile
  2333                           
  2334                           ;mcc_generated_files/pin_manager.c: 115:     I2C1SDAPPS = 0x17;
  2335   001E7A  0E17               	movlw	23
  2336   001E7C  6FE4               	movwf	228,b	;volatile
  2337                           
  2338                           ;mcc_generated_files/pin_manager.c: 116:     RB0PPS = 0x13;
  2339   001E7E  0E13               	movlw	19
  2340   001E80  6F08               	movwf	8,b	;volatile
  2341                           
  2342                           ;mcc_generated_files/pin_manager.c: 117:     RB2PPS = 0x33;
  2343   001E82  0E33               	movlw	51
  2344   001E84  6F0A               	movwf	10,b	;volatile
  2345                           
  2346                           ;mcc_generated_files/pin_manager.c: 118:     CANRXPPS = 0x0B;
  2347   001E86  0E0B               	movlw	11
  2348   001E88  6FED               	movwf	237,b	;volatile
  2349                           
  2350                           ;mcc_generated_files/pin_manager.c: 119:     RC6PPS = 0x21;
  2351   001E8A  0E21               	movlw	33
  2352   001E8C  6F16               	movwf	22,b	;volatile
  2353                           
  2354                           ;mcc_generated_files/pin_manager.c: 120:     U1RXPPS = 0x09;
  2355   001E8E  0E09               	movlw	9
  2356   001E90  6FE7               	movwf	231,b	;volatile
  2357                           
  2358                           ;mcc_generated_files/pin_manager.c: 121:     RC7PPS = 0x22;
  2359   001E92  0E22               	movlw	34
  2360   001E94  6F17               	movwf	23,b	;volatile
  2361                           
  2362                           ;mcc_generated_files/pin_manager.c: 122:     I2C1SCLPPS = 0x16;
  2363   001E96  0E16               	movlw	22
  2364   001E98  6FE3               	movwf	227,b	;volatile
  2365   001E9A                     
  2366                           ; BSR set to: 58
  2367   001E9A  0012               	return		;funcret
  2368   001E9C                     __end_of_PIN_MANAGER_Initialize:
  2369                           	callstack 0
  2370                           
  2371 ;; *************** function _OSCILLATOR_Initialize *****************
  2372 ;; Defined at:
  2373 ;;		line 62 in file "mcc_generated_files/mcc.c"
  2374 ;; Parameters:    Size  Location     Type
  2375 ;;		None
  2376 ;; Auto vars:     Size  Location     Type
  2377 ;;		None
  2378 ;; Return value:  Size  Location     Type
  2379 ;;                  1    wreg      void 
  2380 ;; Registers used:
  2381 ;;		wreg, status,2
  2382 ;; Tracked objects:
  2383 ;;		On entry : 0/0
  2384 ;;		On exit  : 0/0
  2385 ;;		Unchanged: 0/0
  2386 ;; Data sizes:     COMRAM   BANK0   BANK1   BANK2   BANK3   BANK4   BANK5   BANK6   BANK7   BANK8   BANK9  BANK10  BANK1
      +1  BANK12  BANK13  BANK14  BANK15
  2387 ;;      Params:         0       0       0       0       0       0       0       0       0       0       0       0       
      +0       0       0       0       0
  2388 ;;      Locals:         0       0       0       0       0       0       0       0       0       0       0       0       
      +0       0       0       0       0
  2389 ;;      Temps:          0       0       0       0       0       0       0       0       0       0       0       0       
      +0       0       0       0       0
  2390 ;;      Totals:         0       0       0       0       0       0       0       0       0       0       0       0       
      +0       0       0       0       0
  2391 ;;Total ram usage:        0 bytes
  2392 ;; Hardware stack levels used: 1
  2393 ;; Hardware stack levels required when called: 6
  2394 ;; This function calls:
  2395 ;;		Nothing
  2396 ;; This function is called by:
  2397 ;;		_SYSTEM_Initialize
  2398 ;; This function uses a non-reentrant model
  2399 ;;
  2400                           
  2401                           	psect	text11
  2402   002358                     __ptext11:
  2403                           	callstack 0
  2404   002358                     _OSCILLATOR_Initialize:
  2405                           	callstack 23
  2406   002358                     
  2407                           ;mcc_generated_files/mcc.c: 65:     OSCCON1 = 0x20;
  2408   002358  0E20               	movlw	32
  2409   00235A  0139               	movlb	57	; () banked
  2410   00235C  6FD9               	movwf	217,b	;volatile
  2411                           
  2412                           ;mcc_generated_files/mcc.c: 67:     OSCCON3 = 0x00;
  2413   00235E  0E00               	movlw	0
  2414   002360  6FDB               	movwf	219,b	;volatile
  2415                           
  2416                           ;mcc_generated_files/mcc.c: 69:     OSCEN = 0x00;
  2417   002362  0E00               	movlw	0
  2418   002364  6FDD               	movwf	221,b	;volatile
  2419                           
  2420                           ;mcc_generated_files/mcc.c: 71:     OSCFRQ = 0x02;
  2421   002366  0E02               	movlw	2
  2422   002368  6FDF               	movwf	223,b	;volatile
  2423                           
  2424                           ;mcc_generated_files/mcc.c: 73:     OSCTUNE = 0x00;
  2425   00236A  0E00               	movlw	0
  2426   00236C  6FDE               	movwf	222,b	;volatile
  2427   00236E                     l1803:
  2428                           
  2429                           ; BSR set to: 57
  2430                           ;mcc_generated_files/mcc.c: 75:     while(PLLR == 0)
  2431   00236E  A1DC               	btfss	220,0,b	;volatile
  2432   002370  EFBC  F011         	goto	u4421
  2433   002374  EFBE  F011         	goto	u4420
  2434   002378                     u4421:
  2435   002378  EFB7  F011         	goto	l1803
  2436   00237C                     u4420:
  2437   00237C                     
  2438                           ; BSR set to: 57
  2439   00237C  0012               	return		;funcret
  2440   00237E                     __end_of_OSCILLATOR_Initialize:
  2441                           	callstack 0
  2442                           
  2443 ;; *************** function _INTERRUPT_Initialize *****************
  2444 ;; Defined at:
  2445 ;;		line 52 in file "mcc_generated_files/interrupt_manager.c"
  2446 ;; Parameters:    Size  Location     Type
  2447 ;;		None
  2448 ;; Auto vars:     Size  Location     Type
  2449 ;;		None
  2450 ;; Return value:  Size  Location     Type
  2451 ;;                  1    wreg      void 
  2452 ;; Registers used:
  2453 ;;		None
  2454 ;; Tracked objects:
  2455 ;;		On entry : 0/0
  2456 ;;		On exit  : 0/0
  2457 ;;		Unchanged: 0/0
  2458 ;; Data sizes:     COMRAM   BANK0   BANK1   BANK2   BANK3   BANK4   BANK5   BANK6   BANK7   BANK8   BANK9  BANK10  BANK1
      +1  BANK12  BANK13  BANK14  BANK15
  2459 ;;      Params:         0       0       0       0       0       0       0       0       0       0       0       0       
      +0       0       0       0       0
  2460 ;;      Locals:         0       0       0       0       0       0       0       0       0       0       0       0       
      +0       0       0       0       0
  2461 ;;      Temps:          0       0       0       0       0       0       0       0       0       0       0       0       
      +0       0       0       0       0
  2462 ;;      Totals:         0       0       0       0       0       0       0       0       0       0       0       0       
      +0       0       0       0       0
  2463 ;;Total ram usage:        0 bytes
  2464 ;; Hardware stack levels used: 1
  2465 ;; Hardware stack levels required when called: 6
  2466 ;; This function calls:
  2467 ;;		Nothing
  2468 ;; This function is called by:
  2469 ;;		_SYSTEM_Initialize
  2470 ;; This function uses a non-reentrant model
  2471 ;;
  2472                           
  2473                           	psect	text12
  2474   0024CC                     __ptext12:
  2475                           	callstack 0
  2476   0024CC                     _INTERRUPT_Initialize:
  2477                           	callstack 23
  2478   0024CC                     
  2479                           ;mcc_generated_files/interrupt_manager.c: 55:     INTCON0bits.IPEN = 0;
  2480   0024CC  9AD2               	bcf	210,5,c	;volatile
  2481   0024CE  0012               	return		;funcret
  2482   0024D0                     __end_of_INTERRUPT_Initialize:
  2483                           	callstack 0
  2484                           
  2485 ;; *************** function _I2C1_Initialize *****************
  2486 ;; Defined at:
  2487 ;;		line 183 in file "mcc_generated_files/i2c1_master.c"
  2488 ;; Parameters:    Size  Location     Type
  2489 ;;		None
  2490 ;; Auto vars:     Size  Location     Type
  2491 ;;		None
  2492 ;; Return value:  Size  Location     Type
  2493 ;;                  1    wreg      void 
  2494 ;; Registers used:
  2495 ;;		wreg, status,2
  2496 ;; Tracked objects:
  2497 ;;		On entry : 0/0
  2498 ;;		On exit  : 0/0
  2499 ;;		Unchanged: 0/0
  2500 ;; Data sizes:     COMRAM   BANK0   BANK1   BANK2   BANK3   BANK4   BANK5   BANK6   BANK7   BANK8   BANK9  BANK10  BANK1
      +1  BANK12  BANK13  BANK14  BANK15
  2501 ;;      Params:         0       0       0       0       0       0       0       0       0       0       0       0       
      +0       0       0       0       0
  2502 ;;      Locals:         0       0       0       0       0       0       0       0       0       0       0       0       
      +0       0       0       0       0
  2503 ;;      Temps:          0       0       0       0       0       0       0       0       0       0       0       0       
      +0       0       0       0       0
  2504 ;;      Totals:         0       0       0       0       0       0       0       0       0       0       0       0       
      +0       0       0       0       0
  2505 ;;Total ram usage:        0 bytes
  2506 ;; Hardware stack levels used: 1
  2507 ;; Hardware stack levels required when called: 6
  2508 ;; This function calls:
  2509 ;;		Nothing
  2510 ;; This function is called by:
  2511 ;;		_SYSTEM_Initialize
  2512 ;; This function uses a non-reentrant model
  2513 ;;
  2514                           
  2515                           	psect	text13
  2516   002410                     __ptext13:
  2517                           	callstack 0
  2518   002410                     _I2C1_Initialize:
  2519                           	callstack 23
  2520   002410                     
  2521                           ;mcc_generated_files/i2c1_master.c: 186:     I2C1CON0 = 0x04;
  2522   002410  0E04               	movlw	4
  2523   002412  013D               	movlb	61	; () banked
  2524   002414  6F73               	movwf	115,b	;volatile
  2525                           
  2526                           ;mcc_generated_files/i2c1_master.c: 188:     I2C1CON1 = 0x80;
  2527   002416  0E80               	movlw	128
  2528   002418  6F74               	movwf	116,b	;volatile
  2529                           
  2530                           ;mcc_generated_files/i2c1_master.c: 190:     I2C1CON2 = 0x18;
  2531   00241A  0E18               	movlw	24
  2532   00241C  6F75               	movwf	117,b	;volatile
  2533                           
  2534                           ;mcc_generated_files/i2c1_master.c: 192:     I2C1CLK = 0x03;
  2535   00241E  0E03               	movlw	3
  2536   002420  6F7B               	movwf	123,b	;volatile
  2537                           
  2538                           ;mcc_generated_files/i2c1_master.c: 194:     I2C1PIR = 0x00;
  2539   002422  0E00               	movlw	0
  2540   002424  6F79               	movwf	121,b	;volatile
  2541                           
  2542                           ;mcc_generated_files/i2c1_master.c: 196:     I2C1PIE = 0x00;
  2543   002426  0E00               	movlw	0
  2544   002428  6F7A               	movwf	122,b	;volatile
  2545                           
  2546                           ;mcc_generated_files/i2c1_master.c: 198:     I2C1ERR = 0x00;
  2547   00242A  0E00               	movlw	0
  2548   00242C  6F76               	movwf	118,b	;volatile
  2549   00242E                     
  2550                           ; BSR set to: 61
  2551                           ;mcc_generated_files/i2c1_master.c: 200:     I2C1CNT = 0xFF;
  2552   00242E  696C               	setf	108,b	;volatile
  2553   002430                     
  2554                           ; BSR set to: 61
  2555   002430  0012               	return		;funcret
  2556   002432                     __end_of_I2C1_Initialize:
  2557                           	callstack 0
  2558                           
  2559 ;; *************** function _DemoInit *****************
  2560 ;; Defined at:
  2561 ;;		line 100 in file "main.c"
  2562 ;; Parameters:    Size  Location     Type
  2563 ;;		None
  2564 ;; Auto vars:     Size  Location     Type
  2565 ;;		None
  2566 ;; Return value:  Size  Location     Type
  2567 ;;                  1    wreg      void 
  2568 ;; Registers used:
  2569 ;;		wreg, fsr2l, fsr2h, status,2, status,0, cstack
  2570 ;; Tracked objects:
  2571 ;;		On entry : 0/0
  2572 ;;		On exit  : 0/0
  2573 ;;		Unchanged: 0/0
  2574 ;; Data sizes:     COMRAM   BANK0   BANK1   BANK2   BANK3   BANK4   BANK5   BANK6   BANK7   BANK8   BANK9  BANK10  BANK1
      +1  BANK12  BANK13  BANK14  BANK15
  2575 ;;      Params:         0       0       0       0       0       0       0       0       0       0       0       0       
      +0       0       0       0       0
  2576 ;;      Locals:         0       0       0       0       0       0       0       0       0       0       0       0       
      +0       0       0       0       0
  2577 ;;      Temps:          0       0       0       0       0       0       0       0       0       0       0       0       
      +0       0       0       0       0
  2578 ;;      Totals:         0       0       0       0       0       0       0       0       0       0       0       0       
      +0       0       0       0       0
  2579 ;;Total ram usage:        0 bytes
  2580 ;; Hardware stack levels used: 1
  2581 ;; Hardware stack levels required when called: 7
  2582 ;; This function calls:
  2583 ;;		__CO_COB_CANopen2MCHP
  2584 ;; This function is called by:
  2585 ;;		_main
  2586 ;; This function uses a non-reentrant model
  2587 ;;
  2588                           
  2589                           	psect	text14
  2590   001548                     __ptext14:
  2591                           	callstack 0
  2592   001548                     _DemoInit:
  2593                           	callstack 23
  2594   001548                     
  2595                           ;main.c: 102:  uDemoSyncSet = 255;
  2596   001548  6816               	setf	_uDemoSyncSet^0,c
  2597   00154A                     
  2598                           ;main.c: 104:  uIOinFilter = 0;
  2599   00154A  0E00               	movlw	0
  2600   00154C  0100               	movlb	0	; () banked
  2601   00154E  6FFC               	movwf	_uIOinFilter& (0+255),b
  2602                           
  2603                           ;main.c: 105:  uIOinPolarity = 0;
  2604   001550  0E00               	movlw	0
  2605   001552  6FFD               	movwf	_uIOinPolarity& (0+255),b
  2606                           
  2607                           ;main.c: 106:  uIOinIntChange = 1;
  2608   001554  0E01               	movlw	1
  2609   001556  6FFA               	movwf	_uIOinIntChange& (0+255),b
  2610                           
  2611                           ;main.c: 107:  uIOinIntRise = 0;
  2612   001558  0E00               	movlw	0
  2613   00155A  6FF9               	movwf	_uIOinIntRise& (0+255),b
  2614                           
  2615                           ;main.c: 108:  uIOinIntFall = 0;
  2616   00155C  0E00               	movlw	0
  2617   00155E  6FF8               	movwf	_uIOinIntFall& (0+255),b
  2618                           
  2619                           ;main.c: 109:  uIOinIntEnable = 1;
  2620   001560  0E01               	movlw	1
  2621   001562  6FFB               	movwf	_uIOinIntEnable& (0+255),b
  2622                           
  2623                           ;main.c: 111:  uIOinDigiInOld = uLocalXmtBuffer[0] = 0;
  2624   001564  0E00               	movlw	0
  2625   001566  6FEC               	movwf	_uLocalXmtBuffer& (0+255),b
  2626   001568  C0EC  F0C2         	movff	_uLocalXmtBuffer,_uIOinDigiInOld
  2627                           
  2628                           ;main.c: 112:  uLocalRcvBuffer[1] = uLocalXmtBuffer[1] = 0;
  2629   00156C  0E00               	movlw	0
  2630   00156E  6FED               	movwf	(_uLocalXmtBuffer+1)& (0+255),b
  2631   001570  C0ED  F0E5         	movff	_uLocalXmtBuffer+1,_uLocalRcvBuffer+1
  2632                           
  2633                           ;main.c: 113:  uLocalRcvBuffer[2] = uLocalXmtBuffer[2] = 0;
  2634   001574  0E00               	movlw	0
  2635   001576  6FEE               	movwf	(_uLocalXmtBuffer+2)& (0+255),b
  2636   001578  C0EE  F0E6         	movff	_uLocalXmtBuffer+2,_uLocalRcvBuffer+2
  2637                           
  2638                           ;main.c: 114:  uLocalRcvBuffer[3] = uLocalXmtBuffer[3] = 0;
  2639   00157C  0E00               	movlw	0
  2640   00157E  6FEF               	movwf	(_uLocalXmtBuffer+3)& (0+255),b
  2641   001580  C0EF  F0E7         	movff	_uLocalXmtBuffer+3,_uLocalRcvBuffer+3
  2642                           
  2643                           ;main.c: 115:  uLocalRcvBuffer[4] = uLocalXmtBuffer[4] = 0;
  2644   001584  0E00               	movlw	0
  2645   001586  6FF0               	movwf	(_uLocalXmtBuffer+4)& (0+255),b
  2646   001588  C0F0  F0E8         	movff	_uLocalXmtBuffer+4,_uLocalRcvBuffer+4
  2647                           
  2648                           ;main.c: 116:  uLocalRcvBuffer[5] = uLocalXmtBuffer[5] = 0;
  2649   00158C  0E00               	movlw	0
  2650   00158E  6FF1               	movwf	(_uLocalXmtBuffer+5)& (0+255),b
  2651   001590  C0F1  F0E9         	movff	_uLocalXmtBuffer+5,_uLocalRcvBuffer+5
  2652                           
  2653                           ;main.c: 117:  uLocalRcvBuffer[6] = uLocalXmtBuffer[6] = 0;
  2654   001594  0E00               	movlw	0
  2655   001596  6FF2               	movwf	(_uLocalXmtBuffer+6)& (0+255),b
  2656   001598  C0F2  F0EA         	movff	_uLocalXmtBuffer+6,_uLocalRcvBuffer+6
  2657                           
  2658                           ;main.c: 118:  uLocalRcvBuffer[7] = uLocalXmtBuffer[7] = 0;
  2659   00159C  0E00               	movlw	0
  2660   00159E  6FF3               	movwf	(_uLocalXmtBuffer+7)& (0+255),b
  2661   0015A0  C0F3  F0EB         	movff	_uLocalXmtBuffer+7,_uLocalRcvBuffer+7
  2662   0015A4                     
  2663                           ; BSR set to: 0
  2664                           ;main.c: 122:  _uCOB_ID_in.word = _uCO_nodeID.byte + 0xC0000180L; _CO_COB_CANopen2MCHP()
      +                          ;;
  2665   0015A4  0E80               	movlw	128
  2666   0015A6  242F               	addwf	__uCO_nodeID^0,w,c
  2667   0015A8  6E05               	movwf	__uCOB_ID_in^0,c
  2668   0015AA  6A06               	clrf	(__uCOB_ID_in+1)^0,c
  2669   0015AC  0E01               	movlw	1
  2670   0015AE  2206               	addwfc	(__uCOB_ID_in+1)^0,f,c
  2671   0015B0  6A07               	clrf	(__uCOB_ID_in+2)^0,c
  2672   0015B2  0E00               	movlw	0
  2673   0015B4  2207               	addwfc	(__uCOB_ID_in+2)^0,f,c
  2674   0015B6  6A08               	clrf	(__uCOB_ID_in+3)^0,c
  2675   0015B8  0EC0               	movlw	192
  2676   0015BA  2208               	addwfc	(__uCOB_ID_in+3)^0,f,c
  2677   0015BC                     
  2678                           ; BSR set to: 0
  2679   0015BC  EC2A  F00C         	call	__CO_COB_CANopen2MCHP	;wreg free
  2680   0015C0                     
  2681                           ;main.c: 125:  uTPDOComm1 .word = _uCOB_ID_out.word;
  2682   0015C0  C001  F09E         	movff	__uCOB_ID_out,_uTPDOComm1
  2683   0015C4  C002  F09F         	movff	__uCOB_ID_out+1,_uTPDOComm1+1
  2684   0015C8  C003  F0A0         	movff	__uCOB_ID_out+2,_uTPDOComm1+2
  2685   0015CC  C004  F0A1         	movff	__uCOB_ID_out+3,_uTPDOComm1+3
  2686   0015D0                     
  2687                           ;main.c: 128:  _uCOB_ID_in.word = _uCO_nodeID.byte + 0xC0000200L; _CO_COB_CANopen2MCHP()
      +                          ;;
  2688   0015D0  0E00               	movlw	0
  2689   0015D2  242F               	addwf	__uCO_nodeID^0,w,c
  2690   0015D4  6E05               	movwf	__uCOB_ID_in^0,c
  2691   0015D6  6A06               	clrf	(__uCOB_ID_in+1)^0,c
  2692   0015D8  0E02               	movlw	2
  2693   0015DA  2206               	addwfc	(__uCOB_ID_in+1)^0,f,c
  2694   0015DC  6A07               	clrf	(__uCOB_ID_in+2)^0,c
  2695   0015DE  0E00               	movlw	0
  2696   0015E0  2207               	addwfc	(__uCOB_ID_in+2)^0,f,c
  2697   0015E2  6A08               	clrf	(__uCOB_ID_in+3)^0,c
  2698   0015E4  0EC0               	movlw	192
  2699   0015E6  2208               	addwfc	(__uCOB_ID_in+3)^0,f,c
  2700   0015E8  EC2A  F00C         	call	__CO_COB_CANopen2MCHP	;wreg free
  2701   0015EC                     
  2702                           ;main.c: 131:  uRPDOComm1 .word = _uCOB_ID_out.word;
  2703   0015EC  C001  F0A2         	movff	__uCOB_ID_out,_uRPDOComm1
  2704   0015F0  C002  F0A3         	movff	__uCOB_ID_out+1,_uRPDOComm1+1
  2705   0015F4  C003  F0A4         	movff	__uCOB_ID_out+2,_uRPDOComm1+2
  2706   0015F8  C004  F0A5         	movff	__uCOB_ID_out+3,_uRPDOComm1+3
  2707   0015FC                     
  2708                           ;main.c: 134:  _uPDO1 .TPDO.buf = (unsigned char *)(&uLocalXmtBuffer[0]);
  2709   0015FC  0EEC               	movlw	low _uLocalXmtBuffer
  2710   0015FE  0100               	movlb	0	; () banked
  2711   001600  6F90               	movwf	(__uPDO1+4)& (0+255),b
  2712   001602  0E00               	movlw	high _uLocalXmtBuffer
  2713   001604  6F91               	movwf	(__uPDO1+5)& (0+255),b
  2714   001606                     
  2715                           ; BSR set to: 0
  2716                           ;main.c: 138:  _uPDO1 .RPDO.buf = (unsigned char *)(&uLocalRcvBuffer[0]);
  2717   001606  0EE4               	movlw	low _uLocalRcvBuffer
  2718   001608  6F8D               	movwf	(__uPDO1+1)& (0+255),b
  2719   00160A  0E00               	movlw	high _uLocalRcvBuffer
  2720   00160C  6F8E               	movwf	(__uPDO1+2)& (0+255),b
  2721                           
  2722                           ;main.c: 142:  _uPDO1 .TPDO.len = 8;
  2723   00160E  0E08               	movlw	8
  2724   001610  6F8F               	movwf	(__uPDO1+3)& (0+255),b
  2725   001612                     
  2726                           ; BSR set to: 0
  2727   001612  0012               	return		;funcret
  2728   001614                     __end_of_DemoInit:
  2729                           	callstack 0
  2730                           
  2731 ;; *************** function _CO_ProcessAllEvents *****************
  2732 ;; Defined at:
  2733 ;;		line 72 in file "CANopen/CO_MAIN.c"
  2734 ;; Parameters:    Size  Location     Type
  2735 ;;		None
  2736 ;; Auto vars:     Size  Location     Type
  2737 ;;		None
  2738 ;; Return value:  Size  Location     Type
  2739 ;;                  1    wreg      void 
  2740 ;; Registers used:
  2741 ;;		wreg, fsr1l, fsr1h, fsr2l, fsr2h, status,2, status,0, tblptrl, tblptrh, tblptru, prodl, prodh, cstack
  2742 ;; Tracked objects:
  2743 ;;		On entry : 0/0
  2744 ;;		On exit  : 0/0
  2745 ;;		Unchanged: 0/0
  2746 ;; Data sizes:     COMRAM   BANK0   BANK1   BANK2   BANK3   BANK4   BANK5   BANK6   BANK7   BANK8   BANK9  BANK10  BANK1
      +1  BANK12  BANK13  BANK14  BANK15
  2747 ;;      Params:         0       0       0       0       0       0       0       0       0       0       0       0       
      +0       0       0       0       0
  2748 ;;      Locals:         0       0       0       0       0       0       0       0       0       0       0       0       
      +0       0       0       0       0
  2749 ;;      Temps:          0       0       0       0       0       0       0       0       0       0       0       0       
      +0       0       0       0       0
  2750 ;;      Totals:         0       0       0       0       0       0       0       0       0       0       0       0       
      +0       0       0       0       0
  2751 ;;Total ram usage:        0 bytes
  2752 ;; Hardware stack levels used: 1
  2753 ;; Hardware stack levels required when called: 11
  2754 ;; This function calls:
  2755 ;;		__CANEventManager
  2756 ;;		__CO_COMMRXEventManager
  2757 ;;		__CO_COMMTXFinEventManager
  2758 ;;		__CO_COMMTXRdyEventManager
  2759 ;; This function is called by:
  2760 ;;		_main
  2761 ;; This function uses a non-reentrant model
  2762 ;;
  2763                           
  2764                           	psect	text15
  2765   00248E                     __ptext15:
  2766                           	callstack 0
  2767   00248E                     _CO_ProcessAllEvents:
  2768                           	callstack 19
  2769   00248E                     
  2770                           ;CANopen/CO_MAIN.c: 75:  _CANEventManager();
  2771   00248E  EC1C  F006         	call	__CANEventManager	;wreg free
  2772   002492                     
  2773                           ;CANopen/CO_MAIN.c: 78:  _CO_COMMRXEventManager();
  2774   002492  EC32  F007         	call	__CO_COMMRXEventManager	;wreg free
  2775   002496                     
  2776                           ;CANopen/CO_MAIN.c: 81:  _CO_COMMTXRdyEventManager();
  2777   002496  ECAD  F008         	call	__CO_COMMTXRdyEventManager	;wreg free
  2778   00249A                     
  2779                           ;CANopen/CO_MAIN.c: 84:  _CO_COMMTXFinEventManager();
  2780   00249A  EC0A  F00B         	call	__CO_COMMTXFinEventManager	;wreg free
  2781   00249E  0012               	return		;funcret
  2782   0024A0                     __end_of_CO_ProcessAllEvents:
  2783                           	callstack 0
  2784                           
  2785 ;; *************** function __CO_COMMTXRdyEventManager *****************
  2786 ;; Defined at:
  2787 ;;		line 322 in file "CANopen/CO_COMM.c"
  2788 ;; Parameters:    Size  Location     Type
  2789 ;;		None
  2790 ;; Auto vars:     Size  Location     Type
  2791 ;;		None
  2792 ;; Return value:  Size  Location     Type
  2793 ;;                  1    wreg      void 
  2794 ;; Registers used:
  2795 ;;		wreg, fsr1l, fsr1h, fsr2l, fsr2h, status,2, status,0, cstack
  2796 ;; Tracked objects:
  2797 ;;		On entry : 0/0
  2798 ;;		On exit  : 0/0
  2799 ;;		Unchanged: 0/0
  2800 ;; Data sizes:     COMRAM   BANK0   BANK1   BANK2   BANK3   BANK4   BANK5   BANK6   BANK7   BANK8   BANK9  BANK10  BANK1
      +1  BANK12  BANK13  BANK14  BANK15
  2801 ;;      Params:         0       0       0       0       0       0       0       0       0       0       0       0       
      +0       0       0       0       0
  2802 ;;      Locals:         0       0       0       0       0       0       0       0       0       0       0       0       
      +0       0       0       0       0
  2803 ;;      Temps:          0       0       0       0       0       0       0       0       0       0       0       0       
      +0       0       0       0       0
  2804 ;;      Totals:         0       0       0       0       0       0       0       0       0       0       0       0       
      +0       0       0       0       0
  2805 ;;Total ram usage:        0 bytes
  2806 ;; Hardware stack levels used: 1
  2807 ;; Hardware stack levels required when called: 7
  2808 ;; This function calls:
  2809 ;;		__CANIsPutReady
  2810 ;;		__CO_COMM_NMTE_TXEvent
  2811 ;;		__CO_COMM_PDO1_TXEvent
  2812 ;;		__CO_COMM_SDO1_TXEvent
  2813 ;; This function is called by:
  2814 ;;		_CO_ProcessAllEvents
  2815 ;; This function uses a non-reentrant model
  2816 ;;
  2817                           
  2818                           	psect	text16
  2819   00115A                     __ptext16:
  2820                           	callstack 0
  2821   00115A                     __CO_COMMTXRdyEventManager:
  2822                           	callstack 22
  2823   00115A                     
  2824                           ;CANopen/CO_COMM.c: 326:   _uCAN_Handle = 1; _CANIsPutReady();
  2825   00115A  0E01               	movlw	1
  2826   00115C  6E36               	movwf	__uCAN_Handle^0,c
  2827   00115E  ECB6  F00F         	call	__CANIsPutReady	;wreg free
  2828   001162                     
  2829                           ;CANopen/CO_COMM.c: 330:  if (_uCO_state.bits.b0)
  2830   001162  A02E               	btfss	__uCO_state^0,0,c
  2831   001164  EFB6  F008         	goto	u4221
  2832   001168  EFB8  F008         	goto	u4220
  2833   00116C                     u4221:
  2834   00116C  EF41  F009         	goto	l369
  2835   001170                     u4220:
  2836   001170                     
  2837                           ;CANopen/CO_COMM.c: 331:  if (_uCAN_ret)
  2838   001170  5034               	movf	__uCAN_ret^0,w,c
  2839   001172  B4D8               	btfsc	status,2,c
  2840   001174  EFBE  F008         	goto	u4231
  2841   001178  EFC0  F008         	goto	u4230
  2842   00117C                     u4231:
  2843   00117C  EF41  F009         	goto	l369
  2844   001180                     u4230:
  2845   001180                     
  2846                           ;CANopen/CO_COMM.c: 332:  {;CANopen/CO_COMM.c: 333:   if (_tx_net_que.byte)
  2847   001180  5028               	movf	__tx_net_que^0,w,c
  2848   001182  B4D8               	btfsc	status,2,c
  2849   001184  EFC6  F008         	goto	u4241
  2850   001188  EFC8  F008         	goto	u4240
  2851   00118C                     u4241:
  2852   00118C  EFE4  F008         	goto	l7688
  2853   001190                     u4240:
  2854   001190                     
  2855                           ;CANopen/CO_COMM.c: 334:   {;CANopen/CO_COMM.c: 335:    if (_tx_net_que.bits.b3)
  2856   001190  A628               	btfss	__tx_net_que^0,3,c
  2857   001192  EFCD  F008         	goto	u4251
  2858   001196  EFCF  F008         	goto	u4250
  2859   00119A                     u4251:
  2860   00119A  EFE0  F008         	goto	l7686
  2861   00119E                     u4250:
  2862   00119E                     
  2863                           ;CANopen/CO_COMM.c: 336:    {;CANopen/CO_COMM.c: 337:     if (_net_en.bits.b3) {_uCAN_Ha
      +                          ndle = 0x00 | 4; _CANIsPutReady();; _CO_COMM_NMTE_TXEvent(); RXB0CONbits.FILHIT3 = 1;}
  2864   00119E  A62C               	btfss	__net_en^0,3,c
  2865   0011A0  EFD4  F008         	goto	u4261
  2866   0011A4  EFD6  F008         	goto	u4260
  2867   0011A8                     u4261:
  2868   0011A8  EFDD  F008         	goto	l7684
  2869   0011AC                     u4260:
  2870   0011AC  0E04               	movlw	4
  2871   0011AE  6E36               	movwf	__uCAN_Handle^0,c
  2872   0011B0  ECB6  F00F         	call	__CANIsPutReady	;wreg free
  2873   0011B4  EC70  F00B         	call	__CO_COMM_NMTE_TXEvent	;wreg free
  2874   0011B8  8680               	bsf	128,3,c	;volatile
  2875   0011BA                     l7684:
  2876                           
  2877                           ;CANopen/CO_COMM.c: 338:     _tx_net_que.bits.b3 = 0;
  2878   0011BA  9628               	bcf	__tx_net_que^0,3,c
  2879                           
  2880                           ;CANopen/CO_COMM.c: 339:    }
  2881   0011BC  EF41  F009         	goto	l369
  2882   0011C0                     l7686:
  2883                           
  2884                           ;CANopen/CO_COMM.c: 352:    {_tx_net_que.byte = 0;}
  2885   0011C0  0E00               	movlw	0
  2886   0011C2  6E28               	movwf	__tx_net_que^0,c
  2887   0011C4  EF41  F009         	goto	l369
  2888   0011C8                     l7688:
  2889                           
  2890                           ;CANopen/CO_COMM.c: 356:   if (_tx_sdo_que.byte)
  2891   0011C8  5027               	movf	__tx_sdo_que^0,w,c
  2892   0011CA  B4D8               	btfsc	status,2,c
  2893   0011CC  EFEA  F008         	goto	u4271
  2894   0011D0  EFEC  F008         	goto	u4270
  2895   0011D4                     u4271:
  2896   0011D4  EF0F  F009         	goto	l7708
  2897   0011D8                     u4270:
  2898   0011D8                     
  2899                           ;CANopen/CO_COMM.c: 357:   {;CANopen/CO_COMM.c: 358:    if (!_uCO_state.bits.b2)
  2900   0011D8  B42E               	btfsc	__uCO_state^0,2,c
  2901   0011DA  EFF1  F008         	goto	u4281
  2902   0011DE  EFF3  F008         	goto	u4280
  2903   0011E2                     u4281:
  2904   0011E2  EF41  F009         	goto	l369
  2905   0011E6                     u4280:
  2906   0011E6                     
  2907                           ;CANopen/CO_COMM.c: 359:    {;CANopen/CO_COMM.c: 360:     if (_tx_sdo_que.bits.b0)
  2908   0011E6  A027               	btfss	__tx_sdo_que^0,0,c
  2909   0011E8  EFF8  F008         	goto	u4291
  2910   0011EC  EFFA  F008         	goto	u4290
  2911   0011F0                     u4291:
  2912   0011F0  EF0B  F009         	goto	l7706
  2913   0011F4                     u4290:
  2914   0011F4                     
  2915                           ;CANopen/CO_COMM.c: 361:     {;CANopen/CO_COMM.c: 362:      if (_sdo_en.bits.b0) {_uCAN_
      +                          Handle = 0x40 | 0; _CANIsPutReady();; _CO_COMM_SDO1_TXEvent(); RXB0CONbits.FILHIT3 = 1;}
  2916   0011F4  A02B               	btfss	__sdo_en^0,0,c
  2917   0011F6  EFFF  F008         	goto	u4301
  2918   0011FA  EF01  F009         	goto	u4300
  2919   0011FE                     u4301:
  2920   0011FE  EF08  F009         	goto	l7704
  2921   001202                     u4300:
  2922   001202  0E40               	movlw	64
  2923   001204  6E36               	movwf	__uCAN_Handle^0,c
  2924   001206  ECB6  F00F         	call	__CANIsPutReady	;wreg free
  2925   00120A  ECD2  F002         	call	__CO_COMM_SDO1_TXEvent	;wreg free
  2926   00120E  8680               	bsf	128,3,c	;volatile
  2927   001210                     l7704:
  2928                           
  2929                           ;CANopen/CO_COMM.c: 363:      _tx_sdo_que.bits.b0 = 0;
  2930   001210  9027               	bcf	__tx_sdo_que^0,0,c
  2931                           
  2932                           ;CANopen/CO_COMM.c: 364:     }
  2933   001212  EF41  F009         	goto	l369
  2934   001216                     l7706:
  2935                           
  2936                           ;CANopen/CO_COMM.c: 386:     {_tx_sdo_que.byte = 0;}
  2937   001216  0E00               	movlw	0
  2938   001218  6E27               	movwf	__tx_sdo_que^0,c
  2939   00121A  EF41  F009         	goto	l369
  2940   00121E                     l7708:
  2941                           
  2942                           ;CANopen/CO_COMM.c: 391:   if (_tx_pdo_que.byte)
  2943   00121E  5026               	movf	__tx_pdo_que^0,w,c
  2944   001220  B4D8               	btfsc	status,2,c
  2945   001222  EF15  F009         	goto	u4311
  2946   001226  EF17  F009         	goto	u4310
  2947   00122A                     u4311:
  2948   00122A  EF41  F009         	goto	l351
  2949   00122E                     u4310:
  2950   00122E                     
  2951                           ;CANopen/CO_COMM.c: 392:   {;CANopen/CO_COMM.c: 393:    if (_uCO_state.bits.b1)
  2952   00122E  A22E               	btfss	__uCO_state^0,1,c
  2953   001230  EF1C  F009         	goto	u4321
  2954   001234  EF1E  F009         	goto	u4320
  2955   001238                     u4321:
  2956   001238  EF41  F009         	goto	l369
  2957   00123C                     u4320:
  2958   00123C                     
  2959                           ;CANopen/CO_COMM.c: 394:    if (!_uCO_state.bits.b2)
  2960   00123C  B42E               	btfsc	__uCO_state^0,2,c
  2961   00123E  EF23  F009         	goto	u4331
  2962   001242  EF25  F009         	goto	u4330
  2963   001246                     u4331:
  2964   001246  EF41  F009         	goto	l369
  2965   00124A                     u4330:
  2966   00124A                     
  2967                           ;CANopen/CO_COMM.c: 395:    {;CANopen/CO_COMM.c: 396:     if (_tx_pdo_que.bits.b0)
  2968   00124A  A026               	btfss	__tx_pdo_que^0,0,c
  2969   00124C  EF2A  F009         	goto	u4341
  2970   001250  EF2C  F009         	goto	u4340
  2971   001254                     u4341:
  2972   001254  EF3D  F009         	goto	l7728
  2973   001258                     u4340:
  2974   001258                     
  2975                           ;CANopen/CO_COMM.c: 397:     {;CANopen/CO_COMM.c: 398:      if (_tpdo_en.bits.b0) {_uCAN
      +                          _Handle = 0x80 | 0; _CANIsPutReady();; _CO_COMM_PDO1_TXEvent(); RXB0CONbits.FILHIT3 = 1;
      +                          }
  2976   001258  A029               	btfss	__tpdo_en^0,0,c
  2977   00125A  EF31  F009         	goto	u4351
  2978   00125E  EF33  F009         	goto	u4350
  2979   001262                     u4351:
  2980   001262  EF3A  F009         	goto	l7726
  2981   001266                     u4350:
  2982   001266  0E80               	movlw	128
  2983   001268  6E36               	movwf	__uCAN_Handle^0,c
  2984   00126A  ECB6  F00F         	call	__CANIsPutReady	;wreg free
  2985   00126E  ECDE  F010         	call	__CO_COMM_PDO1_TXEvent	;wreg free
  2986   001272  8680               	bsf	128,3,c	;volatile
  2987   001274                     l7726:
  2988                           
  2989                           ;CANopen/CO_COMM.c: 399:      _tx_pdo_que.bits.b0 = 0;
  2990   001274  9026               	bcf	__tx_pdo_que^0,0,c
  2991                           
  2992                           ;CANopen/CO_COMM.c: 400:     }
  2993   001276  EF41  F009         	goto	l369
  2994   00127A                     l7728:
  2995                           
  2996                           ;CANopen/CO_COMM.c: 451:     {_tx_pdo_que.byte = 0;}
  2997   00127A  0E00               	movlw	0
  2998   00127C  6E26               	movwf	__tx_pdo_que^0,c
  2999   00127E  EF41  F009         	goto	l369
  3000   001282                     l351:
  3001   001282                     l369:
  3002   001282  0012               	return		;funcret
  3003   001284                     __end_of__CO_COMMTXRdyEventManager:
  3004                           	callstack 0
  3005                           
  3006 ;; *************** function __CO_COMM_SDO1_TXEvent *****************
  3007 ;; Defined at:
  3008 ;;		line 320 in file "CANopen/CO_SDO1.c"
  3009 ;; Parameters:    Size  Location     Type
  3010 ;;		None
  3011 ;; Auto vars:     Size  Location     Type
  3012 ;;		None
  3013 ;; Return value:  Size  Location     Type
  3014 ;;                  1    wreg      void 
  3015 ;; Registers used:
  3016 ;;		wreg, fsr1l, fsr1h, fsr2l, fsr2h, status,2, status,0
  3017 ;; Tracked objects:
  3018 ;;		On entry : 0/0
  3019 ;;		On exit  : 0/0
  3020 ;;		Unchanged: 0/0
  3021 ;; Data sizes:     COMRAM   BANK0   BANK1   BANK2   BANK3   BANK4   BANK5   BANK6   BANK7   BANK8   BANK9  BANK10  BANK1
      +1  BANK12  BANK13  BANK14  BANK15
  3022 ;;      Params:         0       0       0       0       0       0       0       0       0       0       0       0       
      +0       0       0       0       0
  3023 ;;      Locals:         0       0       0       0       0       0       0       0       0       0       0       0       
      +0       0       0       0       0
  3024 ;;      Temps:          2       0       0       0       0       0       0       0       0       0       0       0       
      +0       0       0       0       0
  3025 ;;      Totals:         2       0       0       0       0       0       0       0       0       0       0       0       
      +0       0       0       0       0
  3026 ;;Total ram usage:        2 bytes
  3027 ;; Hardware stack levels used: 1
  3028 ;; Hardware stack levels required when called: 6
  3029 ;; This function calls:
  3030 ;;		Nothing
  3031 ;; This function is called by:
  3032 ;;		__CO_COMMTXRdyEventManager
  3033 ;; This function uses a non-reentrant model
  3034 ;;
  3035                           
  3036                           	psect	text17
  3037   0005A4                     __ptext17:
  3038                           	callstack 0
  3039   0005A4                     __CO_COMM_SDO1_TXEvent:
  3040                           	callstack 22
  3041   0005A4                     
  3042                           ;CANopen/CO_SDO1.c: 323:  *(unsigned long *)((&RXB0SIDH)) = _uSDO1_SC_COBID.word;
  3043   0005A4  0060  F25B  FF81   	movff	__uSDO1_SC_COBID,16257	;volatile
  3044   0005AA  0060  F25F  FF82   	movff	__uSDO1_SC_COBID+1,16258	;volatile
  3045   0005B0  0060  F263  FF83   	movff	__uSDO1_SC_COBID+2,16259	;volatile
  3046   0005B6  0060  F267  FF84   	movff	__uSDO1_SC_COBID+3,16260	;volatile
  3047   0005BC                     
  3048                           ;CANopen/CO_SDO1.c: 326:  (RXB0DLC = 8);
  3049   0005BC  0E08               	movlw	8
  3050   0005BE  6E85               	movwf	133,c	;volatile
  3051                           
  3052                           ;CANopen/CO_SDO1.c: 328:  if (_uSDO1ACode == E_SUCCESS)
  3053   0005C0  501C               	movf	__uSDO1ACode^0,w,c
  3054   0005C2  A4D8               	btfss	status,2,c
  3055   0005C4  EFE6  F002         	goto	u3961
  3056   0005C8  EFE8  F002         	goto	u3960
  3057   0005CC                     u3961:
  3058   0005CC  EFF4  F002         	goto	l7442
  3059   0005D0                     u3960:
  3060   0005D0                     
  3061                           ;CANopen/CO_SDO1.c: 329:  {;CANopen/CO_SDO1.c: 331:   *(_DATA8 *)((&RXB0D0)) = *(_DATA8 
      +                          *)_uSDO1TxBuf;
  3062   0005D0  EE20  F0DC         	lfsr	2,__uSDO1TxBuf
  3063   0005D4  EE1F F386          	lfsr	1,16262
  3064   0005D8  0E07               	movlw	7
  3065   0005DA                     u3971:
  3066   0005DA  006F FF6F FFE3     	movff	plusw2,plusw1
  3067   0005E0  06E8               	decf	wreg,f,c
  3068   0005E2  E2FB               	bc	u3971
  3069                           
  3070                           ;CANopen/CO_SDO1.c: 332:  }
  3071   0005E4  EF9E  F004         	goto	l999
  3072   0005E8                     l7442:
  3073                           
  3074                           ;CANopen/CO_SDO1.c: 334:  {;CANopen/CO_SDO1.c: 336:   *((&RXB0D0)) = 0x80;
  3075   0005E8  0E80               	movlw	128
  3076   0005EA  6E86               	movwf	134,c	;volatile
  3077   0005EC                     
  3078                           ;CANopen/CO_SDO1.c: 339:   *((&RXB0D0) + 1) = ((UNSIGNED16 *)(&(_uSDO1Dict.index)))->byt
      +                          es.B0.byte;
  3079   0005EC  0060  F0F7  FF87   	movff	__uSDO1Dict+6,16263	;volatile
  3080   0005F2                     
  3081                           ;CANopen/CO_SDO1.c: 340:   *((&RXB0D0) + 2) = ((UNSIGNED16 *)(&(_uSDO1Dict.index)))->byt
      +                          es.B1.byte;
  3082   0005F2  0060  F0FB  FF88   	movff	__uSDO1Dict+7,16264	;volatile
  3083   0005F8                     
  3084                           ;CANopen/CO_SDO1.c: 341:   *((&RXB0D0) + 3) = _uSDO1Dict.subindex;
  3085   0005F8  0060  F0FF  FF89   	movff	__uSDO1Dict+8,16265	;volatile
  3086                           
  3087                           ;CANopen/CO_SDO1.c: 343:   switch (_uSDO1ACode)
  3088   0005FE  EF2D  F004         	goto	l7502
  3089   000602                     l7450:
  3090                           
  3091                           ;CANopen/CO_SDO1.c: 347:     *(unsigned long *)((&RXB0D0) + 4) = 0x05030000L;
  3092   000602  EE2F F38A          	lfsr	2,16266
  3093   000606  0E00               	movlw	0
  3094   000608  6EDE               	movwf	postinc2,c
  3095   00060A  0E00               	movlw	0
  3096   00060C  6EDE               	movwf	postinc2,c
  3097   00060E  0E03               	movlw	3
  3098   000610  6EDE               	movwf	postinc2,c
  3099   000612  0E05               	movlw	5
  3100   000614  6EDD               	movwf	postdec2,c
  3101                           
  3102                           ;CANopen/CO_SDO1.c: 348:     break;
  3103   000616  EF9E  F004         	goto	l999
  3104   00061A                     l7452:
  3105                           
  3106                           ;CANopen/CO_SDO1.c: 351:     *(unsigned long *)((&RXB0D0) + 4) = 0x05040000L;
  3107   00061A  EE2F F38A          	lfsr	2,16266
  3108   00061E  0E00               	movlw	0
  3109   000620  6EDE               	movwf	postinc2,c
  3110   000622  0E00               	movlw	0
  3111   000624  6EDE               	movwf	postinc2,c
  3112   000626  0E04               	movlw	4
  3113   000628  6EDE               	movwf	postinc2,c
  3114   00062A  0E05               	movlw	5
  3115   00062C  6EDD               	movwf	postdec2,c
  3116                           
  3117                           ;CANopen/CO_SDO1.c: 352:     break;
  3118   00062E  EF9E  F004         	goto	l999
  3119   000632                     l7454:
  3120                           
  3121                           ;CANopen/CO_SDO1.c: 355:     *(unsigned long *)((&RXB0D0) + 4) = 0x05040001L;
  3122   000632  EE2F F38A          	lfsr	2,16266
  3123   000636  0E01               	movlw	1
  3124   000638  6EDE               	movwf	postinc2,c
  3125   00063A  0E00               	movlw	0
  3126   00063C  6EDE               	movwf	postinc2,c
  3127   00063E  0E04               	movlw	4
  3128   000640  6EDE               	movwf	postinc2,c
  3129   000642  0E05               	movlw	5
  3130   000644  6EDD               	movwf	postdec2,c
  3131                           
  3132                           ;CANopen/CO_SDO1.c: 356:     break;
  3133   000646  EF9E  F004         	goto	l999
  3134   00064A                     l7456:
  3135                           
  3136                           ;CANopen/CO_SDO1.c: 359:     *(unsigned long *)((&RXB0D0) + 4) = 0x05040005L;
  3137   00064A  EE2F F38A          	lfsr	2,16266
  3138   00064E  0E05               	movlw	5
  3139   000650  6EDE               	movwf	postinc2,c
  3140   000652  0E00               	movlw	0
  3141   000654  6EDE               	movwf	postinc2,c
  3142   000656  0E04               	movlw	4
  3143   000658  6EDE               	movwf	postinc2,c
  3144   00065A  0E05               	movlw	5
  3145   00065C  6EDD               	movwf	postdec2,c
  3146                           
  3147                           ;CANopen/CO_SDO1.c: 360:     break;
  3148   00065E  EF9E  F004         	goto	l999
  3149   000662                     l7458:
  3150                           
  3151                           ;CANopen/CO_SDO1.c: 363:     *(unsigned long *)((&RXB0D0) + 4) = 0x06010000L;
  3152   000662  EE2F F38A          	lfsr	2,16266
  3153   000666  0E00               	movlw	0
  3154   000668  6EDE               	movwf	postinc2,c
  3155   00066A  0E00               	movlw	0
  3156   00066C  6EDE               	movwf	postinc2,c
  3157   00066E  0E01               	movlw	1
  3158   000670  6EDE               	movwf	postinc2,c
  3159   000672  0E06               	movlw	6
  3160   000674  6EDD               	movwf	postdec2,c
  3161                           
  3162                           ;CANopen/CO_SDO1.c: 364:     break;
  3163   000676  EF9E  F004         	goto	l999
  3164   00067A                     l7460:
  3165                           
  3166                           ;CANopen/CO_SDO1.c: 367:     *(unsigned long *)((&RXB0D0) + 4) = 0x06010001L;
  3167   00067A  EE2F F38A          	lfsr	2,16266
  3168   00067E  0E01               	movlw	1
  3169   000680  6EDE               	movwf	postinc2,c
  3170   000682  0E00               	movlw	0
  3171   000684  6EDE               	movwf	postinc2,c
  3172   000686  0E01               	movlw	1
  3173   000688  6EDE               	movwf	postinc2,c
  3174   00068A  0E06               	movlw	6
  3175   00068C  6EDD               	movwf	postdec2,c
  3176                           
  3177                           ;CANopen/CO_SDO1.c: 368:     break;
  3178   00068E  EF9E  F004         	goto	l999
  3179   000692                     l7462:
  3180                           
  3181                           ;CANopen/CO_SDO1.c: 371:     *(unsigned long *)((&RXB0D0) + 4) = 0x06010002L;
  3182   000692  EE2F F38A          	lfsr	2,16266
  3183   000696  0E02               	movlw	2
  3184   000698  6EDE               	movwf	postinc2,c
  3185   00069A  0E00               	movlw	0
  3186   00069C  6EDE               	movwf	postinc2,c
  3187   00069E  0E01               	movlw	1
  3188   0006A0  6EDE               	movwf	postinc2,c
  3189   0006A2  0E06               	movlw	6
  3190   0006A4  6EDD               	movwf	postdec2,c
  3191                           
  3192                           ;CANopen/CO_SDO1.c: 372:     break;
  3193   0006A6  EF9E  F004         	goto	l999
  3194   0006AA                     l7464:
  3195                           
  3196                           ;CANopen/CO_SDO1.c: 375:     *(unsigned long *)((&RXB0D0) + 4) = 0x06020000L;
  3197   0006AA  EE2F F38A          	lfsr	2,16266
  3198   0006AE  0E00               	movlw	0
  3199   0006B0  6EDE               	movwf	postinc2,c
  3200   0006B2  0E00               	movlw	0
  3201   0006B4  6EDE               	movwf	postinc2,c
  3202   0006B6  0E02               	movlw	2
  3203   0006B8  6EDE               	movwf	postinc2,c
  3204   0006BA  0E06               	movlw	6
  3205   0006BC  6EDD               	movwf	postdec2,c
  3206                           
  3207                           ;CANopen/CO_SDO1.c: 376:     break;
  3208   0006BE  EF9E  F004         	goto	l999
  3209   0006C2                     l7466:
  3210                           
  3211                           ;CANopen/CO_SDO1.c: 379:     *(unsigned long *)((&RXB0D0) + 4) = 0x06040041L;
  3212   0006C2  EE2F F38A          	lfsr	2,16266
  3213   0006C6  0E41               	movlw	65
  3214   0006C8  6EDE               	movwf	postinc2,c
  3215   0006CA  0E00               	movlw	0
  3216   0006CC  6EDE               	movwf	postinc2,c
  3217   0006CE  0E04               	movlw	4
  3218   0006D0  6EDE               	movwf	postinc2,c
  3219   0006D2  0E06               	movlw	6
  3220   0006D4  6EDD               	movwf	postdec2,c
  3221                           
  3222                           ;CANopen/CO_SDO1.c: 380:     break;
  3223   0006D6  EF9E  F004         	goto	l999
  3224   0006DA                     l7468:
  3225                           
  3226                           ;CANopen/CO_SDO1.c: 383:     *(unsigned long *)((&RXB0D0) + 4) = 0x06040042L;
  3227   0006DA  EE2F F38A          	lfsr	2,16266
  3228   0006DE  0E42               	movlw	66
  3229   0006E0  6EDE               	movwf	postinc2,c
  3230   0006E2  0E00               	movlw	0
  3231   0006E4  6EDE               	movwf	postinc2,c
  3232   0006E6  0E04               	movlw	4
  3233   0006E8  6EDE               	movwf	postinc2,c
  3234   0006EA  0E06               	movlw	6
  3235   0006EC  6EDD               	movwf	postdec2,c
  3236                           
  3237                           ;CANopen/CO_SDO1.c: 384:     break;
  3238   0006EE  EF9E  F004         	goto	l999
  3239   0006F2                     l7470:
  3240                           
  3241                           ;CANopen/CO_SDO1.c: 387:     *(unsigned long *)((&RXB0D0) + 4) = 0x06040043L;
  3242   0006F2  EE2F F38A          	lfsr	2,16266
  3243   0006F6  0E43               	movlw	67
  3244   0006F8  6EDE               	movwf	postinc2,c
  3245   0006FA  0E00               	movlw	0
  3246   0006FC  6EDE               	movwf	postinc2,c
  3247   0006FE  0E04               	movlw	4
  3248   000700  6EDE               	movwf	postinc2,c
  3249   000702  0E06               	movlw	6
  3250   000704  6EDD               	movwf	postdec2,c
  3251                           
  3252                           ;CANopen/CO_SDO1.c: 388:     break;
  3253   000706  EF9E  F004         	goto	l999
  3254   00070A                     l7472:
  3255                           
  3256                           ;CANopen/CO_SDO1.c: 391:     *(unsigned long *)((&RXB0D0) + 4) = 0x06040047L;
  3257   00070A  EE2F F38A          	lfsr	2,16266
  3258   00070E  0E47               	movlw	71
  3259   000710  6EDE               	movwf	postinc2,c
  3260   000712  0E00               	movlw	0
  3261   000714  6EDE               	movwf	postinc2,c
  3262   000716  0E04               	movlw	4
  3263   000718  6EDE               	movwf	postinc2,c
  3264   00071A  0E06               	movlw	6
  3265   00071C  6EDD               	movwf	postdec2,c
  3266                           
  3267                           ;CANopen/CO_SDO1.c: 392:     break;
  3268   00071E  EF9E  F004         	goto	l999
  3269   000722                     l7474:
  3270                           
  3271                           ;CANopen/CO_SDO1.c: 395:     *(unsigned long *)((&RXB0D0) + 4) = 0x06060000L;
  3272   000722  EE2F F38A          	lfsr	2,16266
  3273   000726  0E00               	movlw	0
  3274   000728  6EDE               	movwf	postinc2,c
  3275   00072A  0E00               	movlw	0
  3276   00072C  6EDE               	movwf	postinc2,c
  3277   00072E  0E06               	movlw	6
  3278   000730  6EDE               	movwf	postinc2,c
  3279   000732  0E06               	movlw	6
  3280   000734  6EDD               	movwf	postdec2,c
  3281                           
  3282                           ;CANopen/CO_SDO1.c: 396:     break;
  3283   000736  EF9E  F004         	goto	l999
  3284   00073A                     l7476:
  3285                           
  3286                           ;CANopen/CO_SDO1.c: 399:     *(unsigned long *)((&RXB0D0) + 4) = 0x06070010L;
  3287   00073A  EE2F F38A          	lfsr	2,16266
  3288   00073E  0E10               	movlw	16
  3289   000740  6EDE               	movwf	postinc2,c
  3290   000742  0E00               	movlw	0
  3291   000744  6EDE               	movwf	postinc2,c
  3292   000746  0E07               	movlw	7
  3293   000748  6EDE               	movwf	postinc2,c
  3294   00074A  0E06               	movlw	6
  3295   00074C  6EDD               	movwf	postdec2,c
  3296                           
  3297                           ;CANopen/CO_SDO1.c: 400:     break;
  3298   00074E  EF9E  F004         	goto	l999
  3299   000752                     l7478:
  3300                           
  3301                           ;CANopen/CO_SDO1.c: 403:     *(unsigned long *)((&RXB0D0) + 4) = 0x06070012L;
  3302   000752  EE2F F38A          	lfsr	2,16266
  3303   000756  0E12               	movlw	18
  3304   000758  6EDE               	movwf	postinc2,c
  3305   00075A  0E00               	movlw	0
  3306   00075C  6EDE               	movwf	postinc2,c
  3307   00075E  0E07               	movlw	7
  3308   000760  6EDE               	movwf	postinc2,c
  3309   000762  0E06               	movlw	6
  3310   000764  6EDD               	movwf	postdec2,c
  3311                           
  3312                           ;CANopen/CO_SDO1.c: 404:     break;
  3313   000766  EF9E  F004         	goto	l999
  3314   00076A                     l7480:
  3315                           
  3316                           ;CANopen/CO_SDO1.c: 407:     *(unsigned long *)((&RXB0D0) + 4) = 0x06070013L;
  3317   00076A  EE2F F38A          	lfsr	2,16266
  3318   00076E  0E13               	movlw	19
  3319   000770  6EDE               	movwf	postinc2,c
  3320   000772  0E00               	movlw	0
  3321   000774  6EDE               	movwf	postinc2,c
  3322   000776  0E07               	movlw	7
  3323   000778  6EDE               	movwf	postinc2,c
  3324   00077A  0E06               	movlw	6
  3325   00077C  6EDD               	movwf	postdec2,c
  3326                           
  3327                           ;CANopen/CO_SDO1.c: 408:     break;
  3328   00077E  EF9E  F004         	goto	l999
  3329   000782                     l7482:
  3330                           
  3331                           ;CANopen/CO_SDO1.c: 411:     *(unsigned long *)((&RXB0D0) + 4) = 0x06090011L;
  3332   000782  EE2F F38A          	lfsr	2,16266
  3333   000786  0E11               	movlw	17
  3334   000788  6EDE               	movwf	postinc2,c
  3335   00078A  0E00               	movlw	0
  3336   00078C  6EDE               	movwf	postinc2,c
  3337   00078E  0E09               	movlw	9
  3338   000790  6EDE               	movwf	postinc2,c
  3339   000792  0E06               	movlw	6
  3340   000794  6EDD               	movwf	postdec2,c
  3341                           
  3342                           ;CANopen/CO_SDO1.c: 412:     break;
  3343   000796  EF9E  F004         	goto	l999
  3344   00079A                     l7484:
  3345                           
  3346                           ;CANopen/CO_SDO1.c: 415:     *(unsigned long *)((&RXB0D0) + 4) = 0x06090030L;
  3347   00079A  EE2F F38A          	lfsr	2,16266
  3348   00079E  0E30               	movlw	48
  3349   0007A0  6EDE               	movwf	postinc2,c
  3350   0007A2  0E00               	movlw	0
  3351   0007A4  6EDE               	movwf	postinc2,c
  3352   0007A6  0E09               	movlw	9
  3353   0007A8  6EDE               	movwf	postinc2,c
  3354   0007AA  0E06               	movlw	6
  3355   0007AC  6EDD               	movwf	postdec2,c
  3356                           
  3357                           ;CANopen/CO_SDO1.c: 416:     break;
  3358   0007AE  EF9E  F004         	goto	l999
  3359   0007B2                     l7486:
  3360                           
  3361                           ;CANopen/CO_SDO1.c: 419:     *(unsigned long *)((&RXB0D0) + 4) = 0x06090031L;
  3362   0007B2  EE2F F38A          	lfsr	2,16266
  3363   0007B6  0E31               	movlw	49
  3364   0007B8  6EDE               	movwf	postinc2,c
  3365   0007BA  0E00               	movlw	0
  3366   0007BC  6EDE               	movwf	postinc2,c
  3367   0007BE  0E09               	movlw	9
  3368   0007C0  6EDE               	movwf	postinc2,c
  3369   0007C2  0E06               	movlw	6
  3370   0007C4  6EDD               	movwf	postdec2,c
  3371                           
  3372                           ;CANopen/CO_SDO1.c: 420:     break;
  3373   0007C6  EF9E  F004         	goto	l999
  3374   0007CA                     l7488:
  3375                           
  3376                           ;CANopen/CO_SDO1.c: 423:     *(unsigned long *)((&RXB0D0) + 4) = 0x06090032L;
  3377   0007CA  EE2F F38A          	lfsr	2,16266
  3378   0007CE  0E32               	movlw	50
  3379   0007D0  6EDE               	movwf	postinc2,c
  3380   0007D2  0E00               	movlw	0
  3381   0007D4  6EDE               	movwf	postinc2,c
  3382   0007D6  0E09               	movlw	9
  3383   0007D8  6EDE               	movwf	postinc2,c
  3384   0007DA  0E06               	movlw	6
  3385   0007DC  6EDD               	movwf	postdec2,c
  3386                           
  3387                           ;CANopen/CO_SDO1.c: 424:     break;
  3388   0007DE  EF9E  F004         	goto	l999
  3389   0007E2                     l7490:
  3390                           
  3391                           ;CANopen/CO_SDO1.c: 427:     *(unsigned long *)((&RXB0D0) + 4) = 0x06090036L;
  3392   0007E2  EE2F F38A          	lfsr	2,16266
  3393   0007E6  0E36               	movlw	54
  3394   0007E8  6EDE               	movwf	postinc2,c
  3395   0007EA  0E00               	movlw	0
  3396   0007EC  6EDE               	movwf	postinc2,c
  3397   0007EE  0E09               	movlw	9
  3398   0007F0  6EDE               	movwf	postinc2,c
  3399   0007F2  0E06               	movlw	6
  3400   0007F4  6EDD               	movwf	postdec2,c
  3401                           
  3402                           ;CANopen/CO_SDO1.c: 428:     break;
  3403   0007F6  EF9E  F004         	goto	l999
  3404   0007FA                     l7492:
  3405                           
  3406                           ;CANopen/CO_SDO1.c: 431:     *(unsigned long *)((&RXB0D0) + 4) = 0x08000000L;
  3407   0007FA  EE2F F38A          	lfsr	2,16266
  3408   0007FE  0E00               	movlw	0
  3409   000800  6EDE               	movwf	postinc2,c
  3410   000802  0E00               	movlw	0
  3411   000804  6EDE               	movwf	postinc2,c
  3412   000806  0E00               	movlw	0
  3413   000808  6EDE               	movwf	postinc2,c
  3414   00080A  0E08               	movlw	8
  3415   00080C  6EDD               	movwf	postdec2,c
  3416                           
  3417                           ;CANopen/CO_SDO1.c: 432:     break;
  3418   00080E  EF9E  F004         	goto	l999
  3419   000812                     l7494:
  3420                           
  3421                           ;CANopen/CO_SDO1.c: 435:     *(unsigned long *)((&RXB0D0) + 4) = 0x08000020L;
  3422   000812  EE2F F38A          	lfsr	2,16266
  3423   000816  0E20               	movlw	32
  3424   000818  6EDE               	movwf	postinc2,c
  3425   00081A  0E00               	movlw	0
  3426   00081C  6EDE               	movwf	postinc2,c
  3427   00081E  0E00               	movlw	0
  3428   000820  6EDE               	movwf	postinc2,c
  3429   000822  0E08               	movlw	8
  3430   000824  6EDD               	movwf	postdec2,c
  3431                           
  3432                           ;CANopen/CO_SDO1.c: 436:     break;
  3433   000826  EF9E  F004         	goto	l999
  3434   00082A                     l7496:
  3435                           
  3436                           ;CANopen/CO_SDO1.c: 439:     *(unsigned long *)((&RXB0D0) + 4) = 0x08000021L;
  3437   00082A  EE2F F38A          	lfsr	2,16266
  3438   00082E  0E21               	movlw	33
  3439   000830  6EDE               	movwf	postinc2,c
  3440   000832  0E00               	movlw	0
  3441   000834  6EDE               	movwf	postinc2,c
  3442   000836  0E00               	movlw	0
  3443   000838  6EDE               	movwf	postinc2,c
  3444   00083A  0E08               	movlw	8
  3445   00083C  6EDD               	movwf	postdec2,c
  3446                           
  3447                           ;CANopen/CO_SDO1.c: 440:     break;
  3448   00083E  EF9E  F004         	goto	l999
  3449   000842                     l7498:
  3450                           
  3451                           ;CANopen/CO_SDO1.c: 443:     *(unsigned long *)((&RXB0D0) + 4) = 0x08000022L;
  3452   000842  EE2F F38A          	lfsr	2,16266
  3453   000846  0E22               	movlw	34
  3454   000848  6EDE               	movwf	postinc2,c
  3455   00084A  0E00               	movlw	0
  3456   00084C  6EDE               	movwf	postinc2,c
  3457   00084E  0E00               	movlw	0
  3458   000850  6EDE               	movwf	postinc2,c
  3459   000852  0E08               	movlw	8
  3460   000854  6EDD               	movwf	postdec2,c
  3461                           
  3462                           ;CANopen/CO_SDO1.c: 444:     break;
  3463   000856  EF9E  F004         	goto	l999
  3464   00085A                     l7502:
  3465   00085A  501C               	movf	__uSDO1ACode^0,w,c
  3466   00085C  6E52               	movwf	??__CO_COMM_SDO1_TXEvent^0,c
  3467   00085E  6A53               	clrf	(??__CO_COMM_SDO1_TXEvent+1)^0,c
  3468                           
  3469                           ; Switch on 2 bytes has been partitioned into a top level switch of size 1, and 1 sub-sw
      +                          itches
  3470                           ; Switch size 1, requested type "simple"
  3471                           ; Number of cases is 1, Range of values is 0 to 0
  3472                           ; switch strategies available:
  3473                           ; Name         Instructions Cycles
  3474                           ; simple_byte            4     3 (average)
  3475                           ;	Chosen strategy is simple_byte
  3476   000860  5053               	movf	(??__CO_COMM_SDO1_TXEvent+1)^0,w,c
  3477   000862  0A00               	xorlw	0	; case 0
  3478   000864  B4D8               	btfsc	status,2,c
  3479   000866  EF37  F004         	goto	l10484
  3480   00086A  EF9E  F004         	goto	l999
  3481   00086E                     l10484:
  3482                           
  3483                           ; Switch size 1, requested type "simple"
  3484                           ; Number of cases is 25, Range of values is 1 to 25
  3485                           ; switch strategies available:
  3486                           ; Name         Instructions Cycles
  3487                           ; simple_byte           76    39 (average)
  3488                           ;	Chosen strategy is simple_byte
  3489   00086E  5052               	movf	??__CO_COMM_SDO1_TXEvent^0,w,c
  3490   000870  0A01               	xorlw	1	; case 1
  3491   000872  B4D8               	btfsc	status,2,c
  3492   000874  EF01  F003         	goto	l7450
  3493   000878  0A03               	xorlw	3	; case 2
  3494   00087A  B4D8               	btfsc	status,2,c
  3495   00087C  EF0D  F003         	goto	l7452
  3496   000880  0A01               	xorlw	1	; case 3
  3497   000882  B4D8               	btfsc	status,2,c
  3498   000884  EF19  F003         	goto	l7454
  3499   000888  0A07               	xorlw	7	; case 4
  3500   00088A  B4D8               	btfsc	status,2,c
  3501   00088C  EF25  F003         	goto	l7456
  3502   000890  0A01               	xorlw	1	; case 5
  3503   000892  B4D8               	btfsc	status,2,c
  3504   000894  EF31  F003         	goto	l7458
  3505   000898  0A03               	xorlw	3	; case 6
  3506   00089A  B4D8               	btfsc	status,2,c
  3507   00089C  EF3D  F003         	goto	l7460
  3508   0008A0  0A01               	xorlw	1	; case 7
  3509   0008A2  B4D8               	btfsc	status,2,c
  3510   0008A4  EF49  F003         	goto	l7462
  3511   0008A8  0A0F               	xorlw	15	; case 8
  3512   0008AA  B4D8               	btfsc	status,2,c
  3513   0008AC  EF55  F003         	goto	l7464
  3514   0008B0  0A01               	xorlw	1	; case 9
  3515   0008B2  B4D8               	btfsc	status,2,c
  3516   0008B4  EF61  F003         	goto	l7466
  3517   0008B8  0A03               	xorlw	3	; case 10
  3518   0008BA  B4D8               	btfsc	status,2,c
  3519   0008BC  EF6D  F003         	goto	l7468
  3520   0008C0  0A01               	xorlw	1	; case 11
  3521   0008C2  B4D8               	btfsc	status,2,c
  3522   0008C4  EF79  F003         	goto	l7470
  3523   0008C8  0A07               	xorlw	7	; case 12
  3524   0008CA  B4D8               	btfsc	status,2,c
  3525   0008CC  EF85  F003         	goto	l7472
  3526   0008D0  0A01               	xorlw	1	; case 13
  3527   0008D2  B4D8               	btfsc	status,2,c
  3528   0008D4  EF91  F003         	goto	l7474
  3529   0008D8  0A03               	xorlw	3	; case 14
  3530   0008DA  B4D8               	btfsc	status,2,c
  3531   0008DC  EF9D  F003         	goto	l7476
  3532   0008E0  0A01               	xorlw	1	; case 15
  3533   0008E2  B4D8               	btfsc	status,2,c
  3534   0008E4  EFA9  F003         	goto	l7478
  3535   0008E8  0A1F               	xorlw	31	; case 16
  3536   0008EA  B4D8               	btfsc	status,2,c
  3537   0008EC  EFB5  F003         	goto	l7480
  3538   0008F0  0A01               	xorlw	1	; case 17
  3539   0008F2  B4D8               	btfsc	status,2,c
  3540   0008F4  EFC1  F003         	goto	l7482
  3541   0008F8  0A03               	xorlw	3	; case 18
  3542   0008FA  B4D8               	btfsc	status,2,c
  3543   0008FC  EFCD  F003         	goto	l7484
  3544   000900  0A01               	xorlw	1	; case 19
  3545   000902  B4D8               	btfsc	status,2,c
  3546   000904  EFD9  F003         	goto	l7486
  3547   000908  0A07               	xorlw	7	; case 20
  3548   00090A  B4D8               	btfsc	status,2,c
  3549   00090C  EFE5  F003         	goto	l7488
  3550   000910  0A01               	xorlw	1	; case 21
  3551   000912  B4D8               	btfsc	status,2,c
  3552   000914  EFF1  F003         	goto	l7490
  3553   000918  0A03               	xorlw	3	; case 22
  3554   00091A  B4D8               	btfsc	status,2,c
  3555   00091C  EFFD  F003         	goto	l7492
  3556   000920  0A01               	xorlw	1	; case 23
  3557   000922  B4D8               	btfsc	status,2,c
  3558   000924  EF09  F004         	goto	l7494
  3559   000928  0A0F               	xorlw	15	; case 24
  3560   00092A  B4D8               	btfsc	status,2,c
  3561   00092C  EF15  F004         	goto	l7496
  3562   000930  0A01               	xorlw	1	; case 25
  3563   000932  B4D8               	btfsc	status,2,c
  3564   000934  EF21  F004         	goto	l7498
  3565   000938  EF9E  F004         	goto	l999
  3566   00093C                     l999:
  3567   00093C  0012               	return		;funcret
  3568   00093E                     __end_of__CO_COMM_SDO1_TXEvent:
  3569                           	callstack 0
  3570                           
  3571 ;; *************** function __CO_COMM_PDO1_TXEvent *****************
  3572 ;; Defined at:
  3573 ;;		line 109 in file "CANopen/CO_PDO.c"
  3574 ;; Parameters:    Size  Location     Type
  3575 ;;		None
  3576 ;; Auto vars:     Size  Location     Type
  3577 ;;		None
  3578 ;; Return value:  Size  Location     Type
  3579 ;;                  1    wreg      void 
  3580 ;; Registers used:
  3581 ;;		wreg, fsr1l, fsr1h, fsr2l, fsr2h, status,2, status,0
  3582 ;; Tracked objects:
  3583 ;;		On entry : 0/0
  3584 ;;		On exit  : 0/0
  3585 ;;		Unchanged: 0/0
  3586 ;; Data sizes:     COMRAM   BANK0   BANK1   BANK2   BANK3   BANK4   BANK5   BANK6   BANK7   BANK8   BANK9  BANK10  BANK1
      +1  BANK12  BANK13  BANK14  BANK15
  3587 ;;      Params:         0       0       0       0       0       0       0       0       0       0       0       0       
      +0       0       0       0       0
  3588 ;;      Locals:         0       0       0       0       0       0       0       0       0       0       0       0       
      +0       0       0       0       0
  3589 ;;      Temps:          0       0       0       0       0       0       0       0       0       0       0       0       
      +0       0       0       0       0
  3590 ;;      Totals:         0       0       0       0       0       0       0       0       0       0       0       0       
      +0       0       0       0       0
  3591 ;;Total ram usage:        0 bytes
  3592 ;; Hardware stack levels used: 1
  3593 ;; Hardware stack levels required when called: 6
  3594 ;; This function calls:
  3595 ;;		Nothing
  3596 ;; This function is called by:
  3597 ;;		__CO_COMMTXRdyEventManager
  3598 ;; This function uses a non-reentrant model
  3599 ;;
  3600                           
  3601                           	psect	text18
  3602   0021BC                     __ptext18:
  3603                           	callstack 0
  3604   0021BC                     __CO_COMM_PDO1_TXEvent:
  3605                           	callstack 22
  3606   0021BC                     
  3607                           ;CANopen/CO_PDO.c: 112:  *(unsigned long *)((&RXB0SIDH)) = uTPDOComm1.word;
  3608   0021BC  0060  F27B  FF81   	movff	_uTPDOComm1,16257	;volatile
  3609   0021C2  0060  F27F  FF82   	movff	_uTPDOComm1+1,16258	;volatile
  3610   0021C8  0060  F283  FF83   	movff	_uTPDOComm1+2,16259	;volatile
  3611   0021CE  0060  F287  FF84   	movff	_uTPDOComm1+3,16260	;volatile
  3612   0021D4                     
  3613                           ;CANopen/CO_PDO.c: 115:  *((_DATA8 *)((&RXB0D0))) = *((_DATA8 *)(_uPDO1.TPDO.buf));
  3614   0021D4  0060  F243  FFD9   	movff	__uPDO1+4,fsr2l
  3615   0021DA  0060  F247  FFDA   	movff	__uPDO1+5,fsr2h
  3616   0021E0  EE1F F386          	lfsr	1,16262
  3617   0021E4  0E07               	movlw	7
  3618   0021E6                     u3981:
  3619   0021E6  006F FF6F FFE3     	movff	plusw2,plusw1
  3620   0021EC  06E8               	decf	wreg,f,c
  3621   0021EE  E2FB               	bc	u3981
  3622   0021F0                     
  3623                           ;CANopen/CO_PDO.c: 116:  (RXB0DLC = _uPDO1.TPDO.len);
  3624   0021F0  0060  F23F  FF85   	movff	__uPDO1+3,16261	;volatile
  3625   0021F6  0012               	return		;funcret
  3626   0021F8                     __end_of__CO_COMM_PDO1_TXEvent:
  3627                           	callstack 0
  3628                           
  3629 ;; *************** function __CO_COMMTXFinEventManager *****************
  3630 ;; Defined at:
  3631 ;;		line 474 in file "CANopen/CO_COMM.c"
  3632 ;; Parameters:    Size  Location     Type
  3633 ;;		None
  3634 ;; Auto vars:     Size  Location     Type
  3635 ;;		None
  3636 ;; Return value:  Size  Location     Type
  3637 ;;                  1    wreg      void 
  3638 ;; Registers used:
  3639 ;;		wreg, status,2, status,0, cstack
  3640 ;; Tracked objects:
  3641 ;;		On entry : 0/0
  3642 ;;		On exit  : 0/0
  3643 ;;		Unchanged: 0/0
  3644 ;; Data sizes:     COMRAM   BANK0   BANK1   BANK2   BANK3   BANK4   BANK5   BANK6   BANK7   BANK8   BANK9  BANK10  BANK1
      +1  BANK12  BANK13  BANK14  BANK15
  3645 ;;      Params:         0       0       0       0       0       0       0       0       0       0       0       0       
      +0       0       0       0       0
  3646 ;;      Locals:         0       0       0       0       0       0       0       0       0       0       0       0       
      +0       0       0       0       0
  3647 ;;      Temps:          2       0       0       0       0       0       0       0       0       0       0       0       
      +0       0       0       0       0
  3648 ;;      Totals:         2       0       0       0       0       0       0       0       0       0       0       0       
      +0       0       0       0       0
  3649 ;;Total ram usage:        2 bytes
  3650 ;; Hardware stack levels used: 1
  3651 ;; Hardware stack levels required when called: 7
  3652 ;; This function calls:
  3653 ;;		_CO_PDO1TXFinEvent
  3654 ;;		__CANIsPutFin
  3655 ;; This function is called by:
  3656 ;;		_CO_ProcessAllEvents
  3657 ;; This function uses a non-reentrant model
  3658 ;;
  3659                           
  3660                           	psect	text19
  3661   001614                     __ptext19:
  3662                           	callstack 0
  3663   001614                     __CO_COMMTXFinEventManager:
  3664                           	callstack 22
  3665   001614                     
  3666                           ;CANopen/CO_COMM.c: 477:  _CANIsPutFin();
  3667   001614  EC47  F010         	call	__CANIsPutFin	;wreg free
  3668   001618                     
  3669                           ;CANopen/CO_COMM.c: 481:  if (_uCO_state.bits.b0)
  3670   001618  A02E               	btfss	__uCO_state^0,0,c
  3671   00161A  EF11  F00B         	goto	u4361
  3672   00161E  EF13  F00B         	goto	u4360
  3673   001622                     u4361:
  3674   001622  EF6F  F00B         	goto	l394
  3675   001626                     u4360:
  3676   001626                     
  3677                           ;CANopen/CO_COMM.c: 482:  if (_uCAN_ret)
  3678   001626  5034               	movf	__uCAN_ret^0,w,c
  3679   001628  B4D8               	btfsc	status,2,c
  3680   00162A  EF19  F00B         	goto	u4371
  3681   00162E  EF1B  F00B         	goto	u4370
  3682   001632                     u4371:
  3683   001632  EF6F  F00B         	goto	l394
  3684   001636                     u4370:
  3685   001636  EF55  F00B         	goto	l7756
  3686   00163A                     l378:
  3687                           
  3688                           ;CANopen/CO_COMM.c: 501:     break;
  3689   00163A  EF6F  F00B         	goto	l394
  3690   00163E                     l380:
  3691                           
  3692                           ;CANopen/CO_COMM.c: 504:     if (!_uCO_state.bits.b2)
  3693   00163E  B42E               	btfsc	__uCO_state^0,2,c
  3694   001640  EF24  F00B         	goto	u4381
  3695   001644  EF26  F00B         	goto	u4380
  3696   001648                     u4381:
  3697   001648  EF1D  F00B         	goto	l378
  3698   00164C                     u4380:
  3699   00164C  EF6F  F00B         	goto	l394
  3700   001650                     l385:
  3701                           
  3702                           ;CANopen/CO_COMM.c: 529:     if (_uCO_state.bits.b1)
  3703   001650  A22E               	btfss	__uCO_state^0,1,c
  3704   001652  EF2D  F00B         	goto	u4391
  3705   001656  EF2F  F00B         	goto	u4390
  3706   00165A                     u4391:
  3707   00165A  EF1D  F00B         	goto	l378
  3708   00165E                     u4390:
  3709   00165E                     
  3710                           ;CANopen/CO_COMM.c: 530:     if (!_uCO_state.bits.b2)
  3711   00165E  B42E               	btfsc	__uCO_state^0,2,c
  3712   001660  EF34  F00B         	goto	u4401
  3713   001664  EF36  F00B         	goto	u4400
  3714   001668                     u4401:
  3715   001668  EF6F  F00B         	goto	l394
  3716   00166C                     u4400:
  3717   00166C  EF43  F00B         	goto	l7752
  3718   001670                     l389:
  3719                           
  3720                           ;CANopen/CO_COMM.c: 535:        if (_tpdo_en.bits.b0){CO_PDO1TXFinEvent();}
  3721   001670  A029               	btfss	__tpdo_en^0,0,c
  3722   001672  EF3D  F00B         	goto	u4411
  3723   001676  EF3F  F00B         	goto	u4410
  3724   00167A                     u4411:
  3725   00167A  EF1D  F00B         	goto	l378
  3726   00167E                     u4410:
  3727   00167E  EC6A  F012         	call	_CO_PDO1TXFinEvent	;wreg free
  3728   001682  EF6F  F00B         	goto	l394
  3729   001686                     l7752:
  3730   001686  5034               	movf	__uCAN_ret^0,w,c
  3731   001688  0B3F               	andlw	63
  3732   00168A  6E52               	movwf	??__CO_COMMTXFinEventManager^0,c
  3733   00168C  6A53               	clrf	(??__CO_COMMTXFinEventManager+1)^0,c
  3734                           
  3735                           ; Switch on 2 bytes has been partitioned into a top level switch of size 1, and 1 sub-sw
      +                          itches
  3736                           ; Switch size 1, requested type "simple"
  3737                           ; Number of cases is 1, Range of values is 0 to 0
  3738                           ; switch strategies available:
  3739                           ; Name         Instructions Cycles
  3740                           ; simple_byte            4     3 (average)
  3741                           ;	Chosen strategy is simple_byte
  3742   00168E  5053               	movf	(??__CO_COMMTXFinEventManager+1)^0,w,c
  3743   001690  0A00               	xorlw	0	; case 0
  3744   001692  B4D8               	btfsc	status,2,c
  3745   001694  EF4E  F00B         	goto	l10486
  3746   001698  EF1D  F00B         	goto	l378
  3747   00169C                     l10486:
  3748                           
  3749                           ; Switch size 1, requested type "simple"
  3750                           ; Number of cases is 1, Range of values is 0 to 0
  3751                           ; switch strategies available:
  3752                           ; Name         Instructions Cycles
  3753                           ; simple_byte            4     3 (average)
  3754                           ;	Chosen strategy is simple_byte
  3755   00169C  5052               	movf	??__CO_COMMTXFinEventManager^0,w,c
  3756   00169E  0A00               	xorlw	0	; case 0
  3757   0016A0  B4D8               	btfsc	status,2,c
  3758   0016A2  EF38  F00B         	goto	l389
  3759   0016A6  EF1D  F00B         	goto	l378
  3760   0016AA                     l7756:
  3761   0016AA  5034               	movf	__uCAN_ret^0,w,c
  3762   0016AC  0BC0               	andlw	192
  3763   0016AE  6E52               	movwf	??__CO_COMMTXFinEventManager^0,c
  3764   0016B0  6A53               	clrf	(??__CO_COMMTXFinEventManager+1)^0,c
  3765                           
  3766                           ; Switch on 2 bytes has been partitioned into a top level switch of size 1, and 1 sub-sw
      +                          itches
  3767                           ; Switch size 1, requested type "simple"
  3768                           ; Number of cases is 1, Range of values is 0 to 0
  3769                           ; switch strategies available:
  3770                           ; Name         Instructions Cycles
  3771                           ; simple_byte            4     3 (average)
  3772                           ;	Chosen strategy is simple_byte
  3773   0016B2  5053               	movf	(??__CO_COMMTXFinEventManager+1)^0,w,c
  3774   0016B4  0A00               	xorlw	0	; case 0
  3775   0016B6  B4D8               	btfsc	status,2,c
  3776   0016B8  EF60  F00B         	goto	l10488
  3777   0016BC  EF1D  F00B         	goto	l378
  3778   0016C0                     l10488:
  3779                           
  3780                           ; Switch size 1, requested type "simple"
  3781                           ; Number of cases is 3, Range of values is 0 to 128
  3782                           ; switch strategies available:
  3783                           ; Name         Instructions Cycles
  3784                           ; simple_byte           10     6 (average)
  3785                           ;	Chosen strategy is simple_byte
  3786   0016C0  5052               	movf	??__CO_COMMTXFinEventManager^0,w,c
  3787   0016C2  0A00               	xorlw	0	; case 0
  3788   0016C4  B4D8               	btfsc	status,2,c
  3789   0016C6  EF1D  F00B         	goto	l378
  3790   0016CA  0A40               	xorlw	64	; case 64
  3791   0016CC  B4D8               	btfsc	status,2,c
  3792   0016CE  EF1F  F00B         	goto	l380
  3793   0016D2  0AC0               	xorlw	192	; case 128
  3794   0016D4  B4D8               	btfsc	status,2,c
  3795   0016D6  EF28  F00B         	goto	l385
  3796   0016DA  EF1D  F00B         	goto	l378
  3797   0016DE                     l394:
  3798   0016DE  0012               	return		;funcret
  3799   0016E0                     __end_of__CO_COMMTXFinEventManager:
  3800                           	callstack 0
  3801                           
  3802 ;; *************** function __CANIsPutFin *****************
  3803 ;; Defined at:
  3804 ;;		line 505 in file "CANopen/CO_CANDRV.c"
  3805 ;; Parameters:    Size  Location     Type
  3806 ;;		None
  3807 ;; Auto vars:     Size  Location     Type
  3808 ;;		None
  3809 ;; Return value:  Size  Location     Type
  3810 ;;                  1    wreg      void 
  3811 ;; Registers used:
  3812 ;;		wreg, status,2
  3813 ;; Tracked objects:
  3814 ;;		On entry : 0/0
  3815 ;;		On exit  : 0/0
  3816 ;;		Unchanged: 0/0
  3817 ;; Data sizes:     COMRAM   BANK0   BANK1   BANK2   BANK3   BANK4   BANK5   BANK6   BANK7   BANK8   BANK9  BANK10  BANK1
      +1  BANK12  BANK13  BANK14  BANK15
  3818 ;;      Params:         0       0       0       0       0       0       0       0       0       0       0       0       
      +0       0       0       0       0
  3819 ;;      Locals:         0       0       0       0       0       0       0       0       0       0       0       0       
      +0       0       0       0       0
  3820 ;;      Temps:          0       0       0       0       0       0       0       0       0       0       0       0       
      +0       0       0       0       0
  3821 ;;      Totals:         0       0       0       0       0       0       0       0       0       0       0       0       
      +0       0       0       0       0
  3822 ;;Total ram usage:        0 bytes
  3823 ;; Hardware stack levels used: 1
  3824 ;; Hardware stack levels required when called: 6
  3825 ;; This function calls:
  3826 ;;		Nothing
  3827 ;; This function is called by:
  3828 ;;		__CO_COMMTXFinEventManager
  3829 ;; This function uses a non-reentrant model
  3830 ;;
  3831                           
  3832                           	psect	text20
  3833   00208E                     __ptext20:
  3834                           	callstack 0
  3835   00208E                     __CANIsPutFin:
  3836                           	callstack 22
  3837   00208E                     
  3838                           ;CANopen/CO_CANDRV.c: 508:  if (TXB0CONbits.TXBIF) {ECANCON = 0x43; TXB0CONbits.TXBIF = 
      +                          0; _uCAN_ret = _uCANTxHndls[0];}
  3839   00208E  0137               	movlb	55	; () banked
  3840   002090  AFE0               	btfss	224,7,b	;volatile
  3841   002092  EF4D  F010         	goto	u3561
  3842   002096  EF4F  F010         	goto	u3560
  3843   00209A                     u3561:
  3844   00209A  EF56  F010         	goto	l194
  3845   00209E                     u3560:
  3846   00209E                     
  3847                           ; BSR set to: 55
  3848   00209E  0E43               	movlw	67
  3849   0020A0  6E91               	movwf	145,c	;volatile
  3850   0020A2                     
  3851                           ; BSR set to: 55
  3852   0020A2  9FE0               	bcf	224,7,b	;volatile
  3853   0020A4                     
  3854                           ; BSR set to: 55
  3855   0020A4  C0B1  F034         	movff	__uCANTxHndls,__uCAN_ret
  3856   0020A8  EF74  F010         	goto	l200
  3857   0020AC                     l194:
  3858                           
  3859                           ; BSR set to: 55
  3860   0020AC  AFD0               	btfss	208,7,b	;volatile
  3861   0020AE  EF5B  F010         	goto	u3571
  3862   0020B2  EF5D  F010         	goto	u3570
  3863   0020B6                     u3571:
  3864   0020B6  EF64  F010         	goto	l196
  3865   0020BA                     u3570:
  3866   0020BA                     
  3867                           ; BSR set to: 55
  3868   0020BA  0E44               	movlw	68
  3869   0020BC  6E91               	movwf	145,c	;volatile
  3870   0020BE                     
  3871                           ; BSR set to: 55
  3872   0020BE  9FE0               	bcf	224,7,b	;volatile
  3873   0020C0                     
  3874                           ; BSR set to: 55
  3875   0020C0  C0B2  F034         	movff	__uCANTxHndls+1,__uCAN_ret
  3876   0020C4  EF74  F010         	goto	l200
  3877   0020C8                     l196:
  3878                           
  3879                           ; BSR set to: 55
  3880   0020C8  AFC0               	btfss	192,7,b	;volatile
  3881   0020CA  EF69  F010         	goto	u3581
  3882   0020CE  EF6B  F010         	goto	u3580
  3883   0020D2                     u3581:
  3884   0020D2  EF72  F010         	goto	l7146
  3885   0020D6                     u3580:
  3886   0020D6                     
  3887                           ; BSR set to: 55
  3888   0020D6  0E45               	movlw	69
  3889   0020D8  6E91               	movwf	145,c	;volatile
  3890   0020DA                     
  3891                           ; BSR set to: 55
  3892   0020DA  9FE0               	bcf	224,7,b	;volatile
  3893   0020DC                     
  3894                           ; BSR set to: 55
  3895   0020DC  C0B3  F034         	movff	__uCANTxHndls+2,__uCAN_ret
  3896   0020E0  EF74  F010         	goto	l200
  3897   0020E4                     l7146:
  3898                           
  3899                           ; BSR set to: 55
  3900   0020E4  0E00               	movlw	0
  3901   0020E6  6E34               	movwf	__uCAN_ret^0,c
  3902   0020E8                     l200:
  3903                           
  3904                           ; BSR set to: 55
  3905   0020E8  0012               	return		;funcret
  3906   0020EA                     __end_of__CANIsPutFin:
  3907                           	callstack 0
  3908                           
  3909 ;; *************** function _CO_PDO1TXFinEvent *****************
  3910 ;; Defined at:
  3911 ;;		line 500 in file "main.c"
  3912 ;; Parameters:    Size  Location     Type
  3913 ;;		None
  3914 ;; Auto vars:     Size  Location     Type
  3915 ;;		None
  3916 ;; Return value:  Size  Location     Type
  3917 ;;                  1    wreg      void 
  3918 ;; Registers used:
  3919 ;;		None
  3920 ;; Tracked objects:
  3921 ;;		On entry : 0/0
  3922 ;;		On exit  : 0/0
  3923 ;;		Unchanged: 0/0
  3924 ;; Data sizes:     COMRAM   BANK0   BANK1   BANK2   BANK3   BANK4   BANK5   BANK6   BANK7   BANK8   BANK9  BANK10  BANK1
      +1  BANK12  BANK13  BANK14  BANK15
  3925 ;;      Params:         0       0       0       0       0       0       0       0       0       0       0       0       
      +0       0       0       0       0
  3926 ;;      Locals:         0       0       0       0       0       0       0       0       0       0       0       0       
      +0       0       0       0       0
  3927 ;;      Temps:          0       0       0       0       0       0       0       0       0       0       0       0       
      +0       0       0       0       0
  3928 ;;      Totals:         0       0       0       0       0       0       0       0       0       0       0       0       
      +0       0       0       0       0
  3929 ;;Total ram usage:        0 bytes
  3930 ;; Hardware stack levels used: 1
  3931 ;; Hardware stack levels required when called: 6
  3932 ;; This function calls:
  3933 ;;		Nothing
  3934 ;; This function is called by:
  3935 ;;		__CO_COMMTXFinEventManager
  3936 ;; This function uses a non-reentrant model
  3937 ;;
  3938                           
  3939                           	psect	text21
  3940   0024D4                     __ptext21:
  3941                           	callstack 0
  3942   0024D4                     _CO_PDO1TXFinEvent:
  3943                           	callstack 22
  3944   0024D4  0012               	return		;funcret
  3945   0024D6                     __end_of_CO_PDO1TXFinEvent:
  3946                           	callstack 0
  3947                           
  3948 ;; *************** function __CO_COMMRXEventManager *****************
  3949 ;; Defined at:
  3950 ;;		line 186 in file "CANopen/CO_COMM.c"
  3951 ;; Parameters:    Size  Location     Type
  3952 ;;		None
  3953 ;; Auto vars:     Size  Location     Type
  3954 ;;		None
  3955 ;; Return value:  Size  Location     Type
  3956 ;;                  1    wreg      void 
  3957 ;; Registers used:
  3958 ;;		wreg, fsr1l, fsr1h, fsr2l, fsr2h, status,2, status,0, tblptrl, tblptrh, tblptru, prodl, prodh, cstack
  3959 ;; Tracked objects:
  3960 ;;		On entry : 0/0
  3961 ;;		On exit  : 0/0
  3962 ;;		Unchanged: 0/0
  3963 ;; Data sizes:     COMRAM   BANK0   BANK1   BANK2   BANK3   BANK4   BANK5   BANK6   BANK7   BANK8   BANK9  BANK10  BANK1
      +1  BANK12  BANK13  BANK14  BANK15
  3964 ;;      Params:         0       0       0       0       0       0       0       0       0       0       0       0       
      +0       0       0       0       0
  3965 ;;      Locals:         0       0       0       0       0       0       0       0       0       0       0       0       
      +0       0       0       0       0
  3966 ;;      Temps:          0       0       2       0       0       0       0       0       0       0       0       0       
      +0       0       0       0       0
  3967 ;;      Totals:         0       0       2       0       0       0       0       0       0       0       0       0       
      +0       0       0       0       0
  3968 ;;Total ram usage:        2 bytes
  3969 ;; Hardware stack levels used: 1
  3970 ;; Hardware stack levels required when called: 10
  3971 ;; This function calls:
  3972 ;;		__CANIsGetReady
  3973 ;;		__CO_COMM_NMTE_RXEvent
  3974 ;;		__CO_COMM_NMT_RXEvent
  3975 ;;		__CO_COMM_PDO1_RXEvent
  3976 ;;		__CO_COMM_SDO1_RXEvent
  3977 ;;		__CO_COMM_SYNC_RXEvent
  3978 ;; This function is called by:
  3979 ;;		_CO_ProcessAllEvents
  3980 ;; This function uses a non-reentrant model
  3981 ;;
  3982                           
  3983                           	psect	text22
  3984   000E64                     __ptext22:
  3985                           	callstack 0
  3986   000E64                     __CO_COMMRXEventManager:
  3987                           	callstack 19
  3988   000E64                     
  3989                           ;CANopen/CO_COMM.c: 190:  _CANIsGetReady();
  3990   000E64  EC82  F00D         	call	__CANIsGetReady	;wreg free
  3991   000E68                     
  3992                           ;CANopen/CO_COMM.c: 194:  if (_uCO_state.bits.b0)
  3993   000E68  A02E               	btfss	__uCO_state^0,0,c
  3994   000E6A  EF39  F007         	goto	u5981
  3995   000E6E  EF3B  F007         	goto	u5980
  3996   000E72                     u5981:
  3997   000E72  EF02  F008         	goto	l347
  3998   000E76                     u5980:
  3999   000E76                     
  4000                           ;CANopen/CO_COMM.c: 195:  if (_uCAN_ret)
  4001   000E76  5034               	movf	__uCAN_ret^0,w,c
  4002   000E78  B4D8               	btfsc	status,2,c
  4003   000E7A  EF41  F007         	goto	u5991
  4004   000E7E  EF43  F007         	goto	u5990
  4005   000E82                     u5991:
  4006   000E82  EF02  F008         	goto	l347
  4007   000E86                     u5990:
  4008   000E86  EFE4  F007         	goto	l9798
  4009   000E8A                     l320:
  4010                           
  4011                           ; BSR set to: 1
  4012                           ;CANopen/CO_COMM.c: 204:       if (_net_en.bits.b0) _CO_COMM_NMT_RXEvent();
  4013   000E8A  A02C               	btfss	__net_en^0,0,c
  4014   000E8C  EF4A  F007         	goto	u6001
  4015   000E90  EF4C  F007         	goto	u6000
  4016   000E94                     u6001:
  4017   000E94  EFFF  F007         	goto	l329
  4018   000E98                     u6000:
  4019   000E98                     
  4020                           ; BSR set to: 1
  4021   000E98  ECDE  F00C         	call	__CO_COMM_NMT_RXEvent	;wreg free
  4022   000E9C  EFFF  F007         	goto	l329
  4023   000EA0                     l321:
  4024                           
  4025                           ; BSR set to: 1
  4026                           ;CANopen/CO_COMM.c: 205:       break;
  4027   000EA0  EFFF  F007         	goto	l329
  4028   000EA4                     l323:
  4029                           
  4030                           ; BSR set to: 1
  4031                           ;CANopen/CO_COMM.c: 207:       if (_net_en.bits.b1) {if (!_uCO_state.bits.b2) _CO_COMM_S
      +                          YNC_RXEvent();}
  4032   000EA4  A22C               	btfss	__net_en^0,1,c
  4033   000EA6  EF57  F007         	goto	u6011
  4034   000EAA  EF59  F007         	goto	u6010
  4035   000EAE                     u6011:
  4036   000EAE  EFFF  F007         	goto	l329
  4037   000EB2                     u6010:
  4038   000EB2                     
  4039                           ; BSR set to: 1
  4040   000EB2  B42E               	btfsc	__uCO_state^0,2,c
  4041   000EB4  EF5E  F007         	goto	u6021
  4042   000EB8  EF60  F007         	goto	u6020
  4043   000EBC                     u6021:
  4044   000EBC  EFFF  F007         	goto	l329
  4045   000EC0                     u6020:
  4046   000EC0                     
  4047                           ; BSR set to: 1
  4048   000EC0  EC38  F012         	call	__CO_COMM_SYNC_RXEvent	;wreg free
  4049   000EC4  EFFF  F007         	goto	l329
  4050   000EC8                     l326:
  4051                           
  4052                           ; BSR set to: 1
  4053                           ;CANopen/CO_COMM.c: 213:       if (_net_en.bits.b3) _CO_COMM_NMTE_RXEvent();
  4054   000EC8  A62C               	btfss	__net_en^0,3,c
  4055   000ECA  EF69  F007         	goto	u6031
  4056   000ECE  EF6B  F007         	goto	u6030
  4057   000ED2                     u6031:
  4058   000ED2  EFFF  F007         	goto	l329
  4059   000ED6                     u6030:
  4060   000ED6                     
  4061                           ; BSR set to: 1
  4062   000ED6  EC75  F010         	call	__CO_COMM_NMTE_RXEvent	;wreg free
  4063   000EDA  EFFF  F007         	goto	l329
  4064   000EDE                     l9772:
  4065                           
  4066                           ; BSR set to: 1
  4067   000EDE  5034               	movf	__uCAN_ret^0,w,c
  4068   000EE0  0B3F               	andlw	63
  4069   000EE2  6F28               	movwf	??__CO_COMMRXEventManager& (0+255),b
  4070   000EE4  6B29               	clrf	(??__CO_COMMRXEventManager+1)& (0+255),b
  4071                           
  4072                           ; Switch on 2 bytes has been partitioned into a top level switch of size 1, and 1 sub-sw
      +                          itches
  4073                           ; Switch size 1, requested type "simple"
  4074                           ; Number of cases is 1, Range of values is 0 to 0
  4075                           ; switch strategies available:
  4076                           ; Name         Instructions Cycles
  4077                           ; simple_byte            4     3 (average)
  4078                           ;	Chosen strategy is simple_byte
  4079   000EE6  5129               	movf	(??__CO_COMMRXEventManager+1)& (0+255),w,b
  4080   000EE8  0A00               	xorlw	0	; case 0
  4081   000EEA  B4D8               	btfsc	status,2,c
  4082   000EEC  EF7A  F007         	goto	l10490
  4083   000EF0  EFFF  F007         	goto	l329
  4084   000EF4                     l10490:
  4085                           
  4086                           ; BSR set to: 1
  4087                           ; Switch size 1, requested type "simple"
  4088                           ; Number of cases is 3, Range of values is 1 to 4
  4089                           ; switch strategies available:
  4090                           ; Name         Instructions Cycles
  4091                           ; simple_byte           10     6 (average)
  4092                           ;	Chosen strategy is simple_byte
  4093   000EF4  5128               	movf	??__CO_COMMRXEventManager& (0+255),w,b
  4094   000EF6  0A01               	xorlw	1	; case 1
  4095   000EF8  B4D8               	btfsc	status,2,c
  4096   000EFA  EF45  F007         	goto	l320
  4097   000EFE  0A03               	xorlw	3	; case 2
  4098   000F00  B4D8               	btfsc	status,2,c
  4099   000F02  EF52  F007         	goto	l323
  4100   000F06  0A06               	xorlw	6	; case 4
  4101   000F08  B4D8               	btfsc	status,2,c
  4102   000F0A  EF64  F007         	goto	l326
  4103   000F0E  EFFF  F007         	goto	l329
  4104   000F12                     l330:
  4105                           
  4106                           ; BSR set to: 1
  4107                           ;CANopen/CO_COMM.c: 224:     if (!_uCO_state.bits.b2)
  4108   000F12  B42E               	btfsc	__uCO_state^0,2,c
  4109   000F14  EF8E  F007         	goto	u6041
  4110   000F18  EF90  F007         	goto	u6040
  4111   000F1C                     u6041:
  4112   000F1C  EFFF  F007         	goto	l329
  4113   000F20                     u6040:
  4114   000F20  EF9D  F007         	goto	l9780
  4115   000F24                     l333:
  4116                           
  4117                           ; BSR set to: 1
  4118                           ;CANopen/CO_COMM.c: 229:        if (_sdo_en.bits.b0) _CO_COMM_SDO1_RXEvent();
  4119   000F24  A02B               	btfss	__sdo_en^0,0,c
  4120   000F26  EF97  F007         	goto	u6051
  4121   000F2A  EF99  F007         	goto	u6050
  4122   000F2E                     u6051:
  4123   000F2E  EFFF  F007         	goto	l329
  4124   000F32                     u6050:
  4125   000F32                     
  4126                           ; BSR set to: 1
  4127   000F32  EC0F  F000         	call	__CO_COMM_SDO1_RXEvent	;wreg free
  4128   000F36  EFFF  F007         	goto	l329
  4129   000F3A                     l9780:
  4130                           
  4131                           ; BSR set to: 1
  4132   000F3A  5034               	movf	__uCAN_ret^0,w,c
  4133   000F3C  0B3F               	andlw	63
  4134   000F3E  6F28               	movwf	??__CO_COMMRXEventManager& (0+255),b
  4135   000F40  6B29               	clrf	(??__CO_COMMRXEventManager+1)& (0+255),b
  4136                           
  4137                           ; Switch on 2 bytes has been partitioned into a top level switch of size 1, and 1 sub-sw
      +                          itches
  4138                           ; Switch size 1, requested type "simple"
  4139                           ; Number of cases is 1, Range of values is 0 to 0
  4140                           ; switch strategies available:
  4141                           ; Name         Instructions Cycles
  4142                           ; simple_byte            4     3 (average)
  4143                           ;	Chosen strategy is simple_byte
  4144   000F42  5129               	movf	(??__CO_COMMRXEventManager+1)& (0+255),w,b
  4145   000F44  0A00               	xorlw	0	; case 0
  4146   000F46  B4D8               	btfsc	status,2,c
  4147   000F48  EFA8  F007         	goto	l10492
  4148   000F4C  EFFF  F007         	goto	l329
  4149   000F50                     l10492:
  4150                           
  4151                           ; BSR set to: 1
  4152                           ; Switch size 1, requested type "simple"
  4153                           ; Number of cases is 1, Range of values is 0 to 0
  4154                           ; switch strategies available:
  4155                           ; Name         Instructions Cycles
  4156                           ; simple_byte            4     3 (average)
  4157                           ;	Chosen strategy is simple_byte
  4158   000F50  5128               	movf	??__CO_COMMRXEventManager& (0+255),w,b
  4159   000F52  0A00               	xorlw	0	; case 0
  4160   000F54  B4D8               	btfsc	status,2,c
  4161   000F56  EF92  F007         	goto	l333
  4162   000F5A  EFFF  F007         	goto	l329
  4163   000F5E                     l337:
  4164                           
  4165                           ; BSR set to: 1
  4166                           ;CANopen/CO_COMM.c: 250:     if (!_uCO_state.bits.b2)
  4167   000F5E  B42E               	btfsc	__uCO_state^0,2,c
  4168   000F60  EFB4  F007         	goto	u6061
  4169   000F64  EFB6  F007         	goto	u6060
  4170   000F68                     u6061:
  4171   000F68  EFFF  F007         	goto	l329
  4172   000F6C                     u6060:
  4173   000F6C                     
  4174                           ; BSR set to: 1
  4175                           ;CANopen/CO_COMM.c: 251:     if (_uCO_state.bits.b1)
  4176   000F6C  A22E               	btfss	__uCO_state^0,1,c
  4177   000F6E  EFBB  F007         	goto	u6071
  4178   000F72  EFBD  F007         	goto	u6070
  4179   000F76                     u6071:
  4180   000F76  EFFF  F007         	goto	l329
  4181   000F7A                     u6070:
  4182   000F7A  EFD2  F007         	goto	l9794
  4183   000F7E                     l341:
  4184                           
  4185                           ; BSR set to: 1
  4186                           ;CANopen/CO_COMM.c: 256:        if (_rpdo_en.bits.b0) {if (!_rx_pdo_flg.bits.b0){_rx_pdo
      +                          _flg.bits.b0 = 1; _CO_COMM_PDO1_RXEvent();}}
  4187   000F7E  A02A               	btfss	__rpdo_en^0,0,c
  4188   000F80  EFC4  F007         	goto	u6081
  4189   000F84  EFC6  F007         	goto	u6080
  4190   000F88                     u6081:
  4191   000F88  EFFF  F007         	goto	l329
  4192   000F8C                     u6080:
  4193   000F8C                     
  4194                           ; BSR set to: 1
  4195   000F8C  B025               	btfsc	__rx_pdo_flg^0,0,c
  4196   000F8E  EFCB  F007         	goto	u6091
  4197   000F92  EFCD  F007         	goto	u6090
  4198   000F96                     u6091:
  4199   000F96  EF50  F007         	goto	l321
  4200   000F9A                     u6090:
  4201   000F9A                     
  4202                           ; BSR set to: 1
  4203   000F9A  8025               	bsf	__rx_pdo_flg^0,0,c
  4204   000F9C                     
  4205                           ; BSR set to: 1
  4206   000F9C  ECBF  F011         	call	__CO_COMM_PDO1_RXEvent	;wreg free
  4207   000FA0  EFFF  F007         	goto	l329
  4208   000FA4                     l9794:
  4209                           
  4210                           ; BSR set to: 1
  4211   000FA4  5034               	movf	__uCAN_ret^0,w,c
  4212   000FA6  0B3F               	andlw	63
  4213   000FA8  6F28               	movwf	??__CO_COMMRXEventManager& (0+255),b
  4214   000FAA  6B29               	clrf	(??__CO_COMMRXEventManager+1)& (0+255),b
  4215                           
  4216                           ; Switch on 2 bytes has been partitioned into a top level switch of size 1, and 1 sub-sw
      +                          itches
  4217                           ; Switch size 1, requested type "simple"
  4218                           ; Number of cases is 1, Range of values is 0 to 0
  4219                           ; switch strategies available:
  4220                           ; Name         Instructions Cycles
  4221                           ; simple_byte            4     3 (average)
  4222                           ;	Chosen strategy is simple_byte
  4223   000FAC  5129               	movf	(??__CO_COMMRXEventManager+1)& (0+255),w,b
  4224   000FAE  0A00               	xorlw	0	; case 0
  4225   000FB0  B4D8               	btfsc	status,2,c
  4226   000FB2  EFDD  F007         	goto	l10494
  4227   000FB6  EF50  F007         	goto	l321
  4228   000FBA                     l10494:
  4229                           
  4230                           ; BSR set to: 1
  4231                           ; Switch size 1, requested type "simple"
  4232                           ; Number of cases is 1, Range of values is 0 to 0
  4233                           ; switch strategies available:
  4234                           ; Name         Instructions Cycles
  4235                           ; simple_byte            4     3 (average)
  4236                           ;	Chosen strategy is simple_byte
  4237   000FBA  5128               	movf	??__CO_COMMRXEventManager& (0+255),w,b
  4238   000FBC  0A00               	xorlw	0	; case 0
  4239   000FBE  B4D8               	btfsc	status,2,c
  4240   000FC0  EFBF  F007         	goto	l341
  4241   000FC4  EF50  F007         	goto	l321
  4242   000FC8                     l9798:
  4243   000FC8  5034               	movf	__uCAN_ret^0,w,c
  4244   000FCA  0BC0               	andlw	192
  4245   000FCC  0101               	movlb	1	; () banked
  4246   000FCE  6F28               	movwf	??__CO_COMMRXEventManager& (0+255),b
  4247   000FD0  6B29               	clrf	(??__CO_COMMRXEventManager+1)& (0+255),b
  4248                           
  4249                           ; Switch on 2 bytes has been partitioned into a top level switch of size 1, and 1 sub-sw
      +                          itches
  4250                           ; Switch size 1, requested type "simple"
  4251                           ; Number of cases is 1, Range of values is 0 to 0
  4252                           ; switch strategies available:
  4253                           ; Name         Instructions Cycles
  4254                           ; simple_byte            4     3 (average)
  4255                           ;	Chosen strategy is simple_byte
  4256   000FD2  5129               	movf	(??__CO_COMMRXEventManager+1)& (0+255),w,b
  4257   000FD4  0A00               	xorlw	0	; case 0
  4258   000FD6  B4D8               	btfsc	status,2,c
  4259   000FD8  EFF0  F007         	goto	l10496
  4260   000FDC  EFFF  F007         	goto	l329
  4261   000FE0                     l10496:
  4262                           
  4263                           ; BSR set to: 1
  4264                           ; Switch size 1, requested type "simple"
  4265                           ; Number of cases is 3, Range of values is 0 to 128
  4266                           ; switch strategies available:
  4267                           ; Name         Instructions Cycles
  4268                           ; simple_byte           10     6 (average)
  4269                           ;	Chosen strategy is simple_byte
  4270   000FE0  5128               	movf	??__CO_COMMRXEventManager& (0+255),w,b
  4271   000FE2  0A00               	xorlw	0	; case 0
  4272   000FE4  B4D8               	btfsc	status,2,c
  4273   000FE6  EF6F  F007         	goto	l9772
  4274   000FEA  0A40               	xorlw	64	; case 64
  4275   000FEC  B4D8               	btfsc	status,2,c
  4276   000FEE  EF89  F007         	goto	l330
  4277   000FF2  0AC0               	xorlw	192	; case 128
  4278   000FF4  B4D8               	btfsc	status,2,c
  4279   000FF6  EFAF  F007         	goto	l337
  4280   000FFA  EFFF  F007         	goto	l329
  4281   000FFE                     l329:
  4282                           
  4283                           ;CANopen/CO_COMM.c: 300:   RXB0CONbits.RXFUL = 0; PIR5bits.RXB1IF = 0;;
  4284   000FFE  9E80               	bcf	128,7,c	;volatile
  4285   001000  0139               	movlb	57	; () banked
  4286   001002  93A5               	bcf	165,1,b	;volatile
  4287   001004                     l347:
  4288   001004  0012               	return		;funcret
  4289   001006                     __end_of__CO_COMMRXEventManager:
  4290                           	callstack 0
  4291                           
  4292 ;; *************** function __CO_COMM_SYNC_RXEvent *****************
  4293 ;; Defined at:
  4294 ;;		line 134 in file "CANopen/CO_SYNC.c"
  4295 ;; Parameters:    Size  Location     Type
  4296 ;;		None
  4297 ;; Auto vars:     Size  Location     Type
  4298 ;;		None
  4299 ;; Return value:  Size  Location     Type
  4300 ;;                  1    wreg      void 
  4301 ;; Registers used:
  4302 ;;		wreg, status,2, status,0, cstack
  4303 ;; Tracked objects:
  4304 ;;		On entry : 0/0
  4305 ;;		On exit  : 0/0
  4306 ;;		Unchanged: 0/0
  4307 ;; Data sizes:     COMRAM   BANK0   BANK1   BANK2   BANK3   BANK4   BANK5   BANK6   BANK7   BANK8   BANK9  BANK10  BANK1
      +1  BANK12  BANK13  BANK14  BANK15
  4308 ;;      Params:         0       0       0       0       0       0       0       0       0       0       0       0       
      +0       0       0       0       0
  4309 ;;      Locals:         0       0       0       0       0       0       0       0       0       0       0       0       
      +0       0       0       0       0
  4310 ;;      Temps:          1       0       0       0       0       0       0       0       0       0       0       0       
      +0       0       0       0       0
  4311 ;;      Totals:         1       0       0       0       0       0       0       0       0       0       0       0       
      +0       0       0       0       0
  4312 ;;Total ram usage:        1 bytes
  4313 ;; Hardware stack levels used: 1
  4314 ;; Hardware stack levels required when called: 7
  4315 ;; This function calls:
  4316 ;;		_CO_COMMSyncEvent
  4317 ;; This function is called by:
  4318 ;;		__CO_COMMRXEventManager
  4319 ;; This function uses a non-reentrant model
  4320 ;;
  4321                           
  4322                           	psect	text23
  4323   002470                     __ptext23:
  4324                           	callstack 0
  4325   002470                     __CO_COMM_SYNC_RXEvent:
  4326                           	callstack 21
  4327   002470                     
  4328                           ;CANopen/CO_SYNC.c: 137:  if (!(RXB0DLC & 0xF))
  4329   002470  006F FE14  F052    	movff	16261,??__CO_COMM_SYNC_RXEvent	;volatile
  4330   002476  0E0F               	movlw	15
  4331   002478  1652               	andwf	??__CO_COMM_SYNC_RXEvent^0,f,c
  4332   00247A  A4D8               	btfss	status,2,c
  4333   00247C  EF42  F012         	goto	u3671
  4334   002480  EF44  F012         	goto	u3670
  4335   002484                     u3671:
  4336   002484  EF46  F012         	goto	l1103
  4337   002488                     u3670:
  4338   002488                     
  4339                           ;CANopen/CO_SYNC.c: 138:  {;CANopen/CO_SYNC.c: 140:   CO_COMMSyncEvent();
  4340   002488  ECE7  F00F         	call	_CO_COMMSyncEvent	;wreg free
  4341   00248C                     l1103:
  4342   00248C  0012               	return		;funcret
  4343   00248E                     __end_of__CO_COMM_SYNC_RXEvent:
  4344                           	callstack 0
  4345                           
  4346 ;; *************** function _CO_COMMSyncEvent *****************
  4347 ;; Defined at:
  4348 ;;		line 162 in file "main.c"
  4349 ;; Parameters:    Size  Location     Type
  4350 ;;		None
  4351 ;; Auto vars:     Size  Location     Type
  4352 ;;		None
  4353 ;; Return value:  Size  Location     Type
  4354 ;;                  1    wreg      void 
  4355 ;; Registers used:
  4356 ;;		wreg, status,2, status,0
  4357 ;; Tracked objects:
  4358 ;;		On entry : 0/0
  4359 ;;		On exit  : 0/0
  4360 ;;		Unchanged: 0/0
  4361 ;; Data sizes:     COMRAM   BANK0   BANK1   BANK2   BANK3   BANK4   BANK5   BANK6   BANK7   BANK8   BANK9  BANK10  BANK1
      +1  BANK12  BANK13  BANK14  BANK15
  4362 ;;      Params:         0       0       0       0       0       0       0       0       0       0       0       0       
      +0       0       0       0       0
  4363 ;;      Locals:         0       0       0       0       0       0       0       0       0       0       0       0       
      +0       0       0       0       0
  4364 ;;      Temps:          0       0       0       0       0       0       0       0       0       0       0       0       
      +0       0       0       0       0
  4365 ;;      Totals:         0       0       0       0       0       0       0       0       0       0       0       0       
      +0       0       0       0       0
  4366 ;;Total ram usage:        0 bytes
  4367 ;; Hardware stack levels used: 1
  4368 ;; Hardware stack levels required when called: 6
  4369 ;; This function calls:
  4370 ;;		Nothing
  4371 ;; This function is called by:
  4372 ;;		__CO_COMM_SYNC_RXEvent
  4373 ;; This function uses a non-reentrant model
  4374 ;;
  4375                           
  4376                           	psect	text24
  4377   001FCE                     __ptext24:
  4378                           	callstack 0
  4379   001FCE                     _CO_COMMSyncEvent:
  4380                           	callstack 21
  4381   001FCE                     
  4382                           ;main.c: 165:  if ((uDemoSyncSet == 0) && (uDemoState.bits.b2))
  4383   001FCE  5016               	movf	_uDemoSyncSet^0,w,c
  4384   001FD0  A4D8               	btfss	status,2,c
  4385   001FD2  EFED  F00F         	goto	u3511
  4386   001FD6  EFEF  F00F         	goto	u3510
  4387   001FDA                     u3511:
  4388   001FDA  EFFA  F00F         	goto	l7076
  4389   001FDE                     u3510:
  4390   001FDE  A418               	btfss	_uDemoState^0,2,c
  4391   001FE0  EFF4  F00F         	goto	u3521
  4392   001FE4  EFF6  F00F         	goto	u3520
  4393   001FE8                     u3521:
  4394   001FE8  EFFA  F00F         	goto	l7076
  4395   001FEC                     u3520:
  4396   001FEC                     
  4397                           ;main.c: 166:  {;main.c: 168:   uDemoState.bits.b2 = 0;
  4398   001FEC  9418               	bcf	_uDemoState^0,2,c
  4399                           
  4400                           ;main.c: 169:   uDemoState.bits.b0 = 1;
  4401   001FEE  8018               	bsf	_uDemoState^0,0,c
  4402                           
  4403                           ;main.c: 170:  }
  4404   001FF0  EF16  F010         	goto	l2389
  4405   001FF4                     l7076:
  4406                           
  4407                           ;main.c: 172:  if ((uDemoSyncSet >= 1) && (uDemoSyncSet <= 240))
  4408   001FF4  5016               	movf	_uDemoSyncSet^0,w,c
  4409   001FF6  B4D8               	btfsc	status,2,c
  4410   001FF8  EF00  F010         	goto	u3531
  4411   001FFC  EF02  F010         	goto	u3530
  4412   002000                     u3531:
  4413   002000  EF16  F010         	goto	l2389
  4414   002004                     u3530:
  4415   002004  0EF1               	movlw	241
  4416   002006  6016               	cpfslt	_uDemoSyncSet^0,c
  4417   002008  EF08  F010         	goto	u3541
  4418   00200C  EF0A  F010         	goto	u3540
  4419   002010                     u3541:
  4420   002010  EF16  F010         	goto	l2389
  4421   002014                     u3540:
  4422   002014                     
  4423                           ;main.c: 173:  {;main.c: 175:   uDemoSyncCount--;
  4424   002014  0617               	decf	_uDemoSyncCount^0,f,c
  4425   002016                     
  4426                           ;main.c: 178:   if (uDemoSyncCount == 0)
  4427   002016  5017               	movf	_uDemoSyncCount^0,w,c
  4428   002018  A4D8               	btfss	status,2,c
  4429   00201A  EF11  F010         	goto	u3551
  4430   00201E  EF13  F010         	goto	u3550
  4431   002022                     u3551:
  4432   002022  EF16  F010         	goto	l2389
  4433   002026                     u3550:
  4434   002026                     
  4435                           ;main.c: 179:   {;main.c: 181:    uDemoSyncCount = uDemoSyncSet;
  4436   002026  C016  F017         	movff	_uDemoSyncSet,_uDemoSyncCount
  4437                           
  4438                           ;main.c: 184:    uDemoState.bits.b0 = 1;
  4439   00202A  8018               	bsf	_uDemoState^0,0,c
  4440   00202C                     l2389:
  4441   00202C  0012               	return		;funcret
  4442   00202E                     __end_of_CO_COMMSyncEvent:
  4443                           	callstack 0
  4444                           
  4445 ;; *************** function __CO_COMM_SDO1_RXEvent *****************
  4446 ;; Defined at:
  4447 ;;		line 468 in file "CANopen/CO_SDO1.c"
  4448 ;; Parameters:    Size  Location     Type
  4449 ;;		None
  4450 ;; Auto vars:     Size  Location     Type
  4451 ;;		None
  4452 ;; Return value:  Size  Location     Type
  4453 ;;                  1    wreg      void 
  4454 ;; Registers used:
  4455 ;;		wreg, fsr1l, fsr1h, fsr2l, fsr2h, status,2, status,0, tblptrl, tblptrh, tblptru, cstack
  4456 ;; Tracked objects:
  4457 ;;		On entry : 0/0
  4458 ;;		On exit  : 0/0
  4459 ;;		Unchanged: 0/0
  4460 ;; Data sizes:     COMRAM   BANK0   BANK1   BANK2   BANK3   BANK4   BANK5   BANK6   BANK7   BANK8   BANK9  BANK10  BANK1
      +1  BANK12  BANK13  BANK14  BANK15
  4461 ;;      Params:         0       0       0       0       0       0       0       0       0       0       0       0       
      +0       0       0       0       0
  4462 ;;      Locals:         0       0       0       0       0       0       0       0       0       0       0       0       
      +0       0       0       0       0
  4463 ;;      Temps:          0       0       2       0       0       0       0       0       0       0       0       0       
      +0       0       0       0       0
  4464 ;;      Totals:         0       0       2       0       0       0       0       0       0       0       0       0       
      +0       0       0       0       0
  4465 ;;Total ram usage:        2 bytes
  4466 ;; Hardware stack levels used: 1
  4467 ;; Hardware stack levels required when called: 8
  4468 ;; This function calls:
  4469 ;;		__CO_DictObjectDecode
  4470 ;;		__CO_DictObjectRead
  4471 ;;		__CO_DictObjectWrite
  4472 ;; This function is called by:
  4473 ;;		__CO_COMMRXEventManager
  4474 ;; This function uses a non-reentrant model
  4475 ;;
  4476                           
  4477                           	psect	text25
  4478   00001E                     __ptext25:
  4479                           	callstack 0
  4480   00001E                     __CO_COMM_SDO1_RXEvent:
  4481                           	callstack 20
  4482   00001E                     
  4483                           ;CANopen/CO_SDO1.c: 471:  if ((RXB0DLC & 0xF) == 8)
  4484   00001E  5085               	movf	133,w,c	;volatile
  4485   000020  0B0F               	andlw	15
  4486   000022  0A08               	xorlw	8
  4487   000024  A4D8               	btfss	status,2,c
  4488   000026  EF17  F000         	goto	u5741
  4489   00002A  EF19  F000         	goto	u5740
  4490   00002E                     u5741:
  4491   00002E  EFD1  F002         	goto	l1008
  4492   000032                     u5740:
  4493   000032                     
  4494                           ;CANopen/CO_SDO1.c: 472:  {;CANopen/CO_SDO1.c: 474:   _uSDO1ACode = E_SUCCESS;
  4495   000032  0E00               	movlw	0
  4496   000034  6E1C               	movwf	__uSDO1ACode^0,c
  4497   000036                     
  4498                           ;CANopen/CO_SDO1.c: 477:   _uSDO1Ctl.byte = RXB0D0;
  4499   000036  006F FE18  F01B    	movff	16262,__uSDO1Ctl	;volatile
  4500                           
  4501                           ;CANopen/CO_SDO1.c: 479:   switch(_uSDO1Ctl.byte & 0xE0)
  4502   00003C  EFAE  F002         	goto	l9728
  4503   000040                     l1004:
  4504                           
  4505                           ; BSR set to: 1
  4506                           ;CANopen/CO_SDO1.c: 483:     if (_uSDO1State.bits.start)
  4507   000040  AA1D               	btfss	__uSDO1State^0,5,c
  4508   000042  EF25  F000         	goto	u5751
  4509   000046  EF27  F000         	goto	u5750
  4510   00004A                     u5751:
  4511   00004A  EFD1  F002         	goto	l1008
  4512   00004E                     u5750:
  4513   00004E                     
  4514                           ; BSR set to: 1
  4515                           ;CANopen/CO_SDO1.c: 484:     if (_uSDO1State.bits.dnld)
  4516   00004E  AC1D               	btfss	__uSDO1State^0,6,c
  4517   000050  EF2C  F000         	goto	u5761
  4518   000054  EF2E  F000         	goto	u5760
  4519   000058                     u5761:
  4520   000058  EFD1  F002         	goto	l1008
  4521   00005C                     u5760:
  4522   00005C                     
  4523                           ; BSR set to: 1
  4524                           ;CANopen/CO_SDO1.c: 485:     {;CANopen/CO_SDO1.c: 487:      if ((_uSDO1State.byte ^ _uSD
      +                          O1Ctl.byte) & 0x10)
  4525   00005C  501D               	movf	__uSDO1State^0,w,c
  4526   00005E  181B               	xorwf	__uSDO1Ctl^0,w,c
  4527   000060  6F26               	movwf	??__CO_COMM_SDO1_RXEvent& (0+255),b
  4528   000062  A926               	btfss	??__CO_COMM_SDO1_RXEvent& (0+255),4,b
  4529   000064  EF36  F000         	goto	u5771
  4530   000068  EF38  F000         	goto	u5770
  4531   00006C                     u5771:
  4532   00006C  EF41  F000         	goto	l9536
  4533   000070                     u5770:
  4534   000070                     l9530:
  4535                           
  4536                           ; BSR set to: 1
  4537                           ;CANopen/CO_SDO1.c: 488:      {;CANopen/CO_SDO1.c: 490:       _uSDO1State.byte = 0;
  4538   000070  0E00               	movlw	0
  4539   000072  6E1D               	movwf	__uSDO1State^0,c
  4540                           
  4541                           ;CANopen/CO_SDO1.c: 493:       _uSDO1ACode = E_TOGGLE;
  4542   000074  0E01               	movlw	1
  4543   000076  6E1C               	movwf	__uSDO1ACode^0,c
  4544   000078                     l9532:
  4545                           
  4546                           ;CANopen/CO_SDO1.c: 494:       _tx_sdo_que.bits.b0 = 1;
  4547   000078  8027               	bsf	__tx_sdo_que^0,0,c
  4548   00007A  EFD1  F002         	goto	l1008
  4549   00007E                     l9534:
  4550                           
  4551                           ; BSR set to: 1
  4552                           ;CANopen/CO_SDO1.c: 495:       return;
  4553   00007E  EFD1  F002         	goto	l1008
  4554   000082                     l9536:
  4555                           
  4556                           ; BSR set to: 1
  4557                           ;CANopen/CO_SDO1.c: 499:      *((_DATA7*)(_uSDO1RxBuf + _uSDO1Dict.reqOffst)) = *((_DATA
      +                          7*)((&RXB0D0) + 1));
  4558   000082  EE2F F387          	lfsr	2,16263
  4559   000086  0EC8               	movlw	low __uSDO1RxBuf
  4560   000088  243B               	addwf	(__uSDO1Dict+4)^0,w,c
  4561   00008A  6EE1               	movwf	fsr1l,c
  4562   00008C  0E00               	movlw	high __uSDO1RxBuf
  4563   00008E  203C               	addwfc	(__uSDO1Dict+5)^0,w,c
  4564   000090  6EE2               	movwf	fsr1h,c
  4565   000092  0E06               	movlw	6
  4566   000094                     u5781:
  4567   000094  006F FF6F FFE3     	movff	plusw2,plusw1
  4568   00009A  06E8               	decf	wreg,f,c
  4569   00009C  E2FB               	bc	u5781
  4570   00009E                     
  4571                           ; BSR set to: 1
  4572                           ;CANopen/CO_SDO1.c: 502:      _uSDO1Dict.reqOffst += (~_uSDO1Ctl.rctl.n) & 0x07;
  4573   00009E  301B               	rrcf	__uSDO1Ctl^0,w,c
  4574   0000A0  0B07               	andlw	7
  4575   0000A2  0AFF               	xorlw	255
  4576   0000A4  6F26               	movwf	??__CO_COMM_SDO1_RXEvent& (0+255),b
  4577   0000A6  0E07               	movlw	7
  4578   0000A8  1726               	andwf	??__CO_COMM_SDO1_RXEvent& (0+255),f,b
  4579   0000AA  5126               	movf	??__CO_COMM_SDO1_RXEvent& (0+255),w,b
  4580   0000AC  263B               	addwf	(__uSDO1Dict+4)^0,f,c
  4581   0000AE  0E00               	movlw	0
  4582   0000B0  223C               	addwfc	(__uSDO1Dict+5)^0,f,c
  4583   0000B2                     
  4584                           ; BSR set to: 1
  4585                           ;CANopen/CO_SDO1.c: 505:      if (_uSDO1Dict.reqOffst > _uSDO1Dict.len)
  4586   0000B2  503B               	movf	(__uSDO1Dict+4)^0,w,c
  4587   0000B4  5C41               	subwf	(__uSDO1Dict+10)^0,w,c
  4588   0000B6  503C               	movf	(__uSDO1Dict+5)^0,w,c
  4589   0000B8  5842               	subwfb	(__uSDO1Dict+11)^0,w,c
  4590   0000BA  B0D8               	btfsc	status,0,c
  4591   0000BC  EF62  F000         	goto	u5791
  4592   0000C0  EF64  F000         	goto	u5790
  4593   0000C4                     u5791:
  4594   0000C4  EF6A  F000         	goto	l9548
  4595   0000C8                     u5790:
  4596   0000C8                     
  4597                           ; BSR set to: 1
  4598                           ;CANopen/CO_SDO1.c: 506:      {;CANopen/CO_SDO1.c: 508:       _uSDO1State.byte = 0;
  4599   0000C8  0E00               	movlw	0
  4600   0000CA  6E1D               	movwf	__uSDO1State^0,c
  4601                           
  4602                           ;CANopen/CO_SDO1.c: 511:       _uSDO1ACode = E_LEN_SERVICE;
  4603   0000CC  0E0E               	movlw	14
  4604   0000CE  6E1C               	movwf	__uSDO1ACode^0,c
  4605   0000D0  EF3C  F000         	goto	l9532
  4606   0000D4                     l9548:
  4607                           
  4608                           ; BSR set to: 1
  4609                           ;CANopen/CO_SDO1.c: 517:      _uSDO1State.bits.tog = ~_uSDO1State.bits.tog;
  4610   0000D4  B81D               	btfsc	__uSDO1State^0,4,c
  4611   0000D6  EF6F  F000         	goto	u5801
  4612   0000DA  EF72  F000         	goto	u5800
  4613   0000DE                     u5801:
  4614   0000DE  0E01               	movlw	1
  4615   0000E0  EF73  F000         	goto	u5806
  4616   0000E4                     u5800:
  4617   0000E4  0E00               	movlw	0
  4618   0000E6                     u5806:
  4619   0000E6  0AFF               	xorlw	255
  4620   0000E8  6F26               	movwf	??__CO_COMM_SDO1_RXEvent& (0+255),b
  4621   0000EA  3B26               	swapf	??__CO_COMM_SDO1_RXEvent& (0+255),f,b
  4622   0000EC  501D               	movf	__uSDO1State^0,w,c
  4623   0000EE  1926               	xorwf	??__CO_COMM_SDO1_RXEvent& (0+255),w,b
  4624   0000F0  0BEF               	andlw	-17
  4625   0000F2  1926               	xorwf	??__CO_COMM_SDO1_RXEvent& (0+255),w,b
  4626   0000F4  6E1D               	movwf	__uSDO1State^0,c
  4627                           
  4628                           ;CANopen/CO_SDO1.c: 520:      _uSDO1TxBuf[0] = (_uSDO1Ctl.byte | 0x20) & 0xF0;
  4629   0000F6  501B               	movf	__uSDO1Ctl^0,w,c
  4630   0000F8  0920               	iorlw	32
  4631   0000FA  0BF0               	andlw	240
  4632   0000FC  0100               	movlb	0	; () banked
  4633   0000FE  6FDC               	movwf	__uSDO1TxBuf& (0+255),b
  4634   000100                     
  4635                           ; BSR set to: 0
  4636                           ;CANopen/CO_SDO1.c: 523:      if (_uSDO1Ctl.rctl.c)
  4637   000100  A01B               	btfss	__uSDO1Ctl^0,0,c
  4638   000102  EF85  F000         	goto	u5811
  4639   000106  EF87  F000         	goto	u5810
  4640   00010A                     u5811:
  4641   00010A  EF3C  F000         	goto	l9532
  4642   00010E                     u5810:
  4643   00010E                     
  4644                           ; BSR set to: 0
  4645                           ;CANopen/CO_SDO1.c: 524:      {;CANopen/CO_SDO1.c: 526:       _uSDO1Dict.pReqBuf = _uSDO
      +                          1RxBuf;
  4646   00010E  0EC8               	movlw	low __uSDO1RxBuf
  4647   000110  6E37               	movwf	__uSDO1Dict^0,c
  4648   000112  0E00               	movlw	high __uSDO1RxBuf
  4649   000114  6E38               	movwf	(__uSDO1Dict+1)^0,c
  4650                           
  4651                           ;CANopen/CO_SDO1.c: 529:       {uDict.obj = &_uSDO1Dict; _CO_DictObjectWrite();};
  4652   000116  0E37               	movlw	low __uSDO1Dict
  4653   000118  6E09               	movwf	_uDict^0,c
  4654   00011A  0E00               	movlw	high __uSDO1Dict
  4655   00011C  6E0A               	movwf	(_uDict+1)^0,c
  4656   00011E                     
  4657                           ; BSR set to: 0
  4658   00011E  ECCE  F00D         	call	__CO_DictObjectWrite	;wreg free
  4659   000122                     
  4660                           ;CANopen/CO_SDO1.c: 532:       _uSDO1State.byte = 0;
  4661   000122  0E00               	movlw	0
  4662   000124  6E1D               	movwf	__uSDO1State^0,c
  4663   000126                     l9558:
  4664                           
  4665                           ;CANopen/CO_SDO1.c: 535:       _uSDO1ACode = uDict.ret;
  4666   000126  C00C  F01C         	movff	_uDict+3,__uSDO1ACode
  4667   00012A  EF3C  F000         	goto	l9532
  4668   00012E                     l1013:
  4669                           
  4670                           ; BSR set to: 1
  4671                           ;CANopen/CO_SDO1.c: 551:     _uSDO1State.bits.start = 0;
  4672   00012E  9A1D               	bcf	__uSDO1State^0,5,c
  4673                           
  4674                           ;CANopen/CO_SDO1.c: 554:     _uSDO1TxBuf[1] = ((UNSIGNED16 *)(&(_uSDO1Dict.index)))->byt
      +                          es.B0.byte = RXB0D1;
  4675   000130  006F FE1C  F03D    	movff	16263,__uSDO1Dict+6	;volatile
  4676   000136  C03D  F0DD         	movff	__uSDO1Dict+6,__uSDO1TxBuf+1
  4677                           
  4678                           ;CANopen/CO_SDO1.c: 555:     _uSDO1TxBuf[2] = ((UNSIGNED16 *)(&(_uSDO1Dict.index)))->byt
      +                          es.B1.byte = RXB0D2;
  4679   00013A  006F FE20  F03E    	movff	16264,__uSDO1Dict+7	;volatile
  4680   000140  C03E  F0DE         	movff	__uSDO1Dict+7,__uSDO1TxBuf+2
  4681                           
  4682                           ;CANopen/CO_SDO1.c: 556:     _uSDO1TxBuf[3] = _uSDO1Dict.subindex = RXB0D3;
  4683   000144  006F FE24  F03F    	movff	16265,__uSDO1Dict+8	;volatile
  4684   00014A  C03F  F0DF         	movff	__uSDO1Dict+8,__uSDO1TxBuf+3
  4685   00014E                     
  4686                           ; BSR set to: 1
  4687                           ;CANopen/CO_SDO1.c: 559:     _uSDO1TxBuf[4] = 0;
  4688   00014E  0E00               	movlw	0
  4689   000150  0100               	movlb	0	; () banked
  4690   000152  6FE0               	movwf	(__uSDO1TxBuf+4)& (0+255),b
  4691                           
  4692                           ;CANopen/CO_SDO1.c: 560:     _uSDO1TxBuf[5] = 0;
  4693   000154  0E00               	movlw	0
  4694   000156  6FE1               	movwf	(__uSDO1TxBuf+5)& (0+255),b
  4695                           
  4696                           ;CANopen/CO_SDO1.c: 561:     _uSDO1TxBuf[6] = 0;
  4697   000158  0E00               	movlw	0
  4698   00015A  6FE2               	movwf	(__uSDO1TxBuf+6)& (0+255),b
  4699                           
  4700                           ;CANopen/CO_SDO1.c: 562:     _uSDO1TxBuf[7] = 0;
  4701   00015C  0E00               	movlw	0
  4702   00015E  6FE3               	movwf	(__uSDO1TxBuf+7)& (0+255),b
  4703   000160                     
  4704                           ; BSR set to: 0
  4705                           ;CANopen/CO_SDO1.c: 567:     {uDict.obj = &_uSDO1Dict; _CO_DictObjectDecode();};
  4706   000160  0E37               	movlw	low __uSDO1Dict
  4707   000162  6E09               	movwf	_uDict^0,c
  4708   000164  0E00               	movlw	high __uSDO1Dict
  4709   000166  6E0A               	movwf	(_uDict+1)^0,c
  4710   000168                     
  4711                           ; BSR set to: 0
  4712   000168  EC9F  F004         	call	__CO_DictObjectDecode	;wreg free
  4713   00016C                     
  4714                           ;CANopen/CO_SDO1.c: 570:     if (uDict.ret == E_SUCCESS)
  4715   00016C  500C               	movf	(_uDict+3)^0,w,c
  4716   00016E  A4D8               	btfss	status,2,c
  4717   000170  EFBC  F000         	goto	u5821
  4718   000174  EFBE  F000         	goto	u5820
  4719   000178                     u5821:
  4720   000178  EF43  F001         	goto	l1014
  4721   00017C                     u5820:
  4722   00017C                     
  4723                           ;CANopen/CO_SDO1.c: 571:     {;CANopen/CO_SDO1.c: 573:      if (_uSDO1Dict.ctl & WR_BIT)
  4724   00017C  A240               	btfss	(__uSDO1Dict+9)^0,1,c
  4725   00017E  EFC3  F000         	goto	u5831
  4726   000182  EFC5  F000         	goto	u5830
  4727   000186                     u5831:
  4728   000186  EF3F  F001         	goto	l9618
  4729   00018A                     u5830:
  4730   00018A                     
  4731                           ;CANopen/CO_SDO1.c: 574:      {;CANopen/CO_SDO1.c: 576:       if (_uSDO1Ctl.ictl.e)
  4732   00018A  A21B               	btfss	__uSDO1Ctl^0,1,c
  4733   00018C  EFCA  F000         	goto	u5841
  4734   000190  EFCC  F000         	goto	u5840
  4735   000194                     u5841:
  4736   000194  EF08  F001         	goto	l1016
  4737   000198                     u5840:
  4738   000198                     
  4739                           ;CANopen/CO_SDO1.c: 577:       {;CANopen/CO_SDO1.c: 579:        if (_uSDO1Ctl.ictl.s) _u
      +                          SDO1Dict.reqLen = (((~_uSDO1Ctl.ictl.n) & 0x03) + 1);
  4740   000198  A01B               	btfss	__uSDO1Ctl^0,0,c
  4741   00019A  EFD1  F000         	goto	u5851
  4742   00019E  EFD3  F000         	goto	u5850
  4743   0001A2                     u5851:
  4744   0001A2  EFE3  F000         	goto	l1017
  4745   0001A6                     u5850:
  4746   0001A6  301B               	rrcf	__uSDO1Ctl^0,w,c
  4747   0001A8  32E8               	rrcf	wreg,f,c
  4748   0001AA  0B03               	andlw	3
  4749   0001AC  0AFF               	xorlw	255
  4750   0001AE  0101               	movlb	1	; () banked
  4751   0001B0  6F26               	movwf	??__CO_COMM_SDO1_RXEvent& (0+255),b
  4752   0001B2  0E03               	movlw	3
  4753   0001B4  1726               	andwf	??__CO_COMM_SDO1_RXEvent& (0+255),f,b
  4754   0001B6  0E01               	movlw	1
  4755   0001B8  2526               	addwf	??__CO_COMM_SDO1_RXEvent& (0+255),w,b
  4756   0001BA  6E39               	movwf	(__uSDO1Dict+2)^0,c
  4757   0001BC  6A3A               	clrf	(__uSDO1Dict+3)^0,c
  4758   0001BE  0E00               	movlw	0
  4759   0001C0  223A               	addwfc	(__uSDO1Dict+3)^0,f,c
  4760   0001C2  EFE7  F000         	goto	l9578
  4761   0001C6                     l1017:
  4762   0001C6  C041  F039         	movff	__uSDO1Dict+10,__uSDO1Dict+2
  4763   0001CA  C042  F03A         	movff	__uSDO1Dict+11,__uSDO1Dict+3
  4764   0001CE                     l9578:
  4765                           
  4766                           ;CANopen/CO_SDO1.c: 584:        if (_uSDO1Dict.reqLen == _uSDO1Dict.len)
  4767   0001CE  5041               	movf	(__uSDO1Dict+10)^0,w,c
  4768   0001D0  1839               	xorwf	(__uSDO1Dict+2)^0,w,c
  4769   0001D2  E107               	bnz	u5861
  4770   0001D4  5042               	movf	(__uSDO1Dict+11)^0,w,c
  4771   0001D6  183A               	xorwf	(__uSDO1Dict+3)^0,w,c
  4772   0001D8  A4D8               	btfss	status,2,c
  4773   0001DA  EFF1  F000         	goto	u5861
  4774   0001DE  EFF3  F000         	goto	u5860
  4775   0001E2                     u5861:
  4776   0001E2  EF04  F001         	goto	l9594
  4777   0001E6                     u5860:
  4778   0001E6                     
  4779                           ;CANopen/CO_SDO1.c: 585:        {;CANopen/CO_SDO1.c: 587:         _uSDO1State.byte = 0;
  4780   0001E6  0E00               	movlw	0
  4781   0001E8  6E1D               	movwf	__uSDO1State^0,c
  4782   0001EA                     
  4783                           ;CANopen/CO_SDO1.c: 590:         _uSDO1Dict.pReqBuf = (&RXB0D0) + 4;
  4784   0001EA  0E8A               	movlw	138
  4785   0001EC  6E37               	movwf	__uSDO1Dict^0,c
  4786   0001EE  0E3F               	movlw	63
  4787   0001F0  6E38               	movwf	(__uSDO1Dict+1)^0,c
  4788   0001F2                     
  4789                           ;CANopen/CO_SDO1.c: 593:         {uDict.obj = &_uSDO1Dict; _CO_DictObjectWrite();};
  4790   0001F2  0E37               	movlw	low __uSDO1Dict
  4791   0001F4  6E09               	movwf	_uDict^0,c
  4792   0001F6  0E00               	movlw	high __uSDO1Dict
  4793   0001F8  6E0A               	movwf	(_uDict+1)^0,c
  4794   0001FA  ECCE  F00D         	call	__CO_DictObjectWrite	;wreg free
  4795   0001FE                     
  4796                           ;CANopen/CO_SDO1.c: 596:         _uSDO1TxBuf[0] = 0x60;
  4797   0001FE  0E60               	movlw	96
  4798   000200  0100               	movlb	0	; () banked
  4799   000202  6FDC               	movwf	__uSDO1TxBuf& (0+255),b
  4800   000204  EF93  F000         	goto	l9558
  4801   000208                     l9594:
  4802                           
  4803                           ;CANopen/CO_SDO1.c: 604:        {;CANopen/CO_SDO1.c: 606:         _uSDO1ACode = E_LEN_SE
      +                          RVICE;
  4804   000208  0E0E               	movlw	14
  4805   00020A  6E1C               	movwf	__uSDO1ACode^0,c
  4806   00020C  EF3C  F000         	goto	l9532
  4807   000210                     l1016:
  4808                           
  4809                           ;CANopen/CO_SDO1.c: 613:       {;CANopen/CO_SDO1.c: 615:        if (_uSDO1Ctl.ictl.s)
  4810   000210  A01B               	btfss	__uSDO1Ctl^0,0,c
  4811   000212  EF0D  F001         	goto	u5871
  4812   000216  EF0F  F001         	goto	u5870
  4813   00021A                     u5871:
  4814   00021A  EF2B  F001         	goto	l1022
  4815   00021E                     u5870:
  4816   00021E                     
  4817                           ;CANopen/CO_SDO1.c: 616:        {;CANopen/CO_SDO1.c: 618:         if (RXB0D6 | RXB0D7)
  4818   00021E  508C               	movf	140,w,c	;volatile
  4819   000220  108D               	iorwf	141,w,c	;volatile
  4820   000222  0900               	iorlw	0
  4821   000224  B4D8               	btfsc	status,2,c
  4822   000226  EF17  F001         	goto	u5881
  4823   00022A  EF19  F001         	goto	u5880
  4824   00022E                     u5881:
  4825   00022E  EF1B  F001         	goto	l9606
  4826   000232                     u5880:
  4827   000232  EF04  F001         	goto	l9594
  4828   000236                     l9606:
  4829                           
  4830                           ;CANopen/CO_SDO1.c: 627:         if (*((unsigned int *)((&RXB0D0) + 4)) != _uSDO1Dict.le
      +                          n)
  4831   000236  EE2F F38A          	lfsr	2,16266
  4832   00023A  50DE               	movf	postinc2,w,c
  4833   00023C  1841               	xorwf	(__uSDO1Dict+10)^0,w,c
  4834   00023E  E109               	bnz	u5890
  4835   000240  50DE               	movf	postinc2,w,c
  4836   000242  1842               	xorwf	(__uSDO1Dict+11)^0,w,c
  4837   000244  B4D8               	btfsc	status,2,c
  4838   000246  EF27  F001         	goto	u5891
  4839   00024A  EF29  F001         	goto	u5890
  4840   00024E                     u5891:
  4841   00024E  EF2B  F001         	goto	l1022
  4842   000252                     u5890:
  4843   000252  EF04  F001         	goto	l9594
  4844   000256                     l1022:
  4845                           
  4846                           ;CANopen/CO_SDO1.c: 637:        _uSDO1Dict.reqLen = _uSDO1Dict.len;
  4847   000256  C041  F039         	movff	__uSDO1Dict+10,__uSDO1Dict+2
  4848   00025A  C042  F03A         	movff	__uSDO1Dict+11,__uSDO1Dict+3
  4849                           
  4850                           ;CANopen/CO_SDO1.c: 640:        _uSDO1State.bits.start = 1;
  4851   00025E  8A1D               	bsf	__uSDO1State^0,5,c
  4852                           
  4853                           ;CANopen/CO_SDO1.c: 641:        _uSDO1State.bits.dnld = 1;
  4854   000260  8C1D               	bsf	__uSDO1State^0,6,c
  4855                           
  4856                           ;CANopen/CO_SDO1.c: 644:        _uSDO1State.bits.tog = 0;
  4857   000262  981D               	bcf	__uSDO1State^0,4,c
  4858   000264                     
  4859                           ;CANopen/CO_SDO1.c: 647:        _uSDO1Dict.reqOffst = 0;
  4860   000264  0E00               	movlw	0
  4861   000266  6E3C               	movwf	(__uSDO1Dict+5)^0,c
  4862   000268  0E00               	movlw	0
  4863   00026A  6E3B               	movwf	(__uSDO1Dict+4)^0,c
  4864                           
  4865                           ;CANopen/CO_SDO1.c: 650:        _uSDO1Timer = 500;
  4866   00026C  0E01               	movlw	1
  4867   00026E  0100               	movlb	0	; () banked
  4868   000270  6FC1               	movwf	(__uSDO1Timer+1)& (0+255),b
  4869   000272  0EF4               	movlw	244
  4870   000274  6FC0               	movwf	__uSDO1Timer& (0+255),b
  4871                           
  4872                           ;CANopen/CO_SDO1.c: 654:        _uSDO1TxBuf[0] = 0x60;
  4873   000276  0E60               	movlw	96
  4874   000278  6FDC               	movwf	__uSDO1TxBuf& (0+255),b
  4875   00027A  EF3C  F000         	goto	l9532
  4876   00027E                     l9618:
  4877                           
  4878                           ;CANopen/CO_SDO1.c: 659:      {;CANopen/CO_SDO1.c: 661:       _uSDO1ACode = E_CANNOT_WRI
      +                          TE;
  4879   00027E  0E07               	movlw	7
  4880   000280  6E1C               	movwf	__uSDO1ACode^0,c
  4881   000282  EF3C  F000         	goto	l9532
  4882   000286                     l1014:
  4883                           
  4884                           ;CANopen/CO_SDO1.c: 668:     {;CANopen/CO_SDO1.c: 670:      _uSDO1ACode = uDict.ret;
  4885   000286  C00C  F01C         	movff	_uDict+3,__uSDO1ACode
  4886                           
  4887                           ;CANopen/CO_SDO1.c: 671:      _tx_sdo_que.bits.b0 = 1;
  4888   00028A  8027               	bsf	__tx_sdo_que^0,0,c
  4889   00028C  EFD1  F002         	goto	l1008
  4890   000290                     l1027:
  4891                           
  4892                           ; BSR set to: 1
  4893                           ;CANopen/CO_SDO1.c: 680:     _uSDO1State.bits.start = 0;
  4894   000290  9A1D               	bcf	__uSDO1State^0,5,c
  4895                           
  4896                           ;CANopen/CO_SDO1.c: 683:     _uSDO1TxBuf[1] = ((UNSIGNED16 *)(&(_uSDO1Dict.index)))->byt
      +                          es.B0.byte = RXB0D1;
  4897   000292  006F FE1C  F03D    	movff	16263,__uSDO1Dict+6	;volatile
  4898   000298  C03D  F0DD         	movff	__uSDO1Dict+6,__uSDO1TxBuf+1
  4899                           
  4900                           ;CANopen/CO_SDO1.c: 684:     _uSDO1TxBuf[2] = ((UNSIGNED16 *)(&(_uSDO1Dict.index)))->byt
      +                          es.B1.byte = RXB0D2;
  4901   00029C  006F FE20  F03E    	movff	16264,__uSDO1Dict+7	;volatile
  4902   0002A2  C03E  F0DE         	movff	__uSDO1Dict+7,__uSDO1TxBuf+2
  4903                           
  4904                           ;CANopen/CO_SDO1.c: 685:     _uSDO1TxBuf[3] = _uSDO1Dict.subindex = RXB0D3;
  4905   0002A6  006F FE24  F03F    	movff	16265,__uSDO1Dict+8	;volatile
  4906   0002AC  C03F  F0DF         	movff	__uSDO1Dict+8,__uSDO1TxBuf+3
  4907   0002B0                     
  4908                           ; BSR set to: 1
  4909                           ;CANopen/CO_SDO1.c: 688:     _uSDO1TxBuf[4] = 0;
  4910   0002B0  0E00               	movlw	0
  4911   0002B2  0100               	movlb	0	; () banked
  4912   0002B4  6FE0               	movwf	(__uSDO1TxBuf+4)& (0+255),b
  4913                           
  4914                           ;CANopen/CO_SDO1.c: 689:     _uSDO1TxBuf[5] = 0;
  4915   0002B6  0E00               	movlw	0
  4916   0002B8  6FE1               	movwf	(__uSDO1TxBuf+5)& (0+255),b
  4917                           
  4918                           ;CANopen/CO_SDO1.c: 690:     _uSDO1TxBuf[6] = 0;
  4919   0002BA  0E00               	movlw	0
  4920   0002BC  6FE2               	movwf	(__uSDO1TxBuf+6)& (0+255),b
  4921                           
  4922                           ;CANopen/CO_SDO1.c: 691:     _uSDO1TxBuf[7] = 0;
  4923   0002BE  0E00               	movlw	0
  4924   0002C0  6FE3               	movwf	(__uSDO1TxBuf+7)& (0+255),b
  4925   0002C2                     
  4926                           ; BSR set to: 0
  4927                           ;CANopen/CO_SDO1.c: 694:     {uDict.obj = &_uSDO1Dict; _CO_DictObjectDecode();};
  4928   0002C2  0E37               	movlw	low __uSDO1Dict
  4929   0002C4  6E09               	movwf	_uDict^0,c
  4930   0002C6  0E00               	movlw	high __uSDO1Dict
  4931   0002C8  6E0A               	movwf	(_uDict+1)^0,c
  4932   0002CA                     
  4933                           ; BSR set to: 0
  4934   0002CA  EC9F  F004         	call	__CO_DictObjectDecode	;wreg free
  4935   0002CE                     
  4936                           ;CANopen/CO_SDO1.c: 697:     if (uDict.ret == E_SUCCESS)
  4937   0002CE  500C               	movf	(_uDict+3)^0,w,c
  4938   0002D0  A4D8               	btfss	status,2,c
  4939   0002D2  EF6D  F001         	goto	u5901
  4940   0002D6  EF6F  F001         	goto	u5900
  4941   0002DA                     u5901:
  4942   0002DA  EF43  F001         	goto	l1014
  4943   0002DE                     u5900:
  4944   0002DE                     
  4945                           ;CANopen/CO_SDO1.c: 698:     {;CANopen/CO_SDO1.c: 700:      if (_uSDO1Dict.ctl & RD_BIT)
  4946   0002DE  A040               	btfss	(__uSDO1Dict+9)^0,0,c
  4947   0002E0  EF74  F001         	goto	u5911
  4948   0002E4  EF76  F001         	goto	u5910
  4949   0002E8                     u5911:
  4950   0002E8  EFDB  F001         	goto	l9670
  4951   0002EC                     u5910:
  4952   0002EC                     
  4953                           ;CANopen/CO_SDO1.c: 701:      {;CANopen/CO_SDO1.c: 703:       _uSDO1Dict.reqOffst = 0;
  4954   0002EC  0E00               	movlw	0
  4955   0002EE  6E3C               	movwf	(__uSDO1Dict+5)^0,c
  4956   0002F0  0E00               	movlw	0
  4957   0002F2  6E3B               	movwf	(__uSDO1Dict+4)^0,c
  4958                           
  4959                           ;CANopen/CO_SDO1.c: 706:       _uSDO1State.byte = 0;
  4960   0002F4  0E00               	movlw	0
  4961   0002F6  6E1D               	movwf	__uSDO1State^0,c
  4962   0002F8                     
  4963                           ;CANopen/CO_SDO1.c: 709:       if (_uSDO1Dict.len > 4)
  4964   0002F8  5042               	movf	(__uSDO1Dict+11)^0,w,c
  4965   0002FA  E109               	bnz	u5920
  4966   0002FC  0E05               	movlw	5
  4967   0002FE  5C41               	subwf	(__uSDO1Dict+10)^0,w,c
  4968   000300  A0D8               	btfss	status,0,c
  4969   000302  EF85  F001         	goto	u5921
  4970   000306  EF87  F001         	goto	u5920
  4971   00030A                     u5921:
  4972   00030A  EFAD  F001         	goto	l9660
  4973   00030E                     u5920:
  4974   00030E                     
  4975                           ;CANopen/CO_SDO1.c: 710:       {;CANopen/CO_SDO1.c: 712:        _uSDO1Timer = 500;
  4976   00030E  0E01               	movlw	1
  4977   000310  0100               	movlb	0	; () banked
  4978   000312  6FC1               	movwf	(__uSDO1Timer+1)& (0+255),b
  4979   000314  0EF4               	movlw	244
  4980   000316  6FC0               	movwf	__uSDO1Timer& (0+255),b
  4981   000318                     
  4982                           ; BSR set to: 0
  4983                           ;CANopen/CO_SDO1.c: 716:        _uSDO1State.bits.start = 1;
  4984   000318  8A1D               	bsf	__uSDO1State^0,5,c
  4985   00031A                     
  4986                           ; BSR set to: 0
  4987                           ;CANopen/CO_SDO1.c: 719:        _uSDO1Dict.pReqBuf = &(_uSDO1TxBuf[4]);
  4988   00031A  0EE0               	movlw	low (__uSDO1TxBuf+4)
  4989   00031C  6E37               	movwf	__uSDO1Dict^0,c
  4990   00031E  0E00               	movlw	high (__uSDO1TxBuf+4)
  4991   000320  6E38               	movwf	(__uSDO1Dict+1)^0,c
  4992   000322                     
  4993                           ; BSR set to: 0
  4994                           ;CANopen/CO_SDO1.c: 722:        _uSDO1TxBuf[4] = ((UNSIGNED16 *)(&(_uSDO1Dict.len)))->by
      +                          tes.B0.byte;
  4995   000322  C041  F0E0         	movff	__uSDO1Dict+10,__uSDO1TxBuf+4
  4996   000326                     
  4997                           ; BSR set to: 0
  4998                           ;CANopen/CO_SDO1.c: 723:        _uSDO1TxBuf[5] = ((UNSIGNED16 *)(&(_uSDO1Dict.len)))->by
      +                          tes.B1.byte;
  4999   000326  C042  F0E1         	movff	__uSDO1Dict+11,__uSDO1TxBuf+5
  5000   00032A                     
  5001                           ; BSR set to: 0
  5002                           ;CANopen/CO_SDO1.c: 726:        _uSDO1TxBuf[0] = 0x41;
  5003   00032A  0E41               	movlw	65
  5004   00032C  6FDC               	movwf	__uSDO1TxBuf& (0+255),b
  5005   00032E  EF3C  F000         	goto	l9532
  5006   000332                     l9650:
  5007                           
  5008                           ; BSR set to: 1
  5009   000332  0E4F               	movlw	79
  5010   000334  0100               	movlb	0	; () banked
  5011   000336  6FDC               	movwf	__uSDO1TxBuf& (0+255),b
  5012   000338  EFCB  F001         	goto	l1034
  5013   00033C                     l9652:
  5014                           
  5015                           ; BSR set to: 1
  5016   00033C  0E4B               	movlw	75
  5017   00033E  0100               	movlb	0	; () banked
  5018   000340  6FDC               	movwf	__uSDO1TxBuf& (0+255),b
  5019   000342  EFCB  F001         	goto	l1034
  5020   000346                     l9654:
  5021                           
  5022                           ; BSR set to: 1
  5023   000346  0E47               	movlw	71
  5024   000348  0100               	movlb	0	; () banked
  5025   00034A  6FDC               	movwf	__uSDO1TxBuf& (0+255),b
  5026   00034C  EFCB  F001         	goto	l1034
  5027   000350                     l9656:
  5028                           
  5029                           ; BSR set to: 1
  5030   000350  0E43               	movlw	67
  5031   000352  0100               	movlb	0	; () banked
  5032   000354  6FDC               	movwf	__uSDO1TxBuf& (0+255),b
  5033   000356  EFCB  F001         	goto	l1034
  5034   00035A                     l9660:
  5035   00035A  5041               	movf	(__uSDO1Dict+10)^0,w,c
  5036   00035C  0101               	movlb	1	; () banked
  5037   00035E  6F26               	movwf	??__CO_COMM_SDO1_RXEvent& (0+255),b
  5038   000360  6B27               	clrf	(??__CO_COMM_SDO1_RXEvent+1)& (0+255),b
  5039                           
  5040                           ; Switch on 2 bytes has been partitioned into a top level switch of size 1, and 1 sub-sw
      +                          itches
  5041                           ; Switch size 1, requested type "simple"
  5042                           ; Number of cases is 1, Range of values is 0 to 0
  5043                           ; switch strategies available:
  5044                           ; Name         Instructions Cycles
  5045                           ; simple_byte            4     3 (average)
  5046                           ;	Chosen strategy is simple_byte
  5047   000362  5127               	movf	(??__CO_COMM_SDO1_RXEvent+1)& (0+255),w,b
  5048   000364  0A00               	xorlw	0	; case 0
  5049   000366  B4D8               	btfsc	status,2,c
  5050   000368  EFB8  F001         	goto	l10498
  5051   00036C  EFCB  F001         	goto	l1034
  5052   000370                     l10498:
  5053                           
  5054                           ; BSR set to: 1
  5055                           ; Switch size 1, requested type "simple"
  5056                           ; Number of cases is 4, Range of values is 1 to 4
  5057                           ; switch strategies available:
  5058                           ; Name         Instructions Cycles
  5059                           ; simple_byte           13     7 (average)
  5060                           ;	Chosen strategy is simple_byte
  5061   000370  5126               	movf	??__CO_COMM_SDO1_RXEvent& (0+255),w,b
  5062   000372  0A01               	xorlw	1	; case 1
  5063   000374  B4D8               	btfsc	status,2,c
  5064   000376  EF99  F001         	goto	l9650
  5065   00037A  0A03               	xorlw	3	; case 2
  5066   00037C  B4D8               	btfsc	status,2,c
  5067   00037E  EF9E  F001         	goto	l9652
  5068   000382  0A01               	xorlw	1	; case 3
  5069   000384  B4D8               	btfsc	status,2,c
  5070   000386  EFA3  F001         	goto	l9654
  5071   00038A  0A07               	xorlw	7	; case 4
  5072   00038C  B4D8               	btfsc	status,2,c
  5073   00038E  EFA8  F001         	goto	l9656
  5074   000392  EFCB  F001         	goto	l1034
  5075   000396                     l1034:
  5076                           
  5077                           ;CANopen/CO_SDO1.c: 745:        _uSDO1Dict.reqLen = _uSDO1Dict.len;
  5078   000396  C041  F039         	movff	__uSDO1Dict+10,__uSDO1Dict+2
  5079   00039A  C042  F03A         	movff	__uSDO1Dict+11,__uSDO1Dict+3
  5080   00039E                     
  5081                           ;CANopen/CO_SDO1.c: 748:        _uSDO1Dict.pReqBuf = &(_uSDO1TxBuf[4]);
  5082   00039E  0EE0               	movlw	low (__uSDO1TxBuf+4)
  5083   0003A0  6E37               	movwf	__uSDO1Dict^0,c
  5084   0003A2  0E00               	movlw	high (__uSDO1TxBuf+4)
  5085   0003A4  6E38               	movwf	(__uSDO1Dict+1)^0,c
  5086                           
  5087                           ;CANopen/CO_SDO1.c: 751:        {uDict.obj = &_uSDO1Dict; _CO_DictObjectRead();};
  5088   0003A6  0E37               	movlw	low __uSDO1Dict
  5089   0003A8  6E09               	movwf	_uDict^0,c
  5090   0003AA  0E00               	movlw	high __uSDO1Dict
  5091   0003AC  6E0A               	movwf	(_uDict+1)^0,c
  5092   0003AE  EC38  F00A         	call	__CO_DictObjectRead	;wreg free
  5093   0003B2  EF93  F000         	goto	l9558
  5094   0003B6                     l9670:
  5095                           
  5096                           ;CANopen/CO_SDO1.c: 759:      {;CANopen/CO_SDO1.c: 761:       _uSDO1ACode = E_CANNOT_REA
      +                          D;
  5097   0003B6  0E06               	movlw	6
  5098   0003B8  6E1C               	movwf	__uSDO1ACode^0,c
  5099   0003BA  EF3C  F000         	goto	l9532
  5100   0003BE                     l1040:
  5101                           
  5102                           ; BSR set to: 1
  5103                           ;CANopen/CO_SDO1.c: 780:     if (_uSDO1State.bits.start)
  5104   0003BE  AA1D               	btfss	__uSDO1State^0,5,c
  5105   0003C0  EFE4  F001         	goto	u5931
  5106   0003C4  EFE6  F001         	goto	u5930
  5107   0003C8                     u5931:
  5108   0003C8  EFD1  F002         	goto	l1008
  5109   0003CC                     u5930:
  5110   0003CC                     
  5111                           ; BSR set to: 1
  5112                           ;CANopen/CO_SDO1.c: 781:     if (!_uSDO1State.bits.dnld)
  5113   0003CC  BC1D               	btfsc	__uSDO1State^0,6,c
  5114   0003CE  EFEB  F001         	goto	u5941
  5115   0003D2  EFED  F001         	goto	u5940
  5116   0003D6                     u5941:
  5117   0003D6  EF3F  F000         	goto	l9534
  5118   0003DA                     u5940:
  5119   0003DA                     
  5120                           ; BSR set to: 1
  5121                           ;CANopen/CO_SDO1.c: 782:     {;CANopen/CO_SDO1.c: 784:      if ((_uSDO1State.byte ^ _uSD
      +                          O1Ctl.byte) & 0x10)
  5122   0003DA  501D               	movf	__uSDO1State^0,w,c
  5123   0003DC  181B               	xorwf	__uSDO1Ctl^0,w,c
  5124   0003DE  6F26               	movwf	??__CO_COMM_SDO1_RXEvent& (0+255),b
  5125   0003E0  A926               	btfss	??__CO_COMM_SDO1_RXEvent& (0+255),4,b
  5126   0003E2  EFF5  F001         	goto	u5951
  5127   0003E6  EFF7  F001         	goto	u5950
  5128   0003EA                     u5951:
  5129   0003EA  EFF9  F001         	goto	l9684
  5130   0003EE                     u5950:
  5131   0003EE  EF38  F000         	goto	l9530
  5132   0003F2                     l9684:
  5133                           
  5134                           ; BSR set to: 1
  5135                           ;CANopen/CO_SDO1.c: 796:      _uSDO1Dict.pReqBuf = &(_uSDO1TxBuf[1]);
  5136   0003F2  0EDD               	movlw	low (__uSDO1TxBuf+1)
  5137   0003F4  6E37               	movwf	__uSDO1Dict^0,c
  5138   0003F6  0E00               	movlw	high (__uSDO1TxBuf+1)
  5139   0003F8  6E38               	movwf	(__uSDO1Dict+1)^0,c
  5140                           
  5141                           ;CANopen/CO_SDO1.c: 799:      _uSDO1BytesLeft.word = _uSDO1Dict.len - _uSDO1Dict.reqOffs
      +                          t;
  5142   0003FA  503B               	movf	(__uSDO1Dict+4)^0,w,c
  5143   0003FC  5C41               	subwf	(__uSDO1Dict+10)^0,w,c
  5144   0003FE  0100               	movlb	0	; () banked
  5145   000400  6FBE               	movwf	__uSDO1BytesLeft& (0+255),b
  5146   000402  503C               	movf	(__uSDO1Dict+5)^0,w,c
  5147   000404  5842               	subwfb	(__uSDO1Dict+11)^0,w,c
  5148   000406  6FBF               	movwf	(__uSDO1BytesLeft+1)& (0+255),b
  5149                           
  5150                           ;CANopen/CO_SDO1.c: 802:      if (_uSDO1BytesLeft.word > 7)
  5151   000408  51BF               	movf	(__uSDO1BytesLeft+1)& (0+255),w,b
  5152   00040A  E109               	bnz	u5960
  5153   00040C  0E08               	movlw	8
  5154   00040E  5DBE               	subwf	__uSDO1BytesLeft& (0+255),w,b
  5155   000410  A0D8               	btfss	status,0,c
  5156   000412  EF0D  F002         	goto	u5961
  5157   000416  EF0F  F002         	goto	u5960
  5158   00041A                     u5961:
  5159   00041A  EF17  F002         	goto	l9688
  5160   00041E                     u5960:
  5161   00041E                     
  5162                           ; BSR set to: 0
  5163                           ;CANopen/CO_SDO1.c: 803:      {;CANopen/CO_SDO1.c: 804:       _uSDO1TxBuf[0] = 0x00; _uS
      +                          DO1Dict.reqLen = 7;
  5164   00041E  0E00               	movlw	0
  5165   000420  6FDC               	movwf	__uSDO1TxBuf& (0+255),b
  5166   000422  0E00               	movlw	0
  5167   000424  6E3A               	movwf	(__uSDO1Dict+3)^0,c
  5168   000426  0E07               	movlw	7
  5169   000428  6E39               	movwf	(__uSDO1Dict+2)^0,c
  5170                           
  5171                           ;CANopen/CO_SDO1.c: 805:      }
  5172   00042A  EF84  F002         	goto	l1045
  5173   00042E                     l9688:
  5174                           
  5175                           ; BSR set to: 0
  5176                           ;CANopen/CO_SDO1.c: 807:      {;CANopen/CO_SDO1.c: 809:       _uSDO1State.byte = 0;
  5177   00042E  0E00               	movlw	0
  5178   000430  6E1D               	movwf	__uSDO1State^0,c
  5179                           
  5180                           ;CANopen/CO_SDO1.c: 811:       switch (_uSDO1BytesLeft.bytes.B0.byte)
  5181   000432  EF5A  F002         	goto	l9706
  5182   000436                     l9690:
  5183                           
  5184                           ; BSR set to: 1
  5185   000436  0E0D               	movlw	13
  5186   000438  0100               	movlb	0	; () banked
  5187   00043A  6FDC               	movwf	__uSDO1TxBuf& (0+255),b
  5188   00043C  0E00               	movlw	0
  5189   00043E  6E3A               	movwf	(__uSDO1Dict+3)^0,c
  5190   000440  0E01               	movlw	1
  5191   000442  6E39               	movwf	(__uSDO1Dict+2)^0,c
  5192   000444  EF84  F002         	goto	l1045
  5193   000448                     l9692:
  5194                           
  5195                           ; BSR set to: 1
  5196   000448  0E0B               	movlw	11
  5197   00044A  0100               	movlb	0	; () banked
  5198   00044C  6FDC               	movwf	__uSDO1TxBuf& (0+255),b
  5199   00044E  0E00               	movlw	0
  5200   000450  6E3A               	movwf	(__uSDO1Dict+3)^0,c
  5201   000452  0E02               	movlw	2
  5202   000454  6E39               	movwf	(__uSDO1Dict+2)^0,c
  5203   000456  EF84  F002         	goto	l1045
  5204   00045A                     l9694:
  5205                           
  5206                           ; BSR set to: 1
  5207   00045A  0E09               	movlw	9
  5208   00045C  0100               	movlb	0	; () banked
  5209   00045E  6FDC               	movwf	__uSDO1TxBuf& (0+255),b
  5210   000460  0E00               	movlw	0
  5211   000462  6E3A               	movwf	(__uSDO1Dict+3)^0,c
  5212   000464  0E03               	movlw	3
  5213   000466  6E39               	movwf	(__uSDO1Dict+2)^0,c
  5214   000468  EF84  F002         	goto	l1045
  5215   00046C                     l9696:
  5216                           
  5217                           ; BSR set to: 1
  5218   00046C  0E07               	movlw	7
  5219   00046E  0100               	movlb	0	; () banked
  5220   000470  6FDC               	movwf	__uSDO1TxBuf& (0+255),b
  5221   000472  0E00               	movlw	0
  5222   000474  6E3A               	movwf	(__uSDO1Dict+3)^0,c
  5223   000476  0E04               	movlw	4
  5224   000478  6E39               	movwf	(__uSDO1Dict+2)^0,c
  5225   00047A  EF84  F002         	goto	l1045
  5226   00047E                     l9698:
  5227                           
  5228                           ; BSR set to: 1
  5229   00047E  0E05               	movlw	5
  5230   000480  0100               	movlb	0	; () banked
  5231   000482  6FDC               	movwf	__uSDO1TxBuf& (0+255),b
  5232   000484  0E00               	movlw	0
  5233   000486  6E3A               	movwf	(__uSDO1Dict+3)^0,c
  5234   000488  0E05               	movlw	5
  5235   00048A  6E39               	movwf	(__uSDO1Dict+2)^0,c
  5236   00048C  EF84  F002         	goto	l1045
  5237   000490                     l9700:
  5238                           
  5239                           ; BSR set to: 1
  5240   000490  0E03               	movlw	3
  5241   000492  0100               	movlb	0	; () banked
  5242   000494  6FDC               	movwf	__uSDO1TxBuf& (0+255),b
  5243   000496  0E00               	movlw	0
  5244   000498  6E3A               	movwf	(__uSDO1Dict+3)^0,c
  5245   00049A  0E06               	movlw	6
  5246   00049C  6E39               	movwf	(__uSDO1Dict+2)^0,c
  5247   00049E  EF84  F002         	goto	l1045
  5248   0004A2                     l9702:
  5249                           
  5250                           ; BSR set to: 1
  5251   0004A2  0E01               	movlw	1
  5252   0004A4  0100               	movlb	0	; () banked
  5253   0004A6  6FDC               	movwf	__uSDO1TxBuf& (0+255),b
  5254   0004A8  0E00               	movlw	0
  5255   0004AA  6E3A               	movwf	(__uSDO1Dict+3)^0,c
  5256   0004AC  0E07               	movlw	7
  5257   0004AE  6E39               	movwf	(__uSDO1Dict+2)^0,c
  5258   0004B0  EF84  F002         	goto	l1045
  5259   0004B4                     l9706:
  5260                           
  5261                           ; BSR set to: 0
  5262   0004B4  51BE               	movf	__uSDO1BytesLeft& (0+255),w,b
  5263   0004B6  0101               	movlb	1	; () banked
  5264   0004B8  6F26               	movwf	??__CO_COMM_SDO1_RXEvent& (0+255),b
  5265   0004BA  6B27               	clrf	(??__CO_COMM_SDO1_RXEvent+1)& (0+255),b
  5266                           
  5267                           ; Switch on 2 bytes has been partitioned into a top level switch of size 1, and 1 sub-sw
      +                          itches
  5268                           ; Switch size 1, requested type "simple"
  5269                           ; Number of cases is 1, Range of values is 0 to 0
  5270                           ; switch strategies available:
  5271                           ; Name         Instructions Cycles
  5272                           ; simple_byte            4     3 (average)
  5273                           ;	Chosen strategy is simple_byte
  5274   0004BC  5127               	movf	(??__CO_COMM_SDO1_RXEvent+1)& (0+255),w,b
  5275   0004BE  0A00               	xorlw	0	; case 0
  5276   0004C0  B4D8               	btfsc	status,2,c
  5277   0004C2  EF65  F002         	goto	l10500
  5278   0004C6  EF84  F002         	goto	l1045
  5279   0004CA                     l10500:
  5280                           
  5281                           ; BSR set to: 1
  5282                           ; Switch size 1, requested type "simple"
  5283                           ; Number of cases is 7, Range of values is 1 to 7
  5284                           ; switch strategies available:
  5285                           ; Name         Instructions Cycles
  5286                           ; simple_byte           22    12 (average)
  5287                           ;	Chosen strategy is simple_byte
  5288   0004CA  5126               	movf	??__CO_COMM_SDO1_RXEvent& (0+255),w,b
  5289   0004CC  0A01               	xorlw	1	; case 1
  5290   0004CE  B4D8               	btfsc	status,2,c
  5291   0004D0  EF1B  F002         	goto	l9690
  5292   0004D4  0A03               	xorlw	3	; case 2
  5293   0004D6  B4D8               	btfsc	status,2,c
  5294   0004D8  EF24  F002         	goto	l9692
  5295   0004DC  0A01               	xorlw	1	; case 3
  5296   0004DE  B4D8               	btfsc	status,2,c
  5297   0004E0  EF2D  F002         	goto	l9694
  5298   0004E4  0A07               	xorlw	7	; case 4
  5299   0004E6  B4D8               	btfsc	status,2,c
  5300   0004E8  EF36  F002         	goto	l9696
  5301   0004EC  0A01               	xorlw	1	; case 5
  5302   0004EE  B4D8               	btfsc	status,2,c
  5303   0004F0  EF3F  F002         	goto	l9698
  5304   0004F4  0A03               	xorlw	3	; case 6
  5305   0004F6  B4D8               	btfsc	status,2,c
  5306   0004F8  EF48  F002         	goto	l9700
  5307   0004FC  0A01               	xorlw	1	; case 7
  5308   0004FE  B4D8               	btfsc	status,2,c
  5309   000500  EF51  F002         	goto	l9702
  5310   000504  EF84  F002         	goto	l1045
  5311   000508                     l1045:
  5312   000508  0100               	movlb	0	; () banked
  5313   00050A  99DC               	bcf	__uSDO1TxBuf& (0+255),4,b
  5314   00050C                     
  5315                           ; BSR set to: 0
  5316                           ;CANopen/CO_SDO1.c: 828:      {uDict.obj = &_uSDO1Dict; _CO_DictObjectRead();};
  5317   00050C  0E37               	movlw	low __uSDO1Dict
  5318   00050E  6E09               	movwf	_uDict^0,c
  5319   000510  0E00               	movlw	high __uSDO1Dict
  5320   000512  6E0A               	movwf	(_uDict+1)^0,c
  5321   000514                     
  5322                           ; BSR set to: 0
  5323   000514  EC38  F00A         	call	__CO_DictObjectRead	;wreg free
  5324   000518                     
  5325                           ;CANopen/CO_SDO1.c: 831:      _uSDO1Dict.reqOffst += _uSDO1Dict.reqLen;
  5326   000518  EE20  F039         	lfsr	2,__uSDO1Dict+2
  5327   00051C  50DE               	movf	postinc2,w,c
  5328   00051E  263B               	addwf	(__uSDO1Dict+4)^0,f,c
  5329   000520  50DD               	movf	postdec2,w,c
  5330   000522  223C               	addwfc	(__uSDO1Dict+5)^0,f,c
  5331   000524                     
  5332                           ;CANopen/CO_SDO1.c: 834:      _uSDO1State.bits.tog = ~_uSDO1State.bits.tog;
  5333   000524  B81D               	btfsc	__uSDO1State^0,4,c
  5334   000526  EF97  F002         	goto	u5971
  5335   00052A  EF9A  F002         	goto	u5970
  5336   00052E                     u5971:
  5337   00052E  0E01               	movlw	1
  5338   000530  EF9B  F002         	goto	u5976
  5339   000534                     u5970:
  5340   000534  0E00               	movlw	0
  5341   000536                     u5976:
  5342   000536  0AFF               	xorlw	255
  5343   000538  0101               	movlb	1	; () banked
  5344   00053A  6F26               	movwf	??__CO_COMM_SDO1_RXEvent& (0+255),b
  5345   00053C  3B26               	swapf	??__CO_COMM_SDO1_RXEvent& (0+255),f,b
  5346   00053E  501D               	movf	__uSDO1State^0,w,c
  5347   000540  1926               	xorwf	??__CO_COMM_SDO1_RXEvent& (0+255),w,b
  5348   000542  0BEF               	andlw	-17
  5349   000544  1926               	xorwf	??__CO_COMM_SDO1_RXEvent& (0+255),w,b
  5350   000546  6E1D               	movwf	__uSDO1State^0,c
  5351   000548  EF93  F000         	goto	l9558
  5352   00054C                     l9720:
  5353                           
  5354                           ; BSR set to: 1
  5355                           ;CANopen/CO_SDO1.c: 846:     _uSDO1State.byte = 0;
  5356   00054C  0E00               	movlw	0
  5357   00054E  6E1D               	movwf	__uSDO1State^0,c
  5358                           
  5359                           ;CANopen/CO_SDO1.c: 847:     break;
  5360   000550  EFD1  F002         	goto	l1008
  5361   000554                     l9722:
  5362                           
  5363                           ; BSR set to: 1
  5364                           ;CANopen/CO_SDO1.c: 853:     _uSDO1ACode = E_CS_CMD;
  5365   000554  0E03               	movlw	3
  5366   000556  6E1C               	movwf	__uSDO1ACode^0,c
  5367   000558  EF3C  F000         	goto	l9532
  5368   00055C                     l9728:
  5369   00055C  501B               	movf	__uSDO1Ctl^0,w,c
  5370   00055E  0BE0               	andlw	224
  5371   000560  0101               	movlb	1	; () banked
  5372   000562  6F26               	movwf	??__CO_COMM_SDO1_RXEvent& (0+255),b
  5373   000564  6B27               	clrf	(??__CO_COMM_SDO1_RXEvent+1)& (0+255),b
  5374                           
  5375                           ; Switch on 2 bytes has been partitioned into a top level switch of size 1, and 1 sub-sw
      +                          itches
  5376                           ; Switch size 1, requested type "simple"
  5377                           ; Number of cases is 1, Range of values is 0 to 0
  5378                           ; switch strategies available:
  5379                           ; Name         Instructions Cycles
  5380                           ; simple_byte            4     3 (average)
  5381                           ;	Chosen strategy is simple_byte
  5382   000566  5127               	movf	(??__CO_COMM_SDO1_RXEvent+1)& (0+255),w,b
  5383   000568  0A00               	xorlw	0	; case 0
  5384   00056A  B4D8               	btfsc	status,2,c
  5385   00056C  EFBA  F002         	goto	l10502
  5386   000570  EFAA  F002         	goto	l9722
  5387   000574                     l10502:
  5388                           
  5389                           ; BSR set to: 1
  5390                           ; Switch size 1, requested type "simple"
  5391                           ; Number of cases is 5, Range of values is 0 to 128
  5392                           ; switch strategies available:
  5393                           ; Name         Instructions Cycles
  5394                           ; simple_byte           16     9 (average)
  5395                           ;	Chosen strategy is simple_byte
  5396   000574  5126               	movf	??__CO_COMM_SDO1_RXEvent& (0+255),w,b
  5397   000576  0A00               	xorlw	0	; case 0
  5398   000578  B4D8               	btfsc	status,2,c
  5399   00057A  EF20  F000         	goto	l1004
  5400   00057E  0A20               	xorlw	32	; case 32
  5401   000580  B4D8               	btfsc	status,2,c
  5402   000582  EF97  F000         	goto	l1013
  5403   000586  0A60               	xorlw	96	; case 64
  5404   000588  B4D8               	btfsc	status,2,c
  5405   00058A  EF48  F001         	goto	l1027
  5406   00058E  0A20               	xorlw	32	; case 96
  5407   000590  B4D8               	btfsc	status,2,c
  5408   000592  EFDF  F001         	goto	l1040
  5409   000596  0AE0               	xorlw	224	; case 128
  5410   000598  B4D8               	btfsc	status,2,c
  5411   00059A  EFA6  F002         	goto	l9720
  5412   00059E  EFAA  F002         	goto	l9722
  5413   0005A2                     l1008:
  5414   0005A2  0012               	return		;funcret
  5415   0005A4                     __end_of__CO_COMM_SDO1_RXEvent:
  5416                           	callstack 0
  5417                           
  5418 ;; *************** function __CO_DictObjectWrite *****************
  5419 ;; Defined at:
  5420 ;;		line 220 in file "CANopen/CO_DICT.c"
  5421 ;; Parameters:    Size  Location     Type
  5422 ;;		None
  5423 ;; Auto vars:     Size  Location     Type
  5424 ;;		None
  5425 ;; Return value:  Size  Location     Type
  5426 ;;                  1    wreg      void 
  5427 ;; Registers used:
  5428 ;;		wreg, fsr1l, fsr1h, fsr2l, fsr2h, status,2, status,0, cstack
  5429 ;; Tracked objects:
  5430 ;;		On entry : 0/0
  5431 ;;		On exit  : 0/0
  5432 ;;		Unchanged: 0/0
  5433 ;; Data sizes:     COMRAM   BANK0   BANK1   BANK2   BANK3   BANK4   BANK5   BANK6   BANK7   BANK8   BANK9  BANK10  BANK1
      +1  BANK12  BANK13  BANK14  BANK15
  5434 ;;      Params:         0       0       0       0       0       0       0       0       0       0       0       0       
      +0       0       0       0       0
  5435 ;;      Locals:         0       0       0       0       0       0       0       0       0       0       0       0       
      +0       0       0       0       0
  5436 ;;      Temps:          2       0       0       0       0       0       0       0       0       0       0       0       
      +0       0       0       0       0
  5437 ;;      Totals:         2       0       0       0       0       0       0       0       0       0       0       0       
      +0       0       0       0       0
  5438 ;;Total ram usage:        2 bytes
  5439 ;; Hardware stack levels used: 1
  5440 ;; Hardware stack levels required when called: 7
  5441 ;; This function calls:
  5442 ;;		_CO_MEMIO_CopySram
  5443 ;; This function is called by:
  5444 ;;		__CO_COMM_SDO1_RXEvent
  5445 ;; This function uses a non-reentrant model
  5446 ;;
  5447                           
  5448                           	psect	text26
  5449   001B9C                     __ptext26:
  5450                           	callstack 0
  5451   001B9C                     __CO_DictObjectWrite:
  5452                           	callstack 20
  5453   001B9C                     
  5454                           ;CANopen/CO_DICT.c: 223:  if (uDict.obj->ctl)
  5455   001B9C  5040               	movf	(__uSDO1Dict+9)^0,w,c
  5456   001B9E  B4D8               	btfsc	status,2,c
  5457   001BA0  EFD4  F00D         	goto	u5661
  5458   001BA4  EFD6  F00D         	goto	u5660
  5459   001BA8                     u5661:
  5460   001BA8  EF15  F00E         	goto	l9476
  5461   001BAC                     u5660:
  5462   001BAC                     
  5463                           ;CANopen/CO_DICT.c: 224:  {;CANopen/CO_DICT.c: 225:   if (uDict.obj->ctl & FDEF_BIT)
  5464   001BAC  A840               	btfss	(__uSDO1Dict+9)^0,4,c
  5465   001BAE  EFDB  F00D         	goto	u5671
  5466   001BB2  EFDD  F00D         	goto	u5670
  5467   001BB6                     u5671:
  5468   001BB6  EFFF  F00D         	goto	l9474
  5469   001BBA                     u5670:
  5470   001BBA                     
  5471                           ;CANopen/CO_DICT.c: 226:   {;CANopen/CO_DICT.c: 227:    uDict.ret = E_SUCCESS;
  5472   001BBA  0E00               	movlw	0
  5473   001BBC  6E0C               	movwf	(_uDict+3)^0,c
  5474                           
  5475                           ;CANopen/CO_DICT.c: 229:    uDict.obj->p.pFunc();
  5476   001BBE  0E02               	movlw	2
  5477   001BC0  6E0B               	movwf	(_uDict+2)^0,c
  5478   001BC2  EF17  F00E         	goto	l559
  5479   001BC6                     l9466:
  5480                           
  5481                           ;CANopen/CO_DICT.c: 240:     CO_MEMIO_CopySram(uDict.obj->pReqBuf, uDict.obj->p.pRAM, uD
      +                          ict.obj->reqLen);
  5482   001BC6  0060  F027  FFD9   	movff	_uDict,fsr2l
  5483   001BCC  0060  F02B  FFDA   	movff	_uDict+1,fsr2h
  5484   001BD2  006F FF78  F120    	movff	postinc2,CO_MEMIO_CopySram@pIn
  5485   001BD8  006F FF74  F121    	movff	postdec2,CO_MEMIO_CopySram@pIn+1
  5486   001BDE  C043  F122         	movff	__uSDO1Dict+12,CO_MEMIO_CopySram@pOut
  5487   001BE2  C044  F123         	movff	__uSDO1Dict+13,CO_MEMIO_CopySram@pOut+1
  5488   001BE6  C039  F124         	movff	__uSDO1Dict+2,CO_MEMIO_CopySram@len
  5489   001BEA  C03A  F125         	movff	__uSDO1Dict+3,CO_MEMIO_CopySram@len+1
  5490   001BEE  EC03  F008         	call	_CO_MEMIO_CopySram	;wreg free
  5491                           
  5492                           ;CANopen/CO_DICT.c: 241:     break;
  5493   001BF2  EF15  F00E         	goto	l9476
  5494   001BF6                     l9468:
  5495                           
  5496                           ;CANopen/CO_DICT.c: 249:     uDict.ret = E_CANNOT_WRITE;
  5497   001BF6  0E07               	movlw	7
  5498   001BF8  6E0C               	movwf	(_uDict+3)^0,c
  5499   001BFA  EF17  F00E         	goto	l559
  5500   001BFE                     l9474:
  5501   001BFE  5040               	movf	(__uSDO1Dict+9)^0,w,c
  5502   001C00  0B07               	andlw	7
  5503   001C02  6E52               	movwf	??__CO_DictObjectWrite^0,c
  5504   001C04  6A53               	clrf	(??__CO_DictObjectWrite+1)^0,c
  5505                           
  5506                           ; Switch on 2 bytes has been partitioned into a top level switch of size 1, and 1 sub-sw
      +                          itches
  5507                           ; Switch size 1, requested type "simple"
  5508                           ; Number of cases is 1, Range of values is 0 to 0
  5509                           ; switch strategies available:
  5510                           ; Name         Instructions Cycles
  5511                           ; simple_byte            4     3 (average)
  5512                           ;	Chosen strategy is simple_byte
  5513   001C06  5053               	movf	(??__CO_DictObjectWrite+1)^0,w,c
  5514   001C08  0A00               	xorlw	0	; case 0
  5515   001C0A  B4D8               	btfsc	status,2,c
  5516   001C0C  EF0A  F00E         	goto	l10504
  5517   001C10  EFFB  F00D         	goto	l9468
  5518   001C14                     l10504:
  5519                           
  5520                           ; Switch size 1, requested type "simple"
  5521                           ; Number of cases is 2, Range of values is 2 to 3
  5522                           ; switch strategies available:
  5523                           ; Name         Instructions Cycles
  5524                           ; simple_byte            7     4 (average)
  5525                           ;	Chosen strategy is simple_byte
  5526   001C14  5052               	movf	??__CO_DictObjectWrite^0,w,c
  5527   001C16  0A02               	xorlw	2	; case 2
  5528   001C18  B4D8               	btfsc	status,2,c
  5529   001C1A  EFE3  F00D         	goto	l9466
  5530   001C1E  0A01               	xorlw	1	; case 3
  5531   001C20  B4D8               	btfsc	status,2,c
  5532   001C22  EFE3  F00D         	goto	l9466
  5533   001C26  EFFB  F00D         	goto	l9468
  5534   001C2A                     l9476:
  5535                           
  5536                           ;CANopen/CO_DICT.c: 254:  uDict.ret = E_SUCCESS;
  5537   001C2A  0E00               	movlw	0
  5538   001C2C  6E0C               	movwf	(_uDict+3)^0,c
  5539   001C2E                     l559:
  5540   001C2E  0012               	return		;funcret
  5541   001C30                     __end_of__CO_DictObjectWrite:
  5542                           	callstack 0
  5543                           
  5544 ;; *************** function __CO_DictObjectRead *****************
  5545 ;; Defined at:
  5546 ;;		line 158 in file "CANopen/CO_DICT.c"
  5547 ;; Parameters:    Size  Location     Type
  5548 ;;		None
  5549 ;; Auto vars:     Size  Location     Type
  5550 ;;		None
  5551 ;; Return value:  Size  Location     Type
  5552 ;;                  1    wreg      void 
  5553 ;; Registers used:
  5554 ;;		wreg, fsr1l, fsr1h, fsr2l, fsr2h, status,2, status,0, cstack
  5555 ;; Tracked objects:
  5556 ;;		On entry : 0/0
  5557 ;;		On exit  : 0/0
  5558 ;;		Unchanged: 0/0
  5559 ;; Data sizes:     COMRAM   BANK0   BANK1   BANK2   BANK3   BANK4   BANK5   BANK6   BANK7   BANK8   BANK9  BANK10  BANK1
      +1  BANK12  BANK13  BANK14  BANK15
  5560 ;;      Params:         0       0       0       0       0       0       0       0       0       0       0       0       
      +0       0       0       0       0
  5561 ;;      Locals:         0       0       0       0       0       0       0       0       0       0       0       0       
      +0       0       0       0       0
  5562 ;;      Temps:          2       0       0       0       0       0       0       0       0       0       0       0       
      +0       0       0       0       0
  5563 ;;      Totals:         2       0       0       0       0       0       0       0       0       0       0       0       
      +0       0       0       0       0
  5564 ;;Total ram usage:        2 bytes
  5565 ;; Hardware stack levels used: 1
  5566 ;; Hardware stack levels required when called: 7
  5567 ;; This function calls:
  5568 ;;		_CO_MEMIO_CopyRomToRam
  5569 ;;		_CO_MEMIO_CopySram
  5570 ;; This function is called by:
  5571 ;;		__CO_COMM_SDO1_RXEvent
  5572 ;; This function uses a non-reentrant model
  5573 ;;
  5574                           
  5575                           	psect	text27
  5576   001470                     __ptext27:
  5577                           	callstack 0
  5578   001470                     __CO_DictObjectRead:
  5579                           	callstack 20
  5580   001470                     
  5581                           ;CANopen/CO_DICT.c: 161:  if (uDict.obj->ctl)
  5582   001470  5040               	movf	(__uSDO1Dict+9)^0,w,c
  5583   001472  B4D8               	btfsc	status,2,c
  5584   001474  EF3E  F00A         	goto	u5641
  5585   001478  EF40  F00A         	goto	u5640
  5586   00147C                     u5641:
  5587   00147C  EFA1  F00A         	goto	l9448
  5588   001480                     u5640:
  5589   001480                     
  5590                           ;CANopen/CO_DICT.c: 162:  {;CANopen/CO_DICT.c: 164:   if (uDict.obj->ctl & FDEF_BIT)
  5591   001480  A840               	btfss	(__uSDO1Dict+9)^0,4,c
  5592   001482  EF45  F00A         	goto	u5651
  5593   001486  EF47  F00A         	goto	u5650
  5594   00148A                     u5651:
  5595   00148A  EF87  F00A         	goto	l9446
  5596   00148E                     u5650:
  5597   00148E                     
  5598                           ;CANopen/CO_DICT.c: 165:   {;CANopen/CO_DICT.c: 166:    uDict.ret = E_SUCCESS;
  5599   00148E  0E00               	movlw	0
  5600   001490  6E0C               	movwf	(_uDict+3)^0,c
  5601                           
  5602                           ;CANopen/CO_DICT.c: 168:    uDict.obj->p.pFunc();
  5603   001492  0E01               	movlw	1
  5604   001494  6E0B               	movwf	(_uDict+2)^0,c
  5605   001496  EFA3  F00A         	goto	l547
  5606   00149A                     l9436:
  5607                           
  5608                           ;CANopen/CO_DICT.c: 178:     CO_MEMIO_CopyRomToRam(uDict.obj->p.pROM + uDict.obj->reqOff
      +                          st, uDict.obj->pReqBuf, uDict.obj->reqLen);
  5609   00149A  503B               	movf	(__uSDO1Dict+4)^0,w,c
  5610   00149C  2443               	addwf	(__uSDO1Dict+12)^0,w,c
  5611   00149E  0101               	movlb	1	; () banked
  5612   0014A0  6F20               	movwf	CO_MEMIO_CopyRomToRam@pIn& (0+255),b
  5613   0014A2  503C               	movf	(__uSDO1Dict+5)^0,w,c
  5614   0014A4  2044               	addwfc	(__uSDO1Dict+13)^0,w,c
  5615   0014A6  6F21               	movwf	(CO_MEMIO_CopyRomToRam@pIn+1)& (0+255),b
  5616   0014A8  0060  F027  FFD9   	movff	_uDict,fsr2l
  5617   0014AE  0060  F02B  FFDA   	movff	_uDict+1,fsr2h
  5618   0014B4  006F FF78  F122    	movff	postinc2,CO_MEMIO_CopyRomToRam@pOut
  5619   0014BA  006F FF74  F123    	movff	postdec2,CO_MEMIO_CopyRomToRam@pOut+1
  5620   0014C0  C039  F124         	movff	__uSDO1Dict+2,CO_MEMIO_CopyRomToRam@len
  5621   0014C4  C03A  F125         	movff	__uSDO1Dict+3,CO_MEMIO_CopyRomToRam@len+1
  5622   0014C8  EC42  F009         	call	_CO_MEMIO_CopyRomToRam	;wreg free
  5623                           
  5624                           ;CANopen/CO_DICT.c: 179:     break;
  5625   0014CC  EFA1  F00A         	goto	l9448
  5626   0014D0                     l9438:
  5627                           
  5628                           ;CANopen/CO_DICT.c: 184:     CO_MEMIO_CopySram(uDict.obj->p.pRAM + uDict.obj->reqOffst, 
      +                          uDict.obj->pReqBuf, uDict.obj->reqLen);
  5629   0014D0  503B               	movf	(__uSDO1Dict+4)^0,w,c
  5630   0014D2  2443               	addwf	(__uSDO1Dict+12)^0,w,c
  5631   0014D4  0101               	movlb	1	; () banked
  5632   0014D6  6F20               	movwf	CO_MEMIO_CopySram@pIn& (0+255),b
  5633   0014D8  503C               	movf	(__uSDO1Dict+5)^0,w,c
  5634   0014DA  2044               	addwfc	(__uSDO1Dict+13)^0,w,c
  5635   0014DC  6F21               	movwf	(CO_MEMIO_CopySram@pIn+1)& (0+255),b
  5636   0014DE  0060  F027  FFD9   	movff	_uDict,fsr2l
  5637   0014E4  0060  F02B  FFDA   	movff	_uDict+1,fsr2h
  5638   0014EA  006F FF78  F122    	movff	postinc2,CO_MEMIO_CopySram@pOut
  5639   0014F0  006F FF74  F123    	movff	postdec2,CO_MEMIO_CopySram@pOut+1
  5640   0014F6  C039  F124         	movff	__uSDO1Dict+2,CO_MEMIO_CopySram@len
  5641   0014FA  C03A  F125         	movff	__uSDO1Dict+3,CO_MEMIO_CopySram@len+1
  5642   0014FE  EC03  F008         	call	_CO_MEMIO_CopySram	;wreg free
  5643                           
  5644                           ;CANopen/CO_DICT.c: 185:     break;
  5645   001502  EFA1  F00A         	goto	l9448
  5646   001506                     l9440:
  5647                           
  5648                           ;CANopen/CO_DICT.c: 193:     uDict.ret = E_CANNOT_READ;
  5649   001506  0E06               	movlw	6
  5650   001508  6E0C               	movwf	(_uDict+3)^0,c
  5651   00150A  EFA3  F00A         	goto	l547
  5652   00150E                     l9446:
  5653   00150E  5040               	movf	(__uSDO1Dict+9)^0,w,c
  5654   001510  0B07               	andlw	7
  5655   001512  6E52               	movwf	??__CO_DictObjectRead^0,c
  5656   001514  6A53               	clrf	(??__CO_DictObjectRead+1)^0,c
  5657                           
  5658                           ; Switch on 2 bytes has been partitioned into a top level switch of size 1, and 1 sub-sw
      +                          itches
  5659                           ; Switch size 1, requested type "simple"
  5660                           ; Number of cases is 1, Range of values is 0 to 0
  5661                           ; switch strategies available:
  5662                           ; Name         Instructions Cycles
  5663                           ; simple_byte            4     3 (average)
  5664                           ;	Chosen strategy is simple_byte
  5665   001516  5053               	movf	(??__CO_DictObjectRead+1)^0,w,c
  5666   001518  0A00               	xorlw	0	; case 0
  5667   00151A  B4D8               	btfsc	status,2,c
  5668   00151C  EF92  F00A         	goto	l10506
  5669   001520  EF83  F00A         	goto	l9440
  5670   001524                     l10506:
  5671                           
  5672                           ; Switch size 1, requested type "simple"
  5673                           ; Number of cases is 3, Range of values is 1 to 5
  5674                           ; switch strategies available:
  5675                           ; Name         Instructions Cycles
  5676                           ; simple_byte           10     6 (average)
  5677                           ;	Chosen strategy is simple_byte
  5678   001524  5052               	movf	??__CO_DictObjectRead^0,w,c
  5679   001526  0A01               	xorlw	1	; case 1
  5680   001528  B4D8               	btfsc	status,2,c
  5681   00152A  EF68  F00A         	goto	l9438
  5682   00152E  0A02               	xorlw	2	; case 3
  5683   001530  B4D8               	btfsc	status,2,c
  5684   001532  EF68  F00A         	goto	l9438
  5685   001536  0A06               	xorlw	6	; case 5
  5686   001538  B4D8               	btfsc	status,2,c
  5687   00153A  EF4D  F00A         	goto	l9436
  5688   00153E  EF83  F00A         	goto	l9440
  5689   001542                     l9448:
  5690                           
  5691                           ;CANopen/CO_DICT.c: 198:  uDict.ret = E_SUCCESS;
  5692   001542  0E00               	movlw	0
  5693   001544  6E0C               	movwf	(_uDict+3)^0,c
  5694   001546                     l547:
  5695   001546  0012               	return		;funcret
  5696   001548                     __end_of__CO_DictObjectRead:
  5697                           	callstack 0
  5698                           
  5699 ;; *************** function _CO_MEMIO_CopySram *****************
  5700 ;; Defined at:
  5701 ;;		line 91 in file "CANopen/CO_MEMIO.c"
  5702 ;; Parameters:    Size  Location     Type
  5703 ;;  pIn             2    0[BANK1 ] PTR unsigned char 
  5704 ;;		 -> _uSDO1Dict.p(3), _uSDO1RxBuf(20), _uSDO1TxBuf(8), RXB0D0(1), 
  5705 ;;  pOut            2    2[BANK1 ] PTR unsigned char 
  5706 ;;		 -> _uSDO1Dict.p(3), _uSDO1RxBuf(20), _uSDO1TxBuf(8), RXB0D0(1), 
  5707 ;;  len             2    4[BANK1 ] unsigned int 
  5708 ;; Auto vars:     Size  Location     Type
  5709 ;;		None
  5710 ;; Return value:  Size  Location     Type
  5711 ;;                  1    wreg      void 
  5712 ;; Registers used:
  5713 ;;		wreg, fsr1l, fsr1h, fsr2l, fsr2h, status,2, status,0
  5714 ;; Tracked objects:
  5715 ;;		On entry : 0/0
  5716 ;;		On exit  : 0/0
  5717 ;;		Unchanged: 0/0
  5718 ;; Data sizes:     COMRAM   BANK0   BANK1   BANK2   BANK3   BANK4   BANK5   BANK6   BANK7   BANK8   BANK9  BANK10  BANK1
      +1  BANK12  BANK13  BANK14  BANK15
  5719 ;;      Params:         0       0       6       0       0       0       0       0       0       0       0       0       
      +0       0       0       0       0
  5720 ;;      Locals:         0       0       0       0       0       0       0       0       0       0       0       0       
      +0       0       0       0       0
  5721 ;;      Temps:          0       0       0       0       0       0       0       0       0       0       0       0       
      +0       0       0       0       0
  5722 ;;      Totals:         0       0       6       0       0       0       0       0       0       0       0       0       
      +0       0       0       0       0
  5723 ;;Total ram usage:        6 bytes
  5724 ;; Hardware stack levels used: 1
  5725 ;; Hardware stack levels required when called: 6
  5726 ;; This function calls:
  5727 ;;		Nothing
  5728 ;; This function is called by:
  5729 ;;		__CO_DictObjectRead
  5730 ;;		__CO_DictObjectWrite
  5731 ;; This function uses a non-reentrant model
  5732 ;;
  5733                           
  5734                           	psect	text28
  5735   001006                     __ptext28:
  5736                           	callstack 0
  5737   001006                     _CO_MEMIO_CopySram:
  5738                           	callstack 20
  5739   001006                     l9350:
  5740                           
  5741                           ;CANopen/CO_MEMIO.c: 91: void CO_MEMIO_CopySram(unsigned char *pIn, unsigned char *pOut,
      +                           unsigned int len);CANopen/CO_MEMIO.c: 92: {;CANopen/CO_MEMIO.c: 93:  while (len)
  5742   001006  EFA2  F008         	goto	l9390
  5743   00100A                     l9352:
  5744                           
  5745                           ; BSR set to: 1
  5746                           ;CANopen/CO_MEMIO.c: 94:  {;CANopen/CO_MEMIO.c: 95:   if (len < 4)
  5747   00100A  5125               	movf	(CO_MEMIO_CopySram@len+1)& (0+255),w,b
  5748   00100C  E107               	bnz	u5581
  5749   00100E  0E04               	movlw	4
  5750   001010  5D24               	subwf	CO_MEMIO_CopySram@len& (0+255),w,b
  5751   001012  B0D8               	btfsc	status,0,c
  5752   001014  EF0E  F008         	goto	u5581
  5753   001018  EF10  F008         	goto	u5580
  5754   00101C                     u5581:
  5755   00101C  EF28  F008         	goto	l9362
  5756   001020                     u5580:
  5757   001020                     
  5758                           ; BSR set to: 1
  5759                           ;CANopen/CO_MEMIO.c: 96:   {;CANopen/CO_MEMIO.c: 97:    *pOut = *pIn;
  5760   001020  0060  F483  FFD9   	movff	CO_MEMIO_CopySram@pIn,fsr2l
  5761   001026  0060  F487  FFDA   	movff	CO_MEMIO_CopySram@pIn+1,fsr2h
  5762   00102C  0060  F48B  FFE1   	movff	CO_MEMIO_CopySram@pOut,fsr1l
  5763   001032  0060  F48F  FFE2   	movff	CO_MEMIO_CopySram@pOut+1,fsr1h
  5764   001038  006F FF7F FFE7     	movff	indf2,indf1
  5765   00103E                     
  5766                           ; BSR set to: 1
  5767                           ;CANopen/CO_MEMIO.c: 99:    pOut++;
  5768   00103E  4B22               	infsnz	CO_MEMIO_CopySram@pOut& (0+255),f,b
  5769   001040  2B23               	incf	(CO_MEMIO_CopySram@pOut+1)& (0+255),f,b
  5770   001042                     
  5771                           ; BSR set to: 1
  5772                           ;CANopen/CO_MEMIO.c: 100:    pIn++;
  5773   001042  4B20               	infsnz	CO_MEMIO_CopySram@pIn& (0+255),f,b
  5774   001044  2B21               	incf	(CO_MEMIO_CopySram@pIn+1)& (0+255),f,b
  5775   001046                     
  5776                           ; BSR set to: 1
  5777                           ;CANopen/CO_MEMIO.c: 101:    len--;
  5778   001046  0724               	decf	CO_MEMIO_CopySram@len& (0+255),f,b
  5779   001048  A0D8               	btfss	status,0,c
  5780   00104A  0725               	decf	(CO_MEMIO_CopySram@len+1)& (0+255),f,b
  5781                           
  5782                           ;CANopen/CO_MEMIO.c: 102:   }
  5783   00104C  EFA2  F008         	goto	l9390
  5784   001050                     l9362:
  5785                           
  5786                           ; BSR set to: 1
  5787                           ;CANopen/CO_MEMIO.c: 104:   if (len < 8)
  5788   001050  5125               	movf	(CO_MEMIO_CopySram@len+1)& (0+255),w,b
  5789   001052  E107               	bnz	u5591
  5790   001054  0E08               	movlw	8
  5791   001056  5D24               	subwf	CO_MEMIO_CopySram@len& (0+255),w,b
  5792   001058  B0D8               	btfsc	status,0,c
  5793   00105A  EF31  F008         	goto	u5591
  5794   00105E  EF33  F008         	goto	u5590
  5795   001062                     u5591:
  5796   001062  EF59  F008         	goto	l9372
  5797   001066                     u5590:
  5798   001066                     
  5799                           ; BSR set to: 1
  5800                           ;CANopen/CO_MEMIO.c: 105:   {;CANopen/CO_MEMIO.c: 106:    *((_DATA4 *)pOut) = *((_DATA4 
      +                          *)(pIn));
  5801   001066  0060  F483  FFD9   	movff	CO_MEMIO_CopySram@pIn,fsr2l
  5802   00106C  0060  F487  FFDA   	movff	CO_MEMIO_CopySram@pIn+1,fsr2h
  5803   001072  0060  F48B  FFE1   	movff	CO_MEMIO_CopySram@pOut,fsr1l
  5804   001078  0060  F48F  FFE2   	movff	CO_MEMIO_CopySram@pOut+1,fsr1h
  5805   00107E  006F FF7B FFE6     	movff	postinc2,postinc1
  5806   001084  006F FF7B FFE6     	movff	postinc2,postinc1
  5807   00108A  006F FF7B FFE6     	movff	postinc2,postinc1
  5808   001090  006F FF7B FFE6     	movff	postinc2,postinc1
  5809   001096                     
  5810                           ; BSR set to: 1
  5811                           ;CANopen/CO_MEMIO.c: 108:    pOut += 4;
  5812   001096  0E04               	movlw	4
  5813   001098  2722               	addwf	CO_MEMIO_CopySram@pOut& (0+255),f,b
  5814   00109A  0E00               	movlw	0
  5815   00109C  2323               	addwfc	(CO_MEMIO_CopySram@pOut+1)& (0+255),f,b
  5816   00109E                     
  5817                           ; BSR set to: 1
  5818                           ;CANopen/CO_MEMIO.c: 109:    pIn += 4;
  5819   00109E  0E04               	movlw	4
  5820   0010A0  2720               	addwf	CO_MEMIO_CopySram@pIn& (0+255),f,b
  5821   0010A2  0E00               	movlw	0
  5822   0010A4  2321               	addwfc	(CO_MEMIO_CopySram@pIn+1)& (0+255),f,b
  5823   0010A6                     
  5824                           ; BSR set to: 1
  5825                           ;CANopen/CO_MEMIO.c: 110:    len -= 4;
  5826   0010A6  0E04               	movlw	4
  5827   0010A8  5F24               	subwf	CO_MEMIO_CopySram@len& (0+255),f,b
  5828   0010AA  0E00               	movlw	0
  5829   0010AC  5B25               	subwfb	(CO_MEMIO_CopySram@len+1)& (0+255),f,b
  5830                           
  5831                           ;CANopen/CO_MEMIO.c: 111:   }
  5832   0010AE  EF03  F008         	goto	l9350
  5833   0010B2                     l9372:
  5834                           
  5835                           ; BSR set to: 1
  5836                           ;CANopen/CO_MEMIO.c: 113:   if (len < 16)
  5837   0010B2  5125               	movf	(CO_MEMIO_CopySram@len+1)& (0+255),w,b
  5838   0010B4  E107               	bnz	u5601
  5839   0010B6  0E10               	movlw	16
  5840   0010B8  5D24               	subwf	CO_MEMIO_CopySram@len& (0+255),w,b
  5841   0010BA  B0D8               	btfsc	status,0,c
  5842   0010BC  EF62  F008         	goto	u5601
  5843   0010C0  EF64  F008         	goto	u5600
  5844   0010C4                     u5601:
  5845   0010C4  EF84  F008         	goto	l9382
  5846   0010C8                     u5600:
  5847   0010C8                     
  5848                           ; BSR set to: 1
  5849                           ;CANopen/CO_MEMIO.c: 114:   {;CANopen/CO_MEMIO.c: 115:    *((_DATA8 *)pOut) = *((_DATA8 
      +                          *)(pIn));
  5850   0010C8  0060  F483  FFD9   	movff	CO_MEMIO_CopySram@pIn,fsr2l
  5851   0010CE  0060  F487  FFDA   	movff	CO_MEMIO_CopySram@pIn+1,fsr2h
  5852   0010D4  0060  F48B  FFE1   	movff	CO_MEMIO_CopySram@pOut,fsr1l
  5853   0010DA  0060  F48F  FFE2   	movff	CO_MEMIO_CopySram@pOut+1,fsr1h
  5854   0010E0  0E07               	movlw	7
  5855   0010E2                     u5611:
  5856   0010E2  006F FF6F FFE3     	movff	plusw2,plusw1
  5857   0010E8  06E8               	decf	wreg,f,c
  5858   0010EA  E2FB               	bc	u5611
  5859   0010EC                     
  5860                           ; BSR set to: 1
  5861                           ;CANopen/CO_MEMIO.c: 117:    pOut += 8;
  5862   0010EC  0E08               	movlw	8
  5863   0010EE  2722               	addwf	CO_MEMIO_CopySram@pOut& (0+255),f,b
  5864   0010F0  0E00               	movlw	0
  5865   0010F2  2323               	addwfc	(CO_MEMIO_CopySram@pOut+1)& (0+255),f,b
  5866   0010F4                     
  5867                           ; BSR set to: 1
  5868                           ;CANopen/CO_MEMIO.c: 118:    pIn += 8;
  5869   0010F4  0E08               	movlw	8
  5870   0010F6  2720               	addwf	CO_MEMIO_CopySram@pIn& (0+255),f,b
  5871   0010F8  0E00               	movlw	0
  5872   0010FA  2321               	addwfc	(CO_MEMIO_CopySram@pIn+1)& (0+255),f,b
  5873   0010FC                     
  5874                           ; BSR set to: 1
  5875                           ;CANopen/CO_MEMIO.c: 119:    len -= 8;
  5876   0010FC  0E08               	movlw	8
  5877   0010FE  5F24               	subwf	CO_MEMIO_CopySram@len& (0+255),f,b
  5878   001100  0E00               	movlw	0
  5879   001102  5B25               	subwfb	(CO_MEMIO_CopySram@len+1)& (0+255),f,b
  5880                           
  5881                           ;CANopen/CO_MEMIO.c: 120:   }
  5882   001104  EFA2  F008         	goto	l9390
  5883   001108                     l9382:
  5884                           
  5885                           ; BSR set to: 1
  5886                           ;CANopen/CO_MEMIO.c: 122:   {;CANopen/CO_MEMIO.c: 123:    *((_DATA16 *)pOut) = *((_DATA1
      +                          6 *)(pIn));
  5887   001108  0060  F483  FFD9   	movff	CO_MEMIO_CopySram@pIn,fsr2l
  5888   00110E  0060  F487  FFDA   	movff	CO_MEMIO_CopySram@pIn+1,fsr2h
  5889   001114  0060  F48B  FFE1   	movff	CO_MEMIO_CopySram@pOut,fsr1l
  5890   00111A  0060  F48F  FFE2   	movff	CO_MEMIO_CopySram@pOut+1,fsr1h
  5891   001120  0E0F               	movlw	15
  5892   001122                     u5621:
  5893   001122  006F FF6F FFE3     	movff	plusw2,plusw1
  5894   001128  06E8               	decf	wreg,f,c
  5895   00112A  E2FB               	bc	u5621
  5896   00112C                     
  5897                           ; BSR set to: 1
  5898                           ;CANopen/CO_MEMIO.c: 125:    pOut += 16;
  5899   00112C  0E10               	movlw	16
  5900   00112E  2722               	addwf	CO_MEMIO_CopySram@pOut& (0+255),f,b
  5901   001130  0E00               	movlw	0
  5902   001132  2323               	addwfc	(CO_MEMIO_CopySram@pOut+1)& (0+255),f,b
  5903   001134                     
  5904                           ; BSR set to: 1
  5905                           ;CANopen/CO_MEMIO.c: 126:    pIn += 16;
  5906   001134  0E10               	movlw	16
  5907   001136  2720               	addwf	CO_MEMIO_CopySram@pIn& (0+255),f,b
  5908   001138  0E00               	movlw	0
  5909   00113A  2321               	addwfc	(CO_MEMIO_CopySram@pIn+1)& (0+255),f,b
  5910   00113C                     
  5911                           ; BSR set to: 1
  5912                           ;CANopen/CO_MEMIO.c: 127:    len -= 16;
  5913   00113C  0E10               	movlw	16
  5914   00113E  5F24               	subwf	CO_MEMIO_CopySram@len& (0+255),f,b
  5915   001140  0E00               	movlw	0
  5916   001142  5B25               	subwfb	(CO_MEMIO_CopySram@len+1)& (0+255),f,b
  5917   001144                     l9390:
  5918                           
  5919                           ;CANopen/CO_MEMIO.c: 93:  while (len)
  5920   001144  0101               	movlb	1	; () banked
  5921   001146  5124               	movf	CO_MEMIO_CopySram@len& (0+255),w,b
  5922   001148  1125               	iorwf	(CO_MEMIO_CopySram@len+1)& (0+255),w,b
  5923   00114A  A4D8               	btfss	status,2,c
  5924   00114C  EFAA  F008         	goto	u5631
  5925   001150  EFAC  F008         	goto	u5630
  5926   001154                     u5631:
  5927   001154  EF05  F008         	goto	l9352
  5928   001158                     u5630:
  5929   001158                     
  5930                           ; BSR set to: 1
  5931   001158  0012               	return		;funcret
  5932   00115A                     __end_of_CO_MEMIO_CopySram:
  5933                           	callstack 0
  5934                           
  5935 ;; *************** function _CO_MEMIO_CopyRomToRam *****************
  5936 ;; Defined at:
  5937 ;;		line 153 in file "CANopen/CO_MEMIO.c"
  5938 ;; Parameters:    Size  Location     Type
  5939 ;;  pIn             2    0[BANK1 ] PTR const unsigned char 
  5940 ;;		 -> _uSDO1Dict.p(3), 
  5941 ;;  pOut            2    2[BANK1 ] PTR unsigned char 
  5942 ;;		 -> _uSDO1RxBuf(20), _uSDO1TxBuf(8), RXB0D0(1), 
  5943 ;;  len             2    4[BANK1 ] unsigned int 
  5944 ;; Auto vars:     Size  Location     Type
  5945 ;;		None
  5946 ;; Return value:  Size  Location     Type
  5947 ;;                  1    wreg      void 
  5948 ;; Registers used:
  5949 ;;		wreg, fsr1l, fsr1h, fsr2l, fsr2h, status,2, status,0
  5950 ;; Tracked objects:
  5951 ;;		On entry : 0/0
  5952 ;;		On exit  : 0/0
  5953 ;;		Unchanged: 0/0
  5954 ;; Data sizes:     COMRAM   BANK0   BANK1   BANK2   BANK3   BANK4   BANK5   BANK6   BANK7   BANK8   BANK9  BANK10  BANK1
      +1  BANK12  BANK13  BANK14  BANK15
  5955 ;;      Params:         0       0       6       0       0       0       0       0       0       0       0       0       
      +0       0       0       0       0
  5956 ;;      Locals:         0       0       0       0       0       0       0       0       0       0       0       0       
      +0       0       0       0       0
  5957 ;;      Temps:          0       0       0       0       0       0       0       0       0       0       0       0       
      +0       0       0       0       0
  5958 ;;      Totals:         0       0       6       0       0       0       0       0       0       0       0       0       
      +0       0       0       0       0
  5959 ;;Total ram usage:        6 bytes
  5960 ;; Hardware stack levels used: 1
  5961 ;; Hardware stack levels required when called: 6
  5962 ;; This function calls:
  5963 ;;		Nothing
  5964 ;; This function is called by:
  5965 ;;		__CO_DictObjectRead
  5966 ;; This function uses a non-reentrant model
  5967 ;;
  5968                           
  5969                           	psect	text29
  5970   001284                     __ptext29:
  5971                           	callstack 0
  5972   001284                     _CO_MEMIO_CopyRomToRam:
  5973                           	callstack 20
  5974   001284                     l9318:
  5975                           
  5976                           ;CANopen/CO_MEMIO.c: 153: void CO_MEMIO_CopyRomToRam(const unsigned char *pIn, unsigned 
      +                          char *pOut, unsigned int len);CANopen/CO_MEMIO.c: 154: {;CANopen/CO_MEMIO.c: 214:  while
      +                           (len)
  5977   001284  EFB8  F009         	goto	l9348
  5978   001288                     l9320:
  5979                           
  5980                           ; BSR set to: 1
  5981                           ;CANopen/CO_MEMIO.c: 215:  {;CANopen/CO_MEMIO.c: 216:   if (len < 4)
  5982   001288  5125               	movf	(CO_MEMIO_CopyRomToRam@len+1)& (0+255),w,b
  5983   00128A  E107               	bnz	u5541
  5984   00128C  0E04               	movlw	4
  5985   00128E  5D24               	subwf	CO_MEMIO_CopyRomToRam@len& (0+255),w,b
  5986   001290  B0D8               	btfsc	status,0,c
  5987   001292  EF4D  F009         	goto	u5541
  5988   001296  EF4F  F009         	goto	u5540
  5989   00129A                     u5541:
  5990   00129A  EF67  F009         	goto	l9330
  5991   00129E                     u5540:
  5992   00129E                     
  5993                           ; BSR set to: 1
  5994                           ;CANopen/CO_MEMIO.c: 217:   {;CANopen/CO_MEMIO.c: 218:    *pOut = *pIn;
  5995   00129E  0060  F483  FFD9   	movff	CO_MEMIO_CopyRomToRam@pIn,fsr2l
  5996   0012A4  0060  F487  FFDA   	movff	CO_MEMIO_CopyRomToRam@pIn+1,fsr2h
  5997   0012AA  0060  F48B  FFE1   	movff	CO_MEMIO_CopyRomToRam@pOut,fsr1l
  5998   0012B0  0060  F48F  FFE2   	movff	CO_MEMIO_CopyRomToRam@pOut+1,fsr1h
  5999   0012B6  006F FF7F FFE7     	movff	indf2,indf1
  6000   0012BC                     
  6001                           ; BSR set to: 1
  6002                           ;CANopen/CO_MEMIO.c: 220:    pOut++;
  6003   0012BC  4B22               	infsnz	CO_MEMIO_CopyRomToRam@pOut& (0+255),f,b
  6004   0012BE  2B23               	incf	(CO_MEMIO_CopyRomToRam@pOut+1)& (0+255),f,b
  6005   0012C0                     
  6006                           ; BSR set to: 1
  6007                           ;CANopen/CO_MEMIO.c: 221:    pIn++;
  6008   0012C0  4B20               	infsnz	CO_MEMIO_CopyRomToRam@pIn& (0+255),f,b
  6009   0012C2  2B21               	incf	(CO_MEMIO_CopyRomToRam@pIn+1)& (0+255),f,b
  6010   0012C4                     
  6011                           ; BSR set to: 1
  6012                           ;CANopen/CO_MEMIO.c: 222:    len--;
  6013   0012C4  0724               	decf	CO_MEMIO_CopyRomToRam@len& (0+255),f,b
  6014   0012C6  A0D8               	btfss	status,0,c
  6015   0012C8  0725               	decf	(CO_MEMIO_CopyRomToRam@len+1)& (0+255),f,b
  6016                           
  6017                           ;CANopen/CO_MEMIO.c: 223:   }
  6018   0012CA  EFB8  F009         	goto	l9348
  6019   0012CE                     l9330:
  6020                           
  6021                           ; BSR set to: 1
  6022                           ;CANopen/CO_MEMIO.c: 225:   if (len < 8)
  6023   0012CE  5125               	movf	(CO_MEMIO_CopyRomToRam@len+1)& (0+255),w,b
  6024   0012D0  E107               	bnz	u5551
  6025   0012D2  0E08               	movlw	8
  6026   0012D4  5D24               	subwf	CO_MEMIO_CopyRomToRam@len& (0+255),w,b
  6027   0012D6  B0D8               	btfsc	status,0,c
  6028   0012D8  EF70  F009         	goto	u5551
  6029   0012DC  EF72  F009         	goto	u5550
  6030   0012E0                     u5551:
  6031   0012E0  EF98  F009         	goto	l9340
  6032   0012E4                     u5550:
  6033   0012E4                     
  6034                           ; BSR set to: 1
  6035                           ;CANopen/CO_MEMIO.c: 226:   {;CANopen/CO_MEMIO.c: 227:    *((_DATA4 *)(pOut)) = *((const
      +                           _DATA4 *)pIn);
  6036   0012E4  0060  F483  FFD9   	movff	CO_MEMIO_CopyRomToRam@pIn,fsr2l
  6037   0012EA  0060  F487  FFDA   	movff	CO_MEMIO_CopyRomToRam@pIn+1,fsr2h
  6038   0012F0  0060  F48B  FFE1   	movff	CO_MEMIO_CopyRomToRam@pOut,fsr1l
  6039   0012F6  0060  F48F  FFE2   	movff	CO_MEMIO_CopyRomToRam@pOut+1,fsr1h
  6040   0012FC  006F FF7B FFE6     	movff	postinc2,postinc1
  6041   001302  006F FF7B FFE6     	movff	postinc2,postinc1
  6042   001308  006F FF7B FFE6     	movff	postinc2,postinc1
  6043   00130E  006F FF7B FFE6     	movff	postinc2,postinc1
  6044   001314                     
  6045                           ; BSR set to: 1
  6046                           ;CANopen/CO_MEMIO.c: 229:    pOut += 4;
  6047   001314  0E04               	movlw	4
  6048   001316  2722               	addwf	CO_MEMIO_CopyRomToRam@pOut& (0+255),f,b
  6049   001318  0E00               	movlw	0
  6050   00131A  2323               	addwfc	(CO_MEMIO_CopyRomToRam@pOut+1)& (0+255),f,b
  6051   00131C                     
  6052                           ; BSR set to: 1
  6053                           ;CANopen/CO_MEMIO.c: 230:    pIn += 4;
  6054   00131C  0E04               	movlw	4
  6055   00131E  2720               	addwf	CO_MEMIO_CopyRomToRam@pIn& (0+255),f,b
  6056   001320  0E00               	movlw	0
  6057   001322  2321               	addwfc	(CO_MEMIO_CopyRomToRam@pIn+1)& (0+255),f,b
  6058   001324                     
  6059                           ; BSR set to: 1
  6060                           ;CANopen/CO_MEMIO.c: 231:    len -= 4;
  6061   001324  0E04               	movlw	4
  6062   001326  5F24               	subwf	CO_MEMIO_CopyRomToRam@len& (0+255),f,b
  6063   001328  0E00               	movlw	0
  6064   00132A  5B25               	subwfb	(CO_MEMIO_CopyRomToRam@len+1)& (0+255),f,b
  6065                           
  6066                           ;CANopen/CO_MEMIO.c: 232:   }
  6067   00132C  EF42  F009         	goto	l9318
  6068   001330                     l9340:
  6069                           
  6070                           ; BSR set to: 1
  6071                           ;CANopen/CO_MEMIO.c: 234:   {;CANopen/CO_MEMIO.c: 235:    *((_DATA8 *)(pOut)) = *((const
      +                           _DATA8 *)pIn);
  6072   001330  0060  F483  FFD9   	movff	CO_MEMIO_CopyRomToRam@pIn,fsr2l
  6073   001336  0060  F487  FFDA   	movff	CO_MEMIO_CopyRomToRam@pIn+1,fsr2h
  6074   00133C  0060  F48B  FFE1   	movff	CO_MEMIO_CopyRomToRam@pOut,fsr1l
  6075   001342  0060  F48F  FFE2   	movff	CO_MEMIO_CopyRomToRam@pOut+1,fsr1h
  6076   001348  0E07               	movlw	7
  6077   00134A                     u5561:
  6078   00134A  006F FF6F FFE3     	movff	plusw2,plusw1
  6079   001350  06E8               	decf	wreg,f,c
  6080   001352  E2FB               	bc	u5561
  6081   001354                     
  6082                           ; BSR set to: 1
  6083                           ;CANopen/CO_MEMIO.c: 237:    pOut += 8;
  6084   001354  0E08               	movlw	8
  6085   001356  2722               	addwf	CO_MEMIO_CopyRomToRam@pOut& (0+255),f,b
  6086   001358  0E00               	movlw	0
  6087   00135A  2323               	addwfc	(CO_MEMIO_CopyRomToRam@pOut+1)& (0+255),f,b
  6088   00135C                     
  6089                           ; BSR set to: 1
  6090                           ;CANopen/CO_MEMIO.c: 238:    pIn += 8;
  6091   00135C  0E08               	movlw	8
  6092   00135E  2720               	addwf	CO_MEMIO_CopyRomToRam@pIn& (0+255),f,b
  6093   001360  0E00               	movlw	0
  6094   001362  2321               	addwfc	(CO_MEMIO_CopyRomToRam@pIn+1)& (0+255),f,b
  6095   001364                     
  6096                           ; BSR set to: 1
  6097                           ;CANopen/CO_MEMIO.c: 239:    len -= 8;
  6098   001364  0E08               	movlw	8
  6099   001366  5F24               	subwf	CO_MEMIO_CopyRomToRam@len& (0+255),f,b
  6100   001368  0E00               	movlw	0
  6101   00136A  5B25               	subwfb	(CO_MEMIO_CopyRomToRam@len+1)& (0+255),f,b
  6102   00136C  EF42  F009         	goto	l9318
  6103   001370                     l9348:
  6104                           
  6105                           ;CANopen/CO_MEMIO.c: 214:  while (len)
  6106   001370  0101               	movlb	1	; () banked
  6107   001372  5124               	movf	CO_MEMIO_CopyRomToRam@len& (0+255),w,b
  6108   001374  1125               	iorwf	(CO_MEMIO_CopyRomToRam@len+1)& (0+255),w,b
  6109   001376  A4D8               	btfss	status,2,c
  6110   001378  EFC0  F009         	goto	u5571
  6111   00137C  EFC2  F009         	goto	u5570
  6112   001380                     u5571:
  6113   001380  EF44  F009         	goto	l9320
  6114   001384                     u5570:
  6115   001384                     
  6116                           ; BSR set to: 1
  6117   001384  0012               	return		;funcret
  6118   001386                     __end_of_CO_MEMIO_CopyRomToRam:
  6119                           	callstack 0
  6120                           
  6121 ;; *************** function __CO_DictObjectDecode *****************
  6122 ;; Defined at:
  6123 ;;		line 281 in file "CANopen/CO_DICT.c"
  6124 ;; Parameters:    Size  Location     Type
  6125 ;;		None
  6126 ;; Auto vars:     Size  Location     Type
  6127 ;;		None
  6128 ;; Return value:  Size  Location     Type
  6129 ;;                  1    wreg      void 
  6130 ;; Registers used:
  6131 ;;		wreg, fsr2l, fsr2h, status,2, status,0, tblptrl, tblptrh, tblptru
  6132 ;; Tracked objects:
  6133 ;;		On entry : 0/0
  6134 ;;		On exit  : 0/0
  6135 ;;		Unchanged: 0/0
  6136 ;; Data sizes:     COMRAM   BANK0   BANK1   BANK2   BANK3   BANK4   BANK5   BANK6   BANK7   BANK8   BANK9  BANK10  BANK1
      +1  BANK12  BANK13  BANK14  BANK15
  6137 ;;      Params:         0       0       0       0       0       0       0       0       0       0       0       0       
      +0       0       0       0       0
  6138 ;;      Locals:         0       0       0       0       0       0       0       0       0       0       0       0       
      +0       0       0       0       0
  6139 ;;      Temps:          2       0       0       0       0       0       0       0       0       0       0       0       
      +0       0       0       0       0
  6140 ;;      Totals:         2       0       0       0       0       0       0       0       0       0       0       0       
      +0       0       0       0       0
  6141 ;;Total ram usage:        2 bytes
  6142 ;; Hardware stack levels used: 1
  6143 ;; Hardware stack levels required when called: 6
  6144 ;; This function calls:
  6145 ;;		Nothing
  6146 ;; This function is called by:
  6147 ;;		__CO_COMM_SDO1_RXEvent
  6148 ;; This function uses a non-reentrant model
  6149 ;;
  6150                           
  6151                           	psect	text30
  6152   00093E                     __ptext30:
  6153                           	callstack 0
  6154   00093E                     __CO_DictObjectDecode:
  6155                           	callstack 21
  6156   00093E                     
  6157                           ;CANopen/CO_DICT.c: 284:  _tMplex = *(MULTIPLEXOR *)(&(uDict.obj->index));
  6158   00093E  C03D  F00D         	movff	__uSDO1Dict+6,__tMplex
  6159   000942  C03E  F00E         	movff	__uSDO1Dict+7,__tMplex+1
  6160   000946  C03F  F00F         	movff	__uSDO1Dict+8,__tMplex+2
  6161                           
  6162                           ;CANopen/CO_DICT.c: 286:  switch (_tMplex.index.bytes.B1.byte & 0xF0)
  6163   00094A  EF57  F005         	goto	l7020
  6164   00094E                     l6922:
  6165                           
  6166                           ;CANopen/CO_DICT.c: 289:    _pTmpDBase = (const unsigned char *)_db_objects;
  6167   00094E  0ECB               	movlw	low __db_objects
  6168   000950  6E14               	movwf	__pTmpDBase^0,c
  6169   000952  0EFE               	movlw	high __db_objects
  6170   000954  6E15               	movwf	(__pTmpDBase+1)^0,c
  6171   000956                     
  6172                           ;CANopen/CO_DICT.c: 290:    _tDBaseLen = sizeof(_db_objects)/sizeof(DICT_OBJECT_TEMPLATE
      +                          );
  6173   000956  0E07               	movlw	7
  6174   000958  6E24               	movwf	__tDBaseLen^0,c
  6175                           
  6176                           ;CANopen/CO_DICT.c: 291:    break;
  6177   00095A  EF8D  F005         	goto	l7022
  6178   00095E                     l6926:
  6179                           
  6180                           ;CANopen/CO_DICT.c: 294:    _pTmpDBase = (const unsigned char *)_db_manufacturer_g1;
  6181   00095E  0EAC               	movlw	low __db_manufacturer_g1
  6182   000960  6E14               	movwf	__pTmpDBase^0,c
  6183   000962  0EFF               	movlw	high __db_manufacturer_g1
  6184   000964  6E15               	movwf	(__pTmpDBase+1)^0,c
  6185   000966                     l6928:
  6186                           
  6187                           ;CANopen/CO_DICT.c: 295:    _tDBaseLen = sizeof(_db_manufacturer_g1)/sizeof(DICT_OBJECT_
      +                          TEMPLATE);
  6188   000966  0E02               	movlw	2
  6189   000968  6E24               	movwf	__tDBaseLen^0,c
  6190                           
  6191                           ;CANopen/CO_DICT.c: 296:    break;
  6192   00096A  EF8D  F005         	goto	l7022
  6193   00096E                     l6930:
  6194                           
  6195                           ;CANopen/CO_DICT.c: 298:    _pTmpDBase = (const unsigned char *)_db_manufacturer_g2;
  6196   00096E  0E9C               	movlw	low __db_manufacturer_g2
  6197   000970  6E14               	movwf	__pTmpDBase^0,c
  6198   000972  0EFF               	movlw	high __db_manufacturer_g2
  6199   000974  6E15               	movwf	(__pTmpDBase+1)^0,c
  6200   000976  EFB3  F004         	goto	l6928
  6201   00097A                     l6934:
  6202                           
  6203                           ;CANopen/CO_DICT.c: 302:    _pTmpDBase = (const unsigned char *)_db_manufacturer_g3;
  6204   00097A  0E8C               	movlw	low __db_manufacturer_g3
  6205   00097C  6E14               	movwf	__pTmpDBase^0,c
  6206   00097E  0EFF               	movlw	high __db_manufacturer_g3
  6207   000980  6E15               	movwf	(__pTmpDBase+1)^0,c
  6208   000982  EFB3  F004         	goto	l6928
  6209   000986                     l6938:
  6210                           
  6211                           ;CANopen/CO_DICT.c: 306:    _pTmpDBase = (const unsigned char *)_db_manufacturer_g4;
  6212   000986  0E7C               	movlw	low __db_manufacturer_g4
  6213   000988  6E14               	movwf	__pTmpDBase^0,c
  6214   00098A  0EFF               	movlw	high __db_manufacturer_g4
  6215   00098C  6E15               	movwf	(__pTmpDBase+1)^0,c
  6216   00098E  EFB3  F004         	goto	l6928
  6217   000992                     l6942:
  6218                           
  6219                           ;CANopen/CO_DICT.c: 311:    _pTmpDBase = (const unsigned char *)_db_standard_g1;
  6220   000992  0ECB               	movlw	low __db_standard_g1
  6221   000994  6E14               	movwf	__pTmpDBase^0,c
  6222   000996  0EFD               	movlw	high __db_standard_g1
  6223   000998  6E15               	movwf	(__pTmpDBase+1)^0,c
  6224   00099A                     
  6225                           ;CANopen/CO_DICT.c: 312:    _tDBaseLen = sizeof(_db_standard_g1)/sizeof(DICT_OBJECT_TEMP
      +                          LATE);
  6226   00099A  0E0E               	movlw	14
  6227   00099C  6E24               	movwf	__tDBaseLen^0,c
  6228                           
  6229                           ;CANopen/CO_DICT.c: 313:    break;
  6230   00099E  EF8D  F005         	goto	l7022
  6231   0009A2                     l6946:
  6232                           
  6233                           ;CANopen/CO_DICT.c: 315:    _pTmpDBase = (const unsigned char *)_db_standard_g2;
  6234   0009A2  0E6C               	movlw	low __db_standard_g2
  6235   0009A4  6E14               	movwf	__pTmpDBase^0,c
  6236   0009A6  0EFF               	movlw	high __db_standard_g2
  6237   0009A8  6E15               	movwf	(__pTmpDBase+1)^0,c
  6238   0009AA  EFB3  F004         	goto	l6928
  6239   0009AE                     l6950:
  6240                           
  6241                           ;CANopen/CO_DICT.c: 319:    _pTmpDBase = (const unsigned char *)_db_standard_g3;
  6242   0009AE  0E5C               	movlw	low __db_standard_g3
  6243   0009B0  6E14               	movwf	__pTmpDBase^0,c
  6244   0009B2  0EFF               	movlw	high __db_standard_g3
  6245   0009B4  6E15               	movwf	(__pTmpDBase+1)^0,c
  6246   0009B6  EFB3  F004         	goto	l6928
  6247   0009BA                     l6954:
  6248                           
  6249                           ;CANopen/CO_DICT.c: 323:    _pTmpDBase = (const unsigned char *)_db_standard_g4;
  6250   0009BA  0E4C               	movlw	low __db_standard_g4
  6251   0009BC  6E14               	movwf	__pTmpDBase^0,c
  6252   0009BE  0EFF               	movlw	high __db_standard_g4
  6253   0009C0  6E15               	movwf	(__pTmpDBase+1)^0,c
  6254   0009C2  EFB3  F004         	goto	l6928
  6255   0009C6                     l6958:
  6256                           
  6257                           ;CANopen/CO_DICT.c: 331:      _pTmpDBase = (const unsigned char *)_db_device;
  6258   0009C6  0E53               	movlw	low __db_device
  6259   0009C8  6E14               	movwf	__pTmpDBase^0,c
  6260   0009CA  0EFD               	movlw	high __db_device
  6261   0009CC  6E15               	movwf	(__pTmpDBase+1)^0,c
  6262   0009CE                     
  6263                           ;CANopen/CO_DICT.c: 332:      _tDBaseLen = sizeof(_db_device)/sizeof(DICT_OBJECT_TEMPLAT
      +                          E);
  6264   0009CE  0E0F               	movlw	15
  6265   0009D0  6E24               	movwf	__tDBaseLen^0,c
  6266                           
  6267                           ;CANopen/CO_DICT.c: 333:      break;
  6268   0009D2  EF8D  F005         	goto	l7022
  6269   0009D6                     l6962:
  6270                           
  6271                           ;CANopen/CO_DICT.c: 336:      _pTmpDBase = (const unsigned char *)_db_sdo;
  6272   0009D6  0E34               	movlw	low __db_sdo
  6273   0009D8  6E14               	movwf	__pTmpDBase^0,c
  6274   0009DA  0EFF               	movlw	high __db_sdo
  6275   0009DC  6E15               	movwf	(__pTmpDBase+1)^0,c
  6276   0009DE                     l6964:
  6277                           
  6278                           ;CANopen/CO_DICT.c: 337:      _tDBaseLen = sizeof(_db_sdo)/sizeof(DICT_OBJECT_TEMPLATE);
  6279   0009DE  0E03               	movlw	3
  6280   0009E0  6E24               	movwf	__tDBaseLen^0,c
  6281                           
  6282                           ;CANopen/CO_DICT.c: 338:      break;
  6283   0009E2  EF8D  F005         	goto	l7022
  6284   0009E6                     l6966:
  6285                           
  6286                           ;CANopen/CO_DICT.c: 341:      if (_tMplex.index.bytes.B0.byte == 0x00)
  6287   0009E6  500D               	movf	__tMplex^0,w,c
  6288   0009E8  A4D8               	btfss	status,2,c
  6289   0009EA  EFF9  F004         	goto	u3391
  6290   0009EE  EFFB  F004         	goto	u3390
  6291   0009F2                     u3391:
  6292   0009F2  EF01  F005         	goto	l6972
  6293   0009F6                     u3390:
  6294   0009F6                     
  6295                           ;CANopen/CO_DICT.c: 342:      {;CANopen/CO_DICT.c: 343:       _pTmpDBase = (const unsign
      +                          ed char *)_db_pdo1_rx_comm;
  6296   0009F6  0EBC               	movlw	low __db_pdo1_rx_comm
  6297   0009F8  6E14               	movwf	__pTmpDBase^0,c
  6298   0009FA  0EFF               	movlw	high __db_pdo1_rx_comm
  6299   0009FC  6E15               	movwf	(__pTmpDBase+1)^0,c
  6300   0009FE  EFB3  F004         	goto	l6928
  6301   000A02                     l6972:
  6302                           
  6303                           ;CANopen/CO_DICT.c: 371:      {;CANopen/CO_DICT.c: 373:       uDict.ret = E_OBJ_NOT_FOUN
      +                          D;
  6304   000A02  0E08               	movlw	8
  6305   000A04  6E0C               	movwf	(_uDict+3)^0,c
  6306   000A06  EF1B  F006         	goto	l587
  6307   000A0A                     l6976:
  6308                           
  6309                           ;CANopen/CO_DICT.c: 380:      if (_tMplex.index.bytes.B0.byte == 0x00)
  6310   000A0A  500D               	movf	__tMplex^0,w,c
  6311   000A0C  A4D8               	btfss	status,2,c
  6312   000A0E  EF0B  F005         	goto	u3401
  6313   000A12  EF0D  F005         	goto	u3400
  6314   000A16                     u3401:
  6315   000A16  EF01  F005         	goto	l6972
  6316   000A1A                     u3400:
  6317   000A1A                     
  6318                           ;CANopen/CO_DICT.c: 381:      {;CANopen/CO_DICT.c: 382:       _pTmpDBase = (const unsign
      +                          ed char *)_db_pdo1_rx_map;
  6319   000A1A  0E83               	movlw	low __db_pdo1_rx_map
  6320   000A1C  6E14               	movwf	__pTmpDBase^0,c
  6321   000A1E  0EFE               	movlw	high __db_pdo1_rx_map
  6322   000A20  6E15               	movwf	(__pTmpDBase+1)^0,c
  6323   000A22                     l6980:
  6324                           
  6325                           ;CANopen/CO_DICT.c: 383:       _tDBaseLen = sizeof(_db_pdo1_rx_map)/sizeof(DICT_OBJECT_T
      +                          EMPLATE);
  6326   000A22  0E09               	movlw	9
  6327   000A24  6E24               	movwf	__tDBaseLen^0,c
  6328                           
  6329                           ;CANopen/CO_DICT.c: 384:      }
  6330   000A26  EF8D  F005         	goto	l7022
  6331   000A2A                     l6986:
  6332                           
  6333                           ;CANopen/CO_DICT.c: 419:      if (_tMplex.index.bytes.B0.byte == 0x00)
  6334   000A2A  500D               	movf	__tMplex^0,w,c
  6335   000A2C  A4D8               	btfss	status,2,c
  6336   000A2E  EF1B  F005         	goto	u3411
  6337   000A32  EF1D  F005         	goto	u3410
  6338   000A36                     u3411:
  6339   000A36  EF01  F005         	goto	l6972
  6340   000A3A                     u3410:
  6341   000A3A                     
  6342                           ;CANopen/CO_DICT.c: 420:      {;CANopen/CO_DICT.c: 421:       _pTmpDBase = (const unsign
      +                          ed char *)_db_pdo1_tx_comm;
  6343   000A3A  0E1C               	movlw	low __db_pdo1_tx_comm
  6344   000A3C  6E14               	movwf	__pTmpDBase^0,c
  6345   000A3E  0EFF               	movlw	high __db_pdo1_tx_comm
  6346   000A40  6E15               	movwf	(__pTmpDBase+1)^0,c
  6347   000A42  EFEF  F004         	goto	l6964
  6348   000A46                     l6996:
  6349                           
  6350                           ;CANopen/CO_DICT.c: 458:      if (_tMplex.index.bytes.B0.byte == 0x00)
  6351   000A46  500D               	movf	__tMplex^0,w,c
  6352   000A48  A4D8               	btfss	status,2,c
  6353   000A4A  EF29  F005         	goto	u3421
  6354   000A4E  EF2B  F005         	goto	u3420
  6355   000A52                     u3421:
  6356   000A52  EF01  F005         	goto	l6972
  6357   000A56                     u3420:
  6358   000A56                     
  6359                           ;CANopen/CO_DICT.c: 459:      {;CANopen/CO_DICT.c: 460:       _pTmpDBase = (const unsign
      +                          ed char *)_db_pdo1_tx_map;
  6360   000A56  0E3B               	movlw	low __db_pdo1_tx_map
  6361   000A58  6E14               	movwf	__pTmpDBase^0,c
  6362   000A5A  0EFE               	movlw	high __db_pdo1_tx_map
  6363   000A5C  6E15               	movwf	(__pTmpDBase+1)^0,c
  6364   000A5E  EF11  F005         	goto	l6980
  6365   000A62                     l7012:
  6366   000A62  500E               	movf	(__tMplex+1)^0,w,c
  6367   000A64  0B0F               	andlw	15
  6368   000A66  6E52               	movwf	??__CO_DictObjectDecode^0,c
  6369   000A68  6A53               	clrf	(??__CO_DictObjectDecode+1)^0,c
  6370                           
  6371                           ; Switch on 2 bytes has been partitioned into a top level switch of size 1, and 1 sub-sw
      +                          itches
  6372                           ; Switch size 1, requested type "simple"
  6373                           ; Number of cases is 1, Range of values is 0 to 0
  6374                           ; switch strategies available:
  6375                           ; Name         Instructions Cycles
  6376                           ; simple_byte            4     3 (average)
  6377                           ;	Chosen strategy is simple_byte
  6378   000A6A  5053               	movf	(??__CO_DictObjectDecode+1)^0,w,c
  6379   000A6C  0A00               	xorlw	0	; case 0
  6380   000A6E  B4D8               	btfsc	status,2,c
  6381   000A70  EF3C  F005         	goto	l10508
  6382   000A74  EF01  F005         	goto	l6972
  6383   000A78                     l10508:
  6384                           
  6385                           ; Switch size 1, requested type "simple"
  6386                           ; Number of cases is 6, Range of values is 0 to 10
  6387                           ; switch strategies available:
  6388                           ; Name         Instructions Cycles
  6389                           ; simple_byte           19    10 (average)
  6390                           ;	Chosen strategy is simple_byte
  6391   000A78  5052               	movf	??__CO_DictObjectDecode^0,w,c
  6392   000A7A  0A00               	xorlw	0	; case 0
  6393   000A7C  B4D8               	btfsc	status,2,c
  6394   000A7E  EFE3  F004         	goto	l6958
  6395   000A82  0A02               	xorlw	2	; case 2
  6396   000A84  B4D8               	btfsc	status,2,c
  6397   000A86  EFEB  F004         	goto	l6962
  6398   000A8A  0A06               	xorlw	6	; case 4
  6399   000A8C  B4D8               	btfsc	status,2,c
  6400   000A8E  EFF3  F004         	goto	l6966
  6401   000A92  0A02               	xorlw	2	; case 6
  6402   000A94  B4D8               	btfsc	status,2,c
  6403   000A96  EF05  F005         	goto	l6976
  6404   000A9A  0A0E               	xorlw	14	; case 8
  6405   000A9C  B4D8               	btfsc	status,2,c
  6406   000A9E  EF15  F005         	goto	l6986
  6407   000AA2  0A02               	xorlw	2	; case 10
  6408   000AA4  B4D8               	btfsc	status,2,c
  6409   000AA6  EF23  F005         	goto	l6996
  6410   000AAA  EF01  F005         	goto	l6972
  6411   000AAE                     l7020:
  6412   000AAE  500E               	movf	(__tMplex+1)^0,w,c
  6413   000AB0  0BF0               	andlw	240
  6414   000AB2  6E52               	movwf	??__CO_DictObjectDecode^0,c
  6415   000AB4  6A53               	clrf	(??__CO_DictObjectDecode+1)^0,c
  6416                           
  6417                           ; Switch on 2 bytes has been partitioned into a top level switch of size 1, and 1 sub-sw
      +                          itches
  6418                           ; Switch size 1, requested type "simple"
  6419                           ; Number of cases is 1, Range of values is 0 to 0
  6420                           ; switch strategies available:
  6421                           ; Name         Instructions Cycles
  6422                           ; simple_byte            4     3 (average)
  6423                           ;	Chosen strategy is simple_byte
  6424   000AB6  5053               	movf	(??__CO_DictObjectDecode+1)^0,w,c
  6425   000AB8  0A00               	xorlw	0	; case 0
  6426   000ABA  B4D8               	btfsc	status,2,c
  6427   000ABC  EF62  F005         	goto	l10510
  6428   000AC0  EF01  F005         	goto	l6972
  6429   000AC4                     l10510:
  6430                           
  6431                           ; Switch size 1, requested type "simple"
  6432                           ; Number of cases is 10, Range of values is 0 to 144
  6433                           ; switch strategies available:
  6434                           ; Name         Instructions Cycles
  6435                           ; simple_byte           31    16 (average)
  6436                           ;	Chosen strategy is simple_byte
  6437   000AC4  5052               	movf	??__CO_DictObjectDecode^0,w,c
  6438   000AC6  0A00               	xorlw	0	; case 0
  6439   000AC8  B4D8               	btfsc	status,2,c
  6440   000ACA  EFA7  F004         	goto	l6922
  6441   000ACE  0A10               	xorlw	16	; case 16
  6442   000AD0  B4D8               	btfsc	status,2,c
  6443   000AD2  EF31  F005         	goto	l7012
  6444   000AD6  0A30               	xorlw	48	; case 32
  6445   000AD8  B4D8               	btfsc	status,2,c
  6446   000ADA  EFAF  F004         	goto	l6926
  6447   000ADE  0A10               	xorlw	16	; case 48
  6448   000AE0  B4D8               	btfsc	status,2,c
  6449   000AE2  EFB7  F004         	goto	l6930
  6450   000AE6  0A70               	xorlw	112	; case 64
  6451   000AE8  B4D8               	btfsc	status,2,c
  6452   000AEA  EFBD  F004         	goto	l6934
  6453   000AEE  0A10               	xorlw	16	; case 80
  6454   000AF0  B4D8               	btfsc	status,2,c
  6455   000AF2  EFC3  F004         	goto	l6938
  6456   000AF6  0A30               	xorlw	48	; case 96
  6457   000AF8  B4D8               	btfsc	status,2,c
  6458   000AFA  EFC9  F004         	goto	l6942
  6459   000AFE  0A10               	xorlw	16	; case 112
  6460   000B00  B4D8               	btfsc	status,2,c
  6461   000B02  EFD1  F004         	goto	l6946
  6462   000B06  0AF0               	xorlw	240	; case 128
  6463   000B08  B4D8               	btfsc	status,2,c
  6464   000B0A  EFD7  F004         	goto	l6950
  6465   000B0E  0A10               	xorlw	16	; case 144
  6466   000B10  B4D8               	btfsc	status,2,c
  6467   000B12  EFDD  F004         	goto	l6954
  6468   000B16  EF01  F005         	goto	l6972
  6469   000B1A                     l7022:
  6470                           
  6471                           ;CANopen/CO_DICT.c: 519:  uDict.ret = E_OBJ_NOT_FOUND;
  6472   000B1A  0E08               	movlw	8
  6473   000B1C  6E0C               	movwf	(_uDict+3)^0,c
  6474   000B1E                     
  6475                           ;CANopen/CO_DICT.c: 522:  *(_DATA4 *)(&(_uDictTemp[0])) = *(const _DATA4 *)_pTmpDBase;
  6476   000B1E  0060  F053  FFF6   	movff	__pTmpDBase,tblptrl
  6477   000B24  0060  F057  FFF7   	movff	__pTmpDBase+1,tblptrh
  6478   000B2A                     	if	1	;Program memory is < 0x10000, tblptru is always zero
  6479   000B2A  6AF8               	clrf	tblptru,c
  6480   000B2C                     	endif
  6481   000B2C                     	if	0	;tblptru may be non-zero
  6482   000B2C                     	endif
  6483   000B2C  0009               	tblrd		*+
  6484   000B2E  006F FFD4  F0AA    	movff	tablat,__uDictTemp
  6485   000B34  0009               	tblrd		*+
  6486   000B36  006F FFD4  F0AB    	movff	tablat,__uDictTemp+1
  6487   000B3C  0009               	tblrd		*+
  6488   000B3E  006F FFD4  F0AC    	movff	tablat,__uDictTemp+2
  6489   000B44  000A               	tblrd		*-
  6490   000B46  006F FFD4  F0AD    	movff	tablat,__uDictTemp+3
  6491                           
  6492                           ;CANopen/CO_DICT.c: 525:  while(_tDBaseLen)
  6493   000B4C  EF13  F006         	goto	l7058
  6494   000B50                     l7026:
  6495                           
  6496                           ;CANopen/CO_DICT.c: 526:  {;CANopen/CO_DICT.c: 528:   if ((_uDictTemp[1] == _tMplex.inde
      +                          x.bytes.B1.byte) &&
  6497   000B50  0100               	movlb	0	; () banked
  6498   000B52  51AB               	movf	(__uDictTemp+1)& (0+255),w,b
  6499   000B54  180E               	xorwf	(__tMplex+1)^0,w,c
  6500   000B56  A4D8               	btfss	status,2,c
  6501   000B58  EFB0  F005         	goto	u3431
  6502   000B5C  EFB2  F005         	goto	u3430
  6503   000B60                     u3431:
  6504   000B60  EFF7  F005         	goto	l7052
  6505   000B64                     u3430:
  6506   000B64                     
  6507                           ; BSR set to: 0
  6508   000B64  51AA               	movf	__uDictTemp& (0+255),w,b
  6509   000B66  180D               	xorwf	__tMplex^0,w,c
  6510   000B68  A4D8               	btfss	status,2,c
  6511   000B6A  EFB9  F005         	goto	u3441
  6512   000B6E  EFBB  F005         	goto	u3440
  6513   000B72                     u3441:
  6514   000B72  EFF7  F005         	goto	l7052
  6515   000B76                     u3440:
  6516   000B76                     
  6517                           ; BSR set to: 0
  6518                           ;CANopen/CO_DICT.c: 530:   {;CANopen/CO_DICT.c: 532:    uDict.ret = E_SUBINDEX_NOT_FOUND
      +                          ;
  6519   000B76  0E11               	movlw	17
  6520   000B78  6E0C               	movwf	(_uDict+3)^0,c
  6521   000B7A                     
  6522                           ; BSR set to: 0
  6523                           ;CANopen/CO_DICT.c: 535:    if ((_uDictTemp[2] == _tMplex.sindex.byte) ||
  6524   000B7A  51AC               	movf	(__uDictTemp+2)& (0+255),w,b
  6525   000B7C  180F               	xorwf	(__tMplex+2)^0,w,c
  6526   000B7E  B4D8               	btfsc	status,2,c
  6527   000B80  EFC4  F005         	goto	u3451
  6528   000B84  EFC6  F005         	goto	u3450
  6529   000B88                     u3451:
  6530   000B88  EFCD  F005         	goto	l7036
  6531   000B8C                     u3450:
  6532   000B8C                     
  6533                           ; BSR set to: 0
  6534   000B8C  ADAD               	btfss	(__uDictTemp+3)& (0+255),6,b
  6535   000B8E  EFCB  F005         	goto	u3461
  6536   000B92  EFCD  F005         	goto	u3460
  6537   000B96                     u3461:
  6538   000B96  EFF7  F005         	goto	l7052
  6539   000B9A                     u3460:
  6540   000B9A                     l7036:
  6541                           
  6542                           ; BSR set to: 0
  6543                           ;CANopen/CO_DICT.c: 537:    {;CANopen/CO_DICT.c: 539:        *((DICT_OBJECT_TEMPLATE *)(
      +                          &(uDict.obj->index))) = *((const DICT_OBJECT_TEMPLATE *)(_pTmpDBase));
  6544   000B9A  0060  F053  FFF6   	movff	__pTmpDBase,tblptrl
  6545   000BA0  0060  F057  FFF7   	movff	__pTmpDBase+1,tblptrh
  6546   000BA6                     	if	1	;Program memory is < 0x10000, tblptru is always zero
  6547   000BA6  6AF8               	clrf	tblptru,c
  6548   000BA8                     	endif
  6549   000BA8                     	if	0	;tblptru may be non-zero
  6550   000BA8                     	endif
  6551   000BA8  EE20  F03D         	lfsr	2,__uSDO1Dict+6
  6552   000BAC  0E07               	movlw	7
  6553   000BAE                     u3470:
  6554   000BAE  0009               	tblrd		*+
  6555   000BB0  006F FFD7 FFDE     	movff	tablat,postinc2
  6556   000BB6  06E8               	decf	wreg,f,c
  6557   000BB8  E2FA               	bc	u3470
  6558   000BBA                     
  6559                           ; BSR set to: 0
  6560                           ;CANopen/CO_DICT.c: 542:        if (_uDictTemp[3] & FSUB_BIT) uDict.obj->subindex = _tMp
      +                          lex.sindex.byte;
  6561   000BBA  ADAD               	btfss	(__uDictTemp+3)& (0+255),6,b
  6562   000BBC  EFE2  F005         	goto	u3481
  6563   000BC0  EFE4  F005         	goto	u3480
  6564   000BC4                     u3481:
  6565   000BC4  EFE6  F005         	goto	l605
  6566   000BC8                     u3480:
  6567   000BC8                     
  6568                           ; BSR set to: 0
  6569   000BC8  C00F  F03F         	movff	__tMplex+2,__uSDO1Dict+8
  6570   000BCC                     l605:
  6571                           
  6572                           ; BSR set to: 0
  6573                           ;CANopen/CO_DICT.c: 546:     if (_uDictTemp[3] & FDEF_BIT)
  6574   000BCC  A9AD               	btfss	(__uDictTemp+3)& (0+255),4,b
  6575   000BCE  EFEB  F005         	goto	u3491
  6576   000BD2  EFED  F005         	goto	u3490
  6577   000BD6                     u3491:
  6578   000BD6  EFF3  F005         	goto	l7048
  6579   000BDA                     u3490:
  6580   000BDA                     
  6581                           ; BSR set to: 0
  6582                           ;CANopen/CO_DICT.c: 547:     {;CANopen/CO_DICT.c: 548:      uDict.ret = E_SUCCESS;
  6583   000BDA  0E00               	movlw	0
  6584   000BDC  6E0C               	movwf	(_uDict+3)^0,c
  6585                           
  6586                           ;CANopen/CO_DICT.c: 550:      uDict.obj->p.pFunc();
  6587   000BDE  0E00               	movlw	0
  6588   000BE0  6E0B               	movwf	(_uDict+2)^0,c
  6589   000BE2  EF1B  F006         	goto	l587
  6590   000BE6                     l7048:
  6591                           
  6592                           ; BSR set to: 0
  6593                           ;CANopen/CO_DICT.c: 554:     {;CANopen/CO_DICT.c: 555:      uDict.ret = E_SUCCESS;
  6594   000BE6  0E00               	movlw	0
  6595   000BE8  6E0C               	movwf	(_uDict+3)^0,c
  6596   000BEA  EF1B  F006         	goto	l587
  6597   000BEE                     l7052:
  6598                           
  6599                           ; BSR set to: 0
  6600                           ;CANopen/CO_DICT.c: 562:   _pTmpDBase += sizeof(DICT_OBJECT_TEMPLATE);
  6601   000BEE  0E08               	movlw	8
  6602   000BF0  2614               	addwf	__pTmpDBase^0,f,c
  6603   000BF2  0E00               	movlw	0
  6604   000BF4  2215               	addwfc	(__pTmpDBase+1)^0,f,c
  6605   000BF6                     
  6606                           ; BSR set to: 0
  6607                           ;CANopen/CO_DICT.c: 564:   _tDBaseLen--;
  6608   000BF6  0624               	decf	__tDBaseLen^0,f,c
  6609   000BF8                     
  6610                           ; BSR set to: 0
  6611                           ;CANopen/CO_DICT.c: 567:   *(_DATA4 *)(&(_uDictTemp[0])) = *(const _DATA4 *)_pTmpDBase;
  6612   000BF8  0060  F053  FFF6   	movff	__pTmpDBase,tblptrl
  6613   000BFE  0060  F057  FFF7   	movff	__pTmpDBase+1,tblptrh
  6614   000C04                     	if	1	;Program memory is < 0x10000, tblptru is always zero
  6615   000C04  6AF8               	clrf	tblptru,c
  6616   000C06                     	endif
  6617   000C06                     	if	0	;tblptru may be non-zero
  6618   000C06                     	endif
  6619   000C06  0009               	tblrd		*+
  6620   000C08  006F FFD4  F0AA    	movff	tablat,__uDictTemp
  6621   000C0E  0009               	tblrd		*+
  6622   000C10  006F FFD4  F0AB    	movff	tablat,__uDictTemp+1
  6623   000C16  0009               	tblrd		*+
  6624   000C18  006F FFD4  F0AC    	movff	tablat,__uDictTemp+2
  6625   000C1E  000A               	tblrd		*-
  6626   000C20  006F FFD4  F0AD    	movff	tablat,__uDictTemp+3
  6627   000C26                     l7058:
  6628                           
  6629                           ;CANopen/CO_DICT.c: 525:  while(_tDBaseLen)
  6630   000C26  5024               	movf	__tDBaseLen^0,w,c
  6631   000C28  A4D8               	btfss	status,2,c
  6632   000C2A  EF19  F006         	goto	u3501
  6633   000C2E  EF1B  F006         	goto	u3500
  6634   000C32                     u3501:
  6635   000C32  EFA8  F005         	goto	l7026
  6636   000C36                     u3500:
  6637   000C36                     l587:
  6638   000C36  0012               	return		;funcret
  6639   000C38                     __end_of__CO_DictObjectDecode:
  6640                           	callstack 0
  6641                           
  6642 ;; *************** function __CO_COMM_PDO1_RXEvent *****************
  6643 ;; Defined at:
  6644 ;;		line 103 in file "CANopen/CO_PDO.c"
  6645 ;; Parameters:    Size  Location     Type
  6646 ;;		None
  6647 ;; Auto vars:     Size  Location     Type
  6648 ;;		None
  6649 ;; Return value:  Size  Location     Type
  6650 ;;                  1    wreg      void 
  6651 ;; Registers used:
  6652 ;;		wreg, fsr1l, fsr1h, fsr2l, fsr2h, status,2, status,0
  6653 ;; Tracked objects:
  6654 ;;		On entry : 0/0
  6655 ;;		On exit  : 0/0
  6656 ;;		Unchanged: 0/0
  6657 ;; Data sizes:     COMRAM   BANK0   BANK1   BANK2   BANK3   BANK4   BANK5   BANK6   BANK7   BANK8   BANK9  BANK10  BANK1
      +1  BANK12  BANK13  BANK14  BANK15
  6658 ;;      Params:         0       0       0       0       0       0       0       0       0       0       0       0       
      +0       0       0       0       0
  6659 ;;      Locals:         0       0       0       0       0       0       0       0       0       0       0       0       
      +0       0       0       0       0
  6660 ;;      Temps:          0       0       0       0       0       0       0       0       0       0       0       0       
      +0       0       0       0       0
  6661 ;;      Totals:         0       0       0       0       0       0       0       0       0       0       0       0       
      +0       0       0       0       0
  6662 ;;Total ram usage:        0 bytes
  6663 ;; Hardware stack levels used: 1
  6664 ;; Hardware stack levels required when called: 6
  6665 ;; This function calls:
  6666 ;;		Nothing
  6667 ;; This function is called by:
  6668 ;;		__CO_COMMRXEventManager
  6669 ;; This function uses a non-reentrant model
  6670 ;;
  6671                           
  6672                           	psect	text31
  6673   00237E                     __ptext31:
  6674                           	callstack 0
  6675   00237E                     __CO_COMM_PDO1_RXEvent:
  6676                           	callstack 22
  6677   00237E                     
  6678                           ;CANopen/CO_PDO.c: 105:  *((_DATA8 *)(_uPDO1.RPDO.buf)) = *((_DATA8 *)((&RXB0D0)));
  6679   00237E  EE2F F386          	lfsr	2,16262
  6680   002382  0060  F237  FFE1   	movff	__uPDO1+1,fsr1l
  6681   002388  0060  F23B  FFE2   	movff	__uPDO1+2,fsr1h
  6682   00238E  0E07               	movlw	7
  6683   002390                     u3951:
  6684   002390  006F FF6F FFE3     	movff	plusw2,plusw1
  6685   002396  06E8               	decf	wreg,f,c
  6686   002398  E2FB               	bc	u3951
  6687   00239A                     
  6688                           ;CANopen/CO_PDO.c: 106:  _uPDO1.RPDO.len = (RXB0DLC & 0xF);
  6689   00239A  5085               	movf	133,w,c	;volatile
  6690   00239C  0B0F               	andlw	15
  6691   00239E  0100               	movlb	0	; () banked
  6692   0023A0  6F8C               	movwf	__uPDO1& (0+255),b
  6693   0023A2                     
  6694                           ; BSR set to: 0
  6695   0023A2  0012               	return		;funcret
  6696   0023A4                     __end_of__CO_COMM_PDO1_RXEvent:
  6697                           	callstack 0
  6698                           
  6699 ;; *************** function __CO_COMM_NMT_RXEvent *****************
  6700 ;; Defined at:
  6701 ;;		line 132 in file "CANopen/CO_NMT.c"
  6702 ;; Parameters:    Size  Location     Type
  6703 ;;		None
  6704 ;; Auto vars:     Size  Location     Type
  6705 ;;		None
  6706 ;; Return value:  Size  Location     Type
  6707 ;;                  1    wreg      void 
  6708 ;; Registers used:
  6709 ;;		wreg, fsr1l, fsr1h, fsr2l, fsr2h, status,2, status,0, prodl, prodh, cstack
  6710 ;; Tracked objects:
  6711 ;;		On entry : 0/0
  6712 ;;		On exit  : 0/0
  6713 ;;		Unchanged: 0/0
  6714 ;; Data sizes:     COMRAM   BANK0   BANK1   BANK2   BANK3   BANK4   BANK5   BANK6   BANK7   BANK8   BANK9  BANK10  BANK1
      +1  BANK12  BANK13  BANK14  BANK15
  6715 ;;      Params:         0       0       0       0       0       0       0       0       0       0       0       0       
      +0       0       0       0       0
  6716 ;;      Locals:         0       0       0       0       0       0       0       0       0       0       0       0       
      +0       0       0       0       0
  6717 ;;      Temps:          0       0       2       0       0       0       0       0       0       0       0       0       
      +0       0       0       0       0
  6718 ;;      Totals:         0       0       2       0       0       0       0       0       0       0       0       0       
      +0       0       0       0       0
  6719 ;;Total ram usage:        2 bytes
  6720 ;; Hardware stack levels used: 1
  6721 ;; Hardware stack levels required when called: 9
  6722 ;; This function calls:
  6723 ;;		_CO_NMTAppResetRequest
  6724 ;;		_CO_NMTResetEvent
  6725 ;;		_CO_NMTStateChangeEvent
  6726 ;;		__CO_COMMResetEventManager
  6727 ;; This function is called by:
  6728 ;;		__CO_COMMRXEventManager
  6729 ;; This function uses a non-reentrant model
  6730 ;;
  6731                           
  6732                           	psect	text32
  6733   0019BC                     __ptext32:
  6734                           	callstack 0
  6735   0019BC                     __CO_COMM_NMT_RXEvent:
  6736                           	callstack 19
  6737   0019BC                     
  6738                           ;CANopen/CO_NMT.c: 135:  if ((RXB0DLC & 0xF) == 2)
  6739   0019BC  5085               	movf	133,w,c	;volatile
  6740   0019BE  0B0F               	andlw	15
  6741   0019C0  0A02               	xorlw	2
  6742   0019C2  A4D8               	btfss	status,2,c
  6743   0019C4  EFE6  F00C         	goto	u5681
  6744   0019C8  EFE8  F00C         	goto	u5680
  6745   0019CC                     u5681:
  6746   0019CC  EF32  F00D         	goto	l698
  6747   0019D0                     u5680:
  6748   0019D0                     
  6749                           ;CANopen/CO_NMT.c: 136:  {;CANopen/CO_NMT.c: 138:   if ((RXB0D1 == _uCO_nodeID.byte) || 
      +                          (!RXB0D1))
  6750   0019D0  5087               	movf	135,w,c	;volatile
  6751   0019D2  182F               	xorwf	__uCO_nodeID^0,w,c
  6752   0019D4  B4D8               	btfsc	status,2,c
  6753   0019D6  EFEF  F00C         	goto	u5691
  6754   0019DA  EFF1  F00C         	goto	u5690
  6755   0019DE                     u5691:
  6756   0019DE  EF10  F00D         	goto	l9502
  6757   0019E2                     u5690:
  6758   0019E2  5087               	movf	135,w,c	;volatile
  6759   0019E4  A4D8               	btfss	status,2,c
  6760   0019E6  EFF7  F00C         	goto	u5701
  6761   0019EA  EFF9  F00C         	goto	u5700
  6762   0019EE                     u5701:
  6763   0019EE  EF32  F00D         	goto	l698
  6764   0019F2                     u5700:
  6765   0019F2  EF10  F00D         	goto	l9502
  6766   0019F6                     l692:
  6767                           
  6768                           ; BSR set to: 1
  6769                           ;CANopen/CO_NMT.c: 151:      _uCO_state.bits.b1 = 1;
  6770   0019F6  822E               	bsf	__uCO_state^0,1,c
  6771                           
  6772                           ;CANopen/CO_NMT.c: 152:      _uCO_state.bits.b2 = 0;
  6773   0019F8  942E               	bcf	__uCO_state^0,2,c
  6774   0019FA                     l9490:
  6775                           
  6776                           ; BSR set to: 1
  6777                           ;CANopen/CO_NMT.c: 153:      CO_NMTStateChangeEvent();
  6778   0019FA  EC6B  F012         	call	_CO_NMTStateChangeEvent	;wreg free
  6779                           
  6780                           ;CANopen/CO_NMT.c: 154:      break;
  6781   0019FE  EF32  F00D         	goto	l698
  6782   001A02                     l694:
  6783                           
  6784                           ; BSR set to: 1
  6785                           ;CANopen/CO_NMT.c: 156:      _uCO_state.bits.b2 = 1;
  6786   001A02  842E               	bsf	__uCO_state^0,2,c
  6787   001A04  EFFD  F00C         	goto	l9490
  6788   001A08                     l695:
  6789                           
  6790                           ; BSR set to: 1
  6791                           ;CANopen/CO_NMT.c: 160:      _uCO_state.bits.b1 = 0;
  6792   001A08  922E               	bcf	__uCO_state^0,1,c
  6793                           
  6794                           ;CANopen/CO_NMT.c: 161:      _uCO_state.bits.b2 = 0;
  6795   001A0A  942E               	bcf	__uCO_state^0,2,c
  6796   001A0C  EFFD  F00C         	goto	l9490
  6797   001A10                     l9496:
  6798                           
  6799                           ; BSR set to: 1
  6800                           ;CANopen/CO_NMT.c: 166:      CO_NMTAppResetRequest();
  6801   001A10  EC6C  F012         	call	_CO_NMTAppResetRequest	;wreg free
  6802   001A14                     l697:
  6803                           
  6804                           ;CANopen/CO_NMT.c: 169:      CO_NMTResetEvent();
  6805   001A14  EC68  F012         	call	_CO_NMTResetEvent	;wreg free
  6806   001A18                     
  6807                           ;CANopen/CO_NMT.c: 172:      _CO_COMMResetEventManager();
  6808   001A18  EC82  F00F         	call	__CO_COMMResetEventManager	;wreg free
  6809                           
  6810                           ;CANopen/CO_NMT.c: 173:      break;
  6811   001A1C  EF32  F00D         	goto	l698
  6812   001A20                     l9502:
  6813   001A20  5086               	movf	134,w,c	;volatile
  6814   001A22  0101               	movlb	1	; () banked
  6815   001A24  6F24               	movwf	??__CO_COMM_NMT_RXEvent& (0+255),b
  6816   001A26  6B25               	clrf	(??__CO_COMM_NMT_RXEvent+1)& (0+255),b
  6817                           
  6818                           ; Switch on 2 bytes has been partitioned into a top level switch of size 1, and 1 sub-sw
      +                          itches
  6819                           ; Switch size 1, requested type "simple"
  6820                           ; Number of cases is 1, Range of values is 0 to 0
  6821                           ; switch strategies available:
  6822                           ; Name         Instructions Cycles
  6823                           ; simple_byte            4     3 (average)
  6824                           ;	Chosen strategy is simple_byte
  6825   001A28  5125               	movf	(??__CO_COMM_NMT_RXEvent+1)& (0+255),w,b
  6826   001A2A  0A00               	xorlw	0	; case 0
  6827   001A2C  B4D8               	btfsc	status,2,c
  6828   001A2E  EF1B  F00D         	goto	l10512
  6829   001A32  EF32  F00D         	goto	l698
  6830   001A36                     l10512:
  6831                           
  6832                           ; BSR set to: 1
  6833                           ; Switch size 1, requested type "simple"
  6834                           ; Number of cases is 5, Range of values is 1 to 130
  6835                           ; switch strategies available:
  6836                           ; Name         Instructions Cycles
  6837                           ; simple_byte           16     9 (average)
  6838                           ;	Chosen strategy is simple_byte
  6839   001A36  5124               	movf	??__CO_COMM_NMT_RXEvent& (0+255),w,b
  6840   001A38  0A01               	xorlw	1	; case 1
  6841   001A3A  B4D8               	btfsc	status,2,c
  6842   001A3C  EFFB  F00C         	goto	l692
  6843   001A40  0A03               	xorlw	3	; case 2
  6844   001A42  B4D8               	btfsc	status,2,c
  6845   001A44  EF01  F00D         	goto	l694
  6846   001A48  0A82               	xorlw	130	; case 128
  6847   001A4A  B4D8               	btfsc	status,2,c
  6848   001A4C  EF04  F00D         	goto	l695
  6849   001A50  0A01               	xorlw	1	; case 129
  6850   001A52  B4D8               	btfsc	status,2,c
  6851   001A54  EF08  F00D         	goto	l9496
  6852   001A58  0A03               	xorlw	3	; case 130
  6853   001A5A  B4D8               	btfsc	status,2,c
  6854   001A5C  EF0A  F00D         	goto	l697
  6855   001A60  EF32  F00D         	goto	l698
  6856   001A64                     l698:
  6857   001A64  0012               	return		;funcret
  6858   001A66                     __end_of__CO_COMM_NMT_RXEvent:
  6859                           	callstack 0
  6860                           
  6861 ;; *************** function __CO_COMMResetEventManager *****************
  6862 ;; Defined at:
  6863 ;;		line 120 in file "CANopen/CO_COMM.c"
  6864 ;; Parameters:    Size  Location     Type
  6865 ;;		None
  6866 ;; Auto vars:     Size  Location     Type
  6867 ;;		None
  6868 ;; Return value:  Size  Location     Type
  6869 ;;                  1    wreg      void 
  6870 ;; Registers used:
  6871 ;;		wreg, fsr1l, fsr1h, fsr2l, fsr2h, status,2, status,0, prodl, prodh, cstack
  6872 ;; Tracked objects:
  6873 ;;		On entry : 0/0
  6874 ;;		On exit  : 0/0
  6875 ;;		Unchanged: 0/0
  6876 ;; Data sizes:     COMRAM   BANK0   BANK1   BANK2   BANK3   BANK4   BANK5   BANK6   BANK7   BANK8   BANK9  BANK10  BANK1
      +1  BANK12  BANK13  BANK14  BANK15
  6877 ;;      Params:         0       0       0       0       0       0       0       0       0       0       0       0       
      +0       0       0       0       0
  6878 ;;      Locals:         0       0       0       0       0       0       0       0       0       0       0       0       
      +0       0       0       0       0
  6879 ;;      Temps:          0       0       0       0       0       0       0       0       0       0       0       0       
      +0       0       0       0       0
  6880 ;;      Totals:         0       0       0       0       0       0       0       0       0       0       0       0       
      +0       0       0       0       0
  6881 ;;Total ram usage:        0 bytes
  6882 ;; Hardware stack levels used: 1
  6883 ;; Hardware stack levels required when called: 8
  6884 ;; This function calls:
  6885 ;;		__CANEventManager
  6886 ;;		__CANIsPutReady
  6887 ;;		__CANReset
  6888 ;;		__CO_COMM_NMTE_Open
  6889 ;;		__CO_COMM_NMTE_TXEvent
  6890 ;;		__CO_COMM_NMT_Open
  6891 ;;		__CO_COMM_PDO1_Open
  6892 ;;		__CO_COMM_SDO1_Open
  6893 ;;		__CO_COMM_SYNC_Open
  6894 ;; This function is called by:
  6895 ;;		__CO_COMM_NMT_RXEvent
  6896 ;;		_main
  6897 ;; This function uses a non-reentrant model
  6898 ;;
  6899                           
  6900                           	psect	text33
  6901   001F04                     __ptext33:
  6902                           	callstack 0
  6903   001F04                     __CO_COMMResetEventManager:
  6904                           	callstack 22
  6905   001F04                     
  6906                           ;CANopen/CO_COMM.c: 123:  _uCO_state.byte = 0;
  6907   001F04  0E00               	movlw	0
  6908   001F06  6E2E               	movwf	__uCO_state^0,c
  6909                           
  6910                           ;CANopen/CO_COMM.c: 126:  _net_en.byte = 0;
  6911   001F08  0E00               	movlw	0
  6912   001F0A  6E2C               	movwf	__net_en^0,c
  6913                           
  6914                           ;CANopen/CO_COMM.c: 127:  _sdo_en.byte = 0;
  6915   001F0C  0E00               	movlw	0
  6916   001F0E  6E2B               	movwf	__sdo_en^0,c
  6917                           
  6918                           ;CANopen/CO_COMM.c: 128:  _rpdo_en.byte = 0;
  6919   001F10  0E00               	movlw	0
  6920   001F12  6E2A               	movwf	__rpdo_en^0,c
  6921                           
  6922                           ;CANopen/CO_COMM.c: 129:  _tpdo_en.byte = 0;
  6923   001F14  0E00               	movlw	0
  6924   001F16  6E29               	movwf	__tpdo_en^0,c
  6925                           
  6926                           ;CANopen/CO_COMM.c: 130:  _tx_net_que.byte = 0;
  6927   001F18  0E00               	movlw	0
  6928   001F1A  6E28               	movwf	__tx_net_que^0,c
  6929                           
  6930                           ;CANopen/CO_COMM.c: 131:  _tx_sdo_que.byte = 0;
  6931   001F1C  0E00               	movlw	0
  6932   001F1E  6E27               	movwf	__tx_sdo_que^0,c
  6933                           
  6934                           ;CANopen/CO_COMM.c: 132:  _tx_pdo_que.byte = 0;
  6935   001F20  0E00               	movlw	0
  6936   001F22  6E26               	movwf	__tx_pdo_que^0,c
  6937                           
  6938                           ;CANopen/CO_COMM.c: 133:  _rx_net_flg.byte = 0;
  6939   001F24  0E00               	movlw	0
  6940   001F26  0100               	movlb	0	; () banked
  6941   001F28  6FC4               	movwf	__rx_net_flg& (0+255),b
  6942                           
  6943                           ;CANopen/CO_COMM.c: 134:  _rx_sdo_flg.byte = 0;
  6944   001F2A  0E00               	movlw	0
  6945   001F2C  6FC3               	movwf	__rx_sdo_flg& (0+255),b
  6946                           
  6947                           ;CANopen/CO_COMM.c: 135:  _rx_pdo_flg.byte = 0;
  6948   001F2E  0E00               	movlw	0
  6949   001F30  6E25               	movwf	__rx_pdo_flg^0,c
  6950   001F32                     
  6951                           ; BSR set to: 0
  6952                           ;CANopen/CO_COMM.c: 138:     _uCAN_Bitrate = _uCO_baud.byte;
  6953   001F32  C02D  F033         	movff	__uCO_baud,__uCAN_Bitrate
  6954   001F36                     
  6955                           ; BSR set to: 0
  6956                           ;CANopen/CO_COMM.c: 139:     _CANReset();
  6957   001F36  EC84  F00C         	call	__CANReset	;wreg free
  6958   001F3A                     
  6959                           ;CANopen/CO_COMM.c: 143:  _CO_COMM_NMT_Open();
  6960   001F3A  EC4D  F011         	call	__CO_COMM_NMT_Open	;wreg free
  6961   001F3E                     
  6962                           ;CANopen/CO_COMM.c: 144:  _CO_COMM_SYNC_Open();
  6963   001F3E  EC17  F011         	call	__CO_COMM_SYNC_Open	;wreg free
  6964   001F42                     
  6965                           ;CANopen/CO_COMM.c: 145:  _CO_COMM_SDO1_Open();
  6966   001F42  ECCF  F00B         	call	__CO_COMM_SDO1_Open	;wreg free
  6967   001F46                     
  6968                           ;CANopen/CO_COMM.c: 148:  _CO_COMM_NMTE_Open();
  6969   001F46  ECC3  F009         	call	__CO_COMM_NMTE_Open	;wreg free
  6970   001F4A                     
  6971                           ;CANopen/CO_COMM.c: 149:     _CO_COMM_PDO1_Open();
  6972   001F4A  EC32  F011         	call	__CO_COMM_PDO1_Open	;wreg free
  6973   001F4E                     
  6974                           ;CANopen/CO_COMM.c: 150:     _tpdo_en.bits.b0 = 1;
  6975   001F4E  8029               	bsf	__tpdo_en^0,0,c
  6976   001F50                     
  6977                           ;CANopen/CO_COMM.c: 153:  _CANEventManager();
  6978   001F50  EC1C  F006         	call	__CANEventManager	;wreg free
  6979   001F54                     
  6980                           ;CANopen/CO_COMM.c: 156:  CANCON = 0;
  6981   001F54  0E00               	movlw	0
  6982   001F56  6E8F               	movwf	143,c	;volatile
  6983   001F58                     
  6984                           ;CANopen/CO_COMM.c: 159:  _uNMTEState.bits.b0 = 1;
  6985   001F58  8030               	bsf	__uNMTEState^0,0,c
  6986   001F5A                     
  6987                           ;CANopen/CO_COMM.c: 160:  _uCAN_Handle = 0; _CANIsPutReady();;
  6988   001F5A  0E00               	movlw	0
  6989   001F5C  6E36               	movwf	__uCAN_Handle^0,c
  6990   001F5E  ECB6  F00F         	call	__CANIsPutReady	;wreg free
  6991   001F62                     
  6992                           ;CANopen/CO_COMM.c: 161:  _CO_COMM_NMTE_TXEvent();
  6993   001F62  EC70  F00B         	call	__CO_COMM_NMTE_TXEvent	;wreg free
  6994   001F66                     
  6995                           ;CANopen/CO_COMM.c: 162:  RXB0CONbits.FILHIT3 = 1;
  6996   001F66  8680               	bsf	128,3,c	;volatile
  6997   001F68                     
  6998                           ;CANopen/CO_COMM.c: 165:  _uCO_state.bits.b0 = 1;
  6999   001F68  802E               	bsf	__uCO_state^0,0,c
  7000   001F6A  0012               	return		;funcret
  7001   001F6C                     __end_of__CO_COMMResetEventManager:
  7002                           	callstack 0
  7003                           
  7004 ;; *************** function __CO_COMM_SYNC_Open *****************
  7005 ;; Defined at:
  7006 ;;		line 85 in file "CANopen/CO_SYNC.c"
  7007 ;; Parameters:    Size  Location     Type
  7008 ;;		None
  7009 ;; Auto vars:     Size  Location     Type
  7010 ;;		None
  7011 ;; Return value:  Size  Location     Type
  7012 ;;                  1    wreg      void 
  7013 ;; Registers used:
  7014 ;;		wreg, fsr1l, fsr1h, fsr2l, fsr2h, status,2, status,0, prodl, prodh, cstack
  7015 ;; Tracked objects:
  7016 ;;		On entry : 0/0
  7017 ;;		On exit  : 0/0
  7018 ;;		Unchanged: 0/0
  7019 ;; Data sizes:     COMRAM   BANK0   BANK1   BANK2   BANK3   BANK4   BANK5   BANK6   BANK7   BANK8   BANK9  BANK10  BANK1
      +1  BANK12  BANK13  BANK14  BANK15
  7020 ;;      Params:         0       0       0       0       0       0       0       0       0       0       0       0       
      +0       0       0       0       0
  7021 ;;      Locals:         0       0       0       0       0       0       0       0       0       0       0       0       
      +0       0       0       0       0
  7022 ;;      Temps:          0       0       0       0       0       0       0       0       0       0       0       0       
      +0       0       0       0       0
  7023 ;;      Totals:         0       0       0       0       0       0       0       0       0       0       0       0       
      +0       0       0       0       0
  7024 ;;Total ram usage:        0 bytes
  7025 ;; Hardware stack levels used: 1
  7026 ;; Hardware stack levels required when called: 7
  7027 ;; This function calls:
  7028 ;;		__CANOpenMessage
  7029 ;; This function is called by:
  7030 ;;		__CO_COMMResetEventManager
  7031 ;;		__CO_COMM_SYNC_COBIDAccessEvent
  7032 ;; This function uses a non-reentrant model
  7033 ;;
  7034                           
  7035                           	psect	text34
  7036   00222E                     __ptext34:
  7037                           	callstack 0
  7038   00222E                     __CO_COMM_SYNC_Open:
  7039                           	callstack 22
  7040   00222E                     
  7041                           ;CANopen/CO_SYNC.c: 88:  _uCANOldMode = CANCON; _uCAN_Handle = 0x00 | 2; *((unsigned lon
      +                          g *)(&_uCAN_Param1)) = _uSYNC_COBID.word; _CANOpenMessage(); _hSYNC = _uCAN_ret;;
  7042   00222E  006F FE3C  F031    	movff	16271,__uCANOldMode	;volatile
  7043   002234  0E02               	movlw	2
  7044   002236  6E36               	movwf	__uCAN_Handle^0,c
  7045   002238  C092  F035         	movff	__uSYNC_COBID,__uCAN_Param1
  7046   00223C  C093  F036         	movff	__uSYNC_COBID+1,__uCAN_Param1+1
  7047   002240  C094  F037         	movff	__uSYNC_COBID+2,__uCAN_Param1+2
  7048   002244  C095  F038         	movff	__uSYNC_COBID+3,__uCAN_Param1+3
  7049   002248  EC5E  F00E         	call	__CANOpenMessage	;wreg free
  7050   00224C  C034  F01A         	movff	__uCAN_ret,__hSYNC
  7051   002250                     
  7052                           ;CANopen/CO_SYNC.c: 91:  if (_hSYNC) _net_en.bits.b1 = 1;
  7053   002250  501A               	movf	__hSYNC^0,w,c
  7054   002252  B4D8               	btfsc	status,2,c
  7055   002254  EF2E  F011         	goto	u3051
  7056   002258  EF30  F011         	goto	u3050
  7057   00225C                     u3051:
  7058   00225C  EF31  F011         	goto	l1096
  7059   002260                     u3050:
  7060   002260  822C               	bsf	__net_en^0,1,c
  7061   002262                     l1096:
  7062   002262  0012               	return		;funcret
  7063   002264                     __end_of__CO_COMM_SYNC_Open:
  7064                           	callstack 0
  7065                           
  7066 ;; *************** function __CO_COMM_SDO1_Open *****************
  7067 ;; Defined at:
  7068 ;;		line 211 in file "CANopen/CO_SDO1.c"
  7069 ;; Parameters:    Size  Location     Type
  7070 ;;		None
  7071 ;; Auto vars:     Size  Location     Type
  7072 ;;		None
  7073 ;; Return value:  Size  Location     Type
  7074 ;;                  1    wreg      void 
  7075 ;; Registers used:
  7076 ;;		wreg, fsr1l, fsr1h, fsr2l, fsr2h, status,2, status,0, prodl, prodh, cstack
  7077 ;; Tracked objects:
  7078 ;;		On entry : 0/0
  7079 ;;		On exit  : 0/0
  7080 ;;		Unchanged: 0/0
  7081 ;; Data sizes:     COMRAM   BANK0   BANK1   BANK2   BANK3   BANK4   BANK5   BANK6   BANK7   BANK8   BANK9  BANK10  BANK1
      +1  BANK12  BANK13  BANK14  BANK15
  7082 ;;      Params:         0       0       0       0       0       0       0       0       0       0       0       0       
      +0       0       0       0       0
  7083 ;;      Locals:         0       0       0       0       0       0       0       0       0       0       0       0       
      +0       0       0       0       0
  7084 ;;      Temps:          0       0       0       0       0       0       0       0       0       0       0       0       
      +0       0       0       0       0
  7085 ;;      Totals:         0       0       0       0       0       0       0       0       0       0       0       0       
      +0       0       0       0       0
  7086 ;;Total ram usage:        0 bytes
  7087 ;; Hardware stack levels used: 1
  7088 ;; Hardware stack levels required when called: 7
  7089 ;; This function calls:
  7090 ;;		__CANOpenMessage
  7091 ;;		__CO_COB_CANopen2MCHP
  7092 ;; This function is called by:
  7093 ;;		__CO_COMMResetEventManager
  7094 ;; This function uses a non-reentrant model
  7095 ;;
  7096                           
  7097                           	psect	text35
  7098   00179E                     __ptext35:
  7099                           	callstack 0
  7100   00179E                     __CO_COMM_SDO1_Open:
  7101                           	callstack 22
  7102   00179E                     
  7103                           ;CANopen/CO_SDO1.c: 214:  _uSDO1_CS_COBID.word = 0x600L + _uCO_nodeID.byte;
  7104   00179E  0E00               	movlw	0
  7105   0017A0  242F               	addwf	__uCO_nodeID^0,w,c
  7106   0017A2  0100               	movlb	0	; () banked
  7107   0017A4  6F9A               	movwf	__uSDO1_CS_COBID& (0+255),b
  7108   0017A6  6B9B               	clrf	(__uSDO1_CS_COBID+1)& (0+255),b
  7109   0017A8  0E06               	movlw	6
  7110   0017AA  239B               	addwfc	(__uSDO1_CS_COBID+1)& (0+255),f,b
  7111   0017AC  6B9C               	clrf	(__uSDO1_CS_COBID+2)& (0+255),b
  7112   0017AE  0E00               	movlw	0
  7113   0017B0  239C               	addwfc	(__uSDO1_CS_COBID+2)& (0+255),f,b
  7114   0017B2  6B9D               	clrf	(__uSDO1_CS_COBID+3)& (0+255),b
  7115   0017B4  0E00               	movlw	0
  7116   0017B6  239D               	addwfc	(__uSDO1_CS_COBID+3)& (0+255),f,b
  7117   0017B8                     
  7118                           ; BSR set to: 0
  7119                           ;CANopen/CO_SDO1.c: 215:  _uCOB_ID_in.word = _uSDO1_CS_COBID.word; _CO_COB_CANopen2MCHP(
      +                          );;
  7120   0017B8  C09A  F005         	movff	__uSDO1_CS_COBID,__uCOB_ID_in
  7121   0017BC  C09B  F006         	movff	__uSDO1_CS_COBID+1,__uCOB_ID_in+1
  7122   0017C0  C09C  F007         	movff	__uSDO1_CS_COBID+2,__uCOB_ID_in+2
  7123   0017C4  C09D  F008         	movff	__uSDO1_CS_COBID+3,__uCOB_ID_in+3
  7124   0017C8                     
  7125                           ; BSR set to: 0
  7126   0017C8  EC2A  F00C         	call	__CO_COB_CANopen2MCHP	;wreg free
  7127   0017CC                     
  7128                           ;CANopen/CO_SDO1.c: 216:  _uSDO1_CS_COBID.word = _uCOB_ID_out.word;
  7129   0017CC  C001  F09A         	movff	__uCOB_ID_out,__uSDO1_CS_COBID
  7130   0017D0  C002  F09B         	movff	__uCOB_ID_out+1,__uSDO1_CS_COBID+1
  7131   0017D4  C003  F09C         	movff	__uCOB_ID_out+2,__uSDO1_CS_COBID+2
  7132   0017D8  C004  F09D         	movff	__uCOB_ID_out+3,__uSDO1_CS_COBID+3
  7133   0017DC                     
  7134                           ;CANopen/CO_SDO1.c: 219:  _uSDO1_SC_COBID.word = 0x580L + _uCO_nodeID.byte;
  7135   0017DC  0E80               	movlw	128
  7136   0017DE  242F               	addwf	__uCO_nodeID^0,w,c
  7137   0017E0  0100               	movlb	0	; () banked
  7138   0017E2  6F96               	movwf	__uSDO1_SC_COBID& (0+255),b
  7139   0017E4  6B97               	clrf	(__uSDO1_SC_COBID+1)& (0+255),b
  7140   0017E6  0E05               	movlw	5
  7141   0017E8  2397               	addwfc	(__uSDO1_SC_COBID+1)& (0+255),f,b
  7142   0017EA  6B98               	clrf	(__uSDO1_SC_COBID+2)& (0+255),b
  7143   0017EC  0E00               	movlw	0
  7144   0017EE  2398               	addwfc	(__uSDO1_SC_COBID+2)& (0+255),f,b
  7145   0017F0  6B99               	clrf	(__uSDO1_SC_COBID+3)& (0+255),b
  7146   0017F2  0E00               	movlw	0
  7147   0017F4  2399               	addwfc	(__uSDO1_SC_COBID+3)& (0+255),f,b
  7148   0017F6                     
  7149                           ; BSR set to: 0
  7150                           ;CANopen/CO_SDO1.c: 220:  _uCOB_ID_in.word = _uSDO1_SC_COBID.word; _CO_COB_CANopen2MCHP(
      +                          );;
  7151   0017F6  C096  F005         	movff	__uSDO1_SC_COBID,__uCOB_ID_in
  7152   0017FA  C097  F006         	movff	__uSDO1_SC_COBID+1,__uCOB_ID_in+1
  7153   0017FE  C098  F007         	movff	__uSDO1_SC_COBID+2,__uCOB_ID_in+2
  7154   001802  C099  F008         	movff	__uSDO1_SC_COBID+3,__uCOB_ID_in+3
  7155   001806  EC2A  F00C         	call	__CO_COB_CANopen2MCHP	;wreg free
  7156   00180A                     
  7157                           ;CANopen/CO_SDO1.c: 221:  _uSDO1_SC_COBID.word = _uCOB_ID_out.word;
  7158   00180A  C001  F096         	movff	__uCOB_ID_out,__uSDO1_SC_COBID
  7159   00180E  C002  F097         	movff	__uCOB_ID_out+1,__uSDO1_SC_COBID+1
  7160   001812  C003  F098         	movff	__uCOB_ID_out+2,__uSDO1_SC_COBID+2
  7161   001816  C004  F099         	movff	__uCOB_ID_out+3,__uSDO1_SC_COBID+3
  7162   00181A                     
  7163                           ;CANopen/CO_SDO1.c: 224:  _uCANOldMode = CANCON; _uCAN_Handle = 0x40 | 0; *((unsigned lo
      +                          ng *)(&_uCAN_Param1)) = _uSDO1_CS_COBID.word; _CANOpenMessage(); _hSDO1 = _uCAN_ret;;
  7164   00181A  006F FE3C  F031    	movff	16271,__uCANOldMode	;volatile
  7165   001820  0E40               	movlw	64
  7166   001822  6E36               	movwf	__uCAN_Handle^0,c
  7167   001824  C09A  F035         	movff	__uSDO1_CS_COBID,__uCAN_Param1
  7168   001828  C09B  F036         	movff	__uSDO1_CS_COBID+1,__uCAN_Param1+1
  7169   00182C  C09C  F037         	movff	__uSDO1_CS_COBID+2,__uCAN_Param1+2
  7170   001830  C09D  F038         	movff	__uSDO1_CS_COBID+3,__uCAN_Param1+3
  7171   001834  EC5E  F00E         	call	__CANOpenMessage	;wreg free
  7172   001838  C034  F01E         	movff	__uCAN_ret,__hSDO1
  7173   00183C                     
  7174                           ;CANopen/CO_SDO1.c: 225:  if (_hSDO1) _sdo_en.bits.b0 = 1;
  7175   00183C  501E               	movf	__hSDO1^0,w,c
  7176   00183E  B4D8               	btfsc	status,2,c
  7177   001840  EF24  F00C         	goto	u3061
  7178   001844  EF26  F00C         	goto	u3060
  7179   001848                     u3061:
  7180   001848  EF27  F00C         	goto	l6632
  7181   00184C                     u3060:
  7182   00184C  802B               	bsf	__sdo_en^0,0,c
  7183   00184E                     l6632:
  7184                           
  7185                           ;CANopen/CO_SDO1.c: 228:  _uSDO1State.byte = 0;
  7186   00184E  0E00               	movlw	0
  7187   001850  6E1D               	movwf	__uSDO1State^0,c
  7188   001852  0012               	return		;funcret
  7189   001854                     __end_of__CO_COMM_SDO1_Open:
  7190                           	callstack 0
  7191                           
  7192 ;; *************** function __CO_COMM_PDO1_Open *****************
  7193 ;; Defined at:
  7194 ;;		line 89 in file "CANopen/CO_PDO.c"
  7195 ;; Parameters:    Size  Location     Type
  7196 ;;		None
  7197 ;; Auto vars:     Size  Location     Type
  7198 ;;		None
  7199 ;; Return value:  Size  Location     Type
  7200 ;;                  1    wreg      void 
  7201 ;; Registers used:
  7202 ;;		wreg, fsr1l, fsr1h, fsr2l, fsr2h, status,2, status,0, prodl, prodh, cstack
  7203 ;; Tracked objects:
  7204 ;;		On entry : 0/0
  7205 ;;		On exit  : 0/0
  7206 ;;		Unchanged: 0/0
  7207 ;; Data sizes:     COMRAM   BANK0   BANK1   BANK2   BANK3   BANK4   BANK5   BANK6   BANK7   BANK8   BANK9  BANK10  BANK1
      +1  BANK12  BANK13  BANK14  BANK15
  7208 ;;      Params:         0       0       0       0       0       0       0       0       0       0       0       0       
      +0       0       0       0       0
  7209 ;;      Locals:         0       0       0       0       0       0       0       0       0       0       0       0       
      +0       0       0       0       0
  7210 ;;      Temps:          0       0       0       0       0       0       0       0       0       0       0       0       
      +0       0       0       0       0
  7211 ;;      Totals:         0       0       0       0       0       0       0       0       0       0       0       0       
      +0       0       0       0       0
  7212 ;;Total ram usage:        0 bytes
  7213 ;; Hardware stack levels used: 1
  7214 ;; Hardware stack levels required when called: 7
  7215 ;; This function calls:
  7216 ;;		__CANOpenMessage
  7217 ;; This function is called by:
  7218 ;;		__CO_COMMResetEventManager
  7219 ;;		_CO_COMM_RPDO1_COBIDAccessEvent
  7220 ;; This function uses a non-reentrant model
  7221 ;;
  7222                           
  7223                           	psect	text36
  7224   002264                     __ptext36:
  7225                           	callstack 0
  7226   002264                     __CO_COMM_PDO1_Open:
  7227                           	callstack 22
  7228   002264                     
  7229                           ;CANopen/CO_PDO.c: 92:  _uCANOldMode = CANCON; _uCAN_Handle = (0x80) | 0; *((unsigned lo
      +                          ng *)(&_uCAN_Param1)) = uRPDOComm1.word; _CANOpenMessage(); _uPDOHandles1 = _uCAN_ret;;
  7230   002264  006F FE3C  F031    	movff	16271,__uCANOldMode	;volatile
  7231   00226A  0E80               	movlw	128
  7232   00226C  6E36               	movwf	__uCAN_Handle^0,c
  7233   00226E  C0A2  F035         	movff	_uRPDOComm1,__uCAN_Param1
  7234   002272  C0A3  F036         	movff	_uRPDOComm1+1,__uCAN_Param1+1
  7235   002276  C0A4  F037         	movff	_uRPDOComm1+2,__uCAN_Param1+2
  7236   00227A  C0A5  F038         	movff	_uRPDOComm1+3,__uCAN_Param1+3
  7237   00227E  EC5E  F00E         	call	__CANOpenMessage	;wreg free
  7238   002282  C034  F01F         	movff	__uCAN_ret,__uPDOHandles1
  7239   002286                     
  7240                           ;CANopen/CO_PDO.c: 93:  if (_uPDOHandles1) _rpdo_en.bits.b0 = 1;
  7241   002286  501F               	movf	__uPDOHandles1^0,w,c
  7242   002288  B4D8               	btfsc	status,2,c
  7243   00228A  EF49  F011         	goto	u3111
  7244   00228E  EF4B  F011         	goto	u3110
  7245   002292                     u3111:
  7246   002292  EF4C  F011         	goto	l856
  7247   002296                     u3110:
  7248   002296  802A               	bsf	__rpdo_en^0,0,c
  7249   002298                     l856:
  7250   002298  0012               	return		;funcret
  7251   00229A                     __end_of__CO_COMM_PDO1_Open:
  7252                           	callstack 0
  7253                           
  7254 ;; *************** function __CO_COMM_NMT_Open *****************
  7255 ;; Defined at:
  7256 ;;		line 79 in file "CANopen/CO_NMT.c"
  7257 ;; Parameters:    Size  Location     Type
  7258 ;;		None
  7259 ;; Auto vars:     Size  Location     Type
  7260 ;;		None
  7261 ;; Return value:  Size  Location     Type
  7262 ;;                  1    wreg      void 
  7263 ;; Registers used:
  7264 ;;		wreg, fsr1l, fsr1h, fsr2l, fsr2h, status,2, status,0, prodl, prodh, cstack
  7265 ;; Tracked objects:
  7266 ;;		On entry : 0/0
  7267 ;;		On exit  : 0/0
  7268 ;;		Unchanged: 0/0
  7269 ;; Data sizes:     COMRAM   BANK0   BANK1   BANK2   BANK3   BANK4   BANK5   BANK6   BANK7   BANK8   BANK9  BANK10  BANK1
      +1  BANK12  BANK13  BANK14  BANK15
  7270 ;;      Params:         0       0       0       0       0       0       0       0       0       0       0       0       
      +0       0       0       0       0
  7271 ;;      Locals:         0       0       0       0       0       0       0       0       0       0       0       0       
      +0       0       0       0       0
  7272 ;;      Temps:          0       0       0       0       0       0       0       0       0       0       0       0       
      +0       0       0       0       0
  7273 ;;      Totals:         0       0       0       0       0       0       0       0       0       0       0       0       
      +0       0       0       0       0
  7274 ;;Total ram usage:        0 bytes
  7275 ;; Hardware stack levels used: 1
  7276 ;; Hardware stack levels required when called: 7
  7277 ;; This function calls:
  7278 ;;		__CANOpenMessage
  7279 ;; This function is called by:
  7280 ;;		__CO_COMMResetEventManager
  7281 ;; This function uses a non-reentrant model
  7282 ;;
  7283                           
  7284                           	psect	text37
  7285   00229A                     __ptext37:
  7286                           	callstack 0
  7287   00229A                     __CO_COMM_NMT_Open:
  7288                           	callstack 22
  7289   00229A                     
  7290                           ;CANopen/CO_NMT.c: 82:  _uCANOldMode = CANCON; _uCAN_Handle = (0x00) | 1; *((unsigned lo
      +                          ng *)(&_uCAN_Param1)) = 0x00L; _CANOpenMessage(); _hNMT = _uCAN_ret;;
  7291   00229A  006F FE3C  F031    	movff	16271,__uCANOldMode	;volatile
  7292   0022A0  0E01               	movlw	1
  7293   0022A2  6E36               	movwf	__uCAN_Handle^0,c
  7294   0022A4  0E00               	movlw	0
  7295   0022A6  6E35               	movwf	__uCAN_Param1^0,c
  7296   0022A8  0E00               	movlw	0
  7297   0022AA  6E36               	movwf	(__uCAN_Param1+1)^0,c
  7298   0022AC  0E00               	movlw	0
  7299   0022AE  6E37               	movwf	(__uCAN_Param1+2)^0,c
  7300   0022B0  0E00               	movlw	0
  7301   0022B2  6E38               	movwf	(__uCAN_Param1+3)^0,c
  7302   0022B4  EC5E  F00E         	call	__CANOpenMessage	;wreg free
  7303   0022B8  C034  F023         	movff	__uCAN_ret,__hNMT
  7304   0022BC                     
  7305                           ;CANopen/CO_NMT.c: 85:  if (_hNMT) _net_en.bits.b0 = 1;
  7306   0022BC  5023               	movf	__hNMT^0,w,c
  7307   0022BE  B4D8               	btfsc	status,2,c
  7308   0022C0  EF64  F011         	goto	u3041
  7309   0022C4  EF66  F011         	goto	u3040
  7310   0022C8                     u3041:
  7311   0022C8  EF67  F011         	goto	l681
  7312   0022CC                     u3040:
  7313   0022CC  802C               	bsf	__net_en^0,0,c
  7314   0022CE                     l681:
  7315   0022CE  0012               	return		;funcret
  7316   0022D0                     __end_of__CO_COMM_NMT_Open:
  7317                           	callstack 0
  7318                           
  7319 ;; *************** function __CO_COMM_NMTE_TXEvent *****************
  7320 ;; Defined at:
  7321 ;;		line 371 in file "CANopen/CO_NMTE.c"
  7322 ;; Parameters:    Size  Location     Type
  7323 ;;		None
  7324 ;; Auto vars:     Size  Location     Type
  7325 ;;		None
  7326 ;; Return value:  Size  Location     Type
  7327 ;;                  1    wreg      void 
  7328 ;; Registers used:
  7329 ;;		wreg, status,2, status,0
  7330 ;; Tracked objects:
  7331 ;;		On entry : 0/0
  7332 ;;		On exit  : 0/0
  7333 ;;		Unchanged: 0/0
  7334 ;; Data sizes:     COMRAM   BANK0   BANK1   BANK2   BANK3   BANK4   BANK5   BANK6   BANK7   BANK8   BANK9  BANK10  BANK1
      +1  BANK12  BANK13  BANK14  BANK15
  7335 ;;      Params:         0       0       0       0       0       0       0       0       0       0       0       0       
      +0       0       0       0       0
  7336 ;;      Locals:         0       0       0       0       0       0       0       0       0       0       0       0       
      +0       0       0       0       0
  7337 ;;      Temps:          1       0       0       0       0       0       0       0       0       0       0       0       
      +0       0       0       0       0
  7338 ;;      Totals:         1       0       0       0       0       0       0       0       0       0       0       0       
      +0       0       0       0       0
  7339 ;;Total ram usage:        1 bytes
  7340 ;; Hardware stack levels used: 1
  7341 ;; Hardware stack levels required when called: 6
  7342 ;; This function calls:
  7343 ;;		Nothing
  7344 ;; This function is called by:
  7345 ;;		__CO_COMMResetEventManager
  7346 ;;		__CO_COMMTXRdyEventManager
  7347 ;; This function uses a non-reentrant model
  7348 ;;
  7349                           
  7350                           	psect	text38
  7351   0016E0                     __ptext38:
  7352                           	callstack 0
  7353   0016E0                     __CO_COMM_NMTE_TXEvent:
  7354                           	callstack 23
  7355   0016E0                     
  7356                           ;CANopen/CO_NMTE.c: 373:  {;CANopen/CO_NMTE.c: 375:   *(unsigned long *)((&RXB0SIDH)) = 
      +                          _uNMTE_COBID.word;
  7357   0016E0  0060  F29B  FF81   	movff	__uNMTE_COBID,16257	;volatile
  7358   0016E6  0060  F29F  FF82   	movff	__uNMTE_COBID+1,16258	;volatile
  7359   0016EC  0060  F2A3  FF83   	movff	__uNMTE_COBID+2,16259	;volatile
  7360   0016F2  0060  F2A7  FF84   	movff	__uNMTE_COBID+3,16260	;volatile
  7361   0016F8                     
  7362                           ;CANopen/CO_NMTE.c: 378:   (RXB0DLC = 1);
  7363   0016F8  0E01               	movlw	1
  7364   0016FA  6E85               	movwf	133,c	;volatile
  7365   0016FC                     
  7366                           ;CANopen/CO_NMTE.c: 382:   if (!_uNMTEState.bits.b0)
  7367   0016FC  B030               	btfsc	__uNMTEState^0,0,c
  7368   0016FE  EF83  F00B         	goto	u3121
  7369   001702  EF85  F00B         	goto	u3120
  7370   001706                     u3121:
  7371   001706  EFCB  F00B         	goto	l806
  7372   00170A                     u3120:
  7373   00170A                     
  7374                           ;CANopen/CO_NMTE.c: 383:   {;CANopen/CO_NMTE.c: 385:    _uNMTELocalState.byte = _uNMTELo
      +                          calState.byte & 0x80;
  7375   00170A  5022               	movf	__uNMTELocalState^0,w,c
  7376   00170C  0B80               	andlw	128
  7377   00170E  6E22               	movwf	__uNMTELocalState^0,c
  7378   001710                     
  7379                           ;CANopen/CO_NMTE.c: 386:    if (_uNMTEState.bits.b2) {_uNMTELocalState.bits.b7 = (~_uNMT
      +                          ELocalState.bits.b7);}
  7380   001710  A430               	btfss	__uNMTEState^0,2,c
  7381   001712  EF8D  F00B         	goto	u3131
  7382   001716  EF8F  F00B         	goto	u3130
  7383   00171A                     u3131:
  7384   00171A  EFA3  F00B         	goto	l807
  7385   00171E                     u3130:
  7386   00171E  BE22               	btfsc	__uNMTELocalState^0,7,c
  7387   001720  EF94  F00B         	goto	u3141
  7388   001724  EF97  F00B         	goto	u3140
  7389   001728                     u3141:
  7390   001728  0E01               	movlw	1
  7391   00172A  EF98  F00B         	goto	u3146
  7392   00172E                     u3140:
  7393   00172E  0E00               	movlw	0
  7394   001730                     u3146:
  7395   001730  0AFF               	xorlw	255
  7396   001732  6E52               	movwf	??__CO_COMM_NMTE_TXEvent^0,c
  7397   001734  3252               	rrcf	??__CO_COMM_NMTE_TXEvent^0,f,c
  7398   001736  3252               	rrcf	??__CO_COMM_NMTE_TXEvent^0,f,c
  7399   001738  5022               	movf	__uNMTELocalState^0,w,c
  7400   00173A  1852               	xorwf	??__CO_COMM_NMTE_TXEvent^0,w,c
  7401   00173C  0B7F               	andlw	-129
  7402   00173E  1852               	xorwf	??__CO_COMM_NMTE_TXEvent^0,w,c
  7403   001740  6E22               	movwf	__uNMTELocalState^0,c
  7404   001742  EFA4  F00B         	goto	l808
  7405   001746                     l807:
  7406   001746  9E22               	bcf	__uNMTELocalState^0,7,c
  7407   001748                     l808:
  7408                           
  7409                           ;CANopen/CO_NMTE.c: 390:    if (_uCO_state.bits.b2) _uNMTELocalState.byte = _uNMTELocalS
      +                          tate.byte | 4;
  7410   001748  A42E               	btfss	__uCO_state^0,2,c
  7411   00174A  EFA9  F00B         	goto	u3151
  7412   00174E  EFAB  F00B         	goto	u3150
  7413   001752                     u3151:
  7414   001752  EFB0  F00B         	goto	l809
  7415   001756                     u3150:
  7416   001756  5022               	movf	__uNMTELocalState^0,w,c
  7417   001758  0904               	iorlw	4
  7418   00175A  6E22               	movwf	__uNMTELocalState^0,c
  7419   00175C  EFC6  F00B         	goto	l6708
  7420   001760                     l809:
  7421                           
  7422                           ;CANopen/CO_NMTE.c: 392:    if (_uCO_state.bits.b1) _uNMTELocalState.byte = _uNMTELocalS
      +                          tate.byte | 5;
  7423   001760  A22E               	btfss	__uCO_state^0,1,c
  7424   001762  EFB5  F00B         	goto	u3161
  7425   001766  EFB7  F00B         	goto	u3160
  7426   00176A                     u3161:
  7427   00176A  EFBC  F00B         	goto	l811
  7428   00176E                     u3160:
  7429   00176E  5022               	movf	__uNMTELocalState^0,w,c
  7430   001770  0905               	iorlw	5
  7431   001772  6E22               	movwf	__uNMTELocalState^0,c
  7432   001774  EFC6  F00B         	goto	l6708
  7433   001778                     l811:
  7434                           
  7435                           ;CANopen/CO_NMTE.c: 394:    if (_uCO_state.bits.b0) _uNMTELocalState.byte = _uNMTELocalS
      +                          tate.byte | 127;
  7436   001778  A02E               	btfss	__uCO_state^0,0,c
  7437   00177A  EFC1  F00B         	goto	u3171
  7438   00177E  EFC3  F00B         	goto	u3170
  7439   001782                     u3171:
  7440   001782  EFC6  F00B         	goto	l6708
  7441   001786                     u3170:
  7442   001786  5022               	movf	__uNMTELocalState^0,w,c
  7443   001788  097F               	iorlw	127
  7444   00178A  6E22               	movwf	__uNMTELocalState^0,c
  7445   00178C                     l6708:
  7446                           
  7447                           ;CANopen/CO_NMTE.c: 397:    (RXB0D0 = _uNMTELocalState.byte);
  7448   00178C  0060  F08B  FF86   	movff	__uNMTELocalState,16262	;volatile
  7449                           
  7450                           ;CANopen/CO_NMTE.c: 398:   }
  7451   001792  EFCE  F00B         	goto	l815
  7452   001796                     l806:
  7453                           
  7454                           ;CANopen/CO_NMTE.c: 400:   {;CANopen/CO_NMTE.c: 401:    _uNMTEState.bits.b0 = 0;
  7455   001796  9030               	bcf	__uNMTEState^0,0,c
  7456   001798                     
  7457                           ;CANopen/CO_NMTE.c: 402:    (RXB0D0 = 0);
  7458   001798  0E00               	movlw	0
  7459   00179A  6E86               	movwf	134,c	;volatile
  7460   00179C                     l815:
  7461   00179C  0012               	return		;funcret
  7462   00179E                     __end_of__CO_COMM_NMTE_TXEvent:
  7463                           	callstack 0
  7464                           
  7465 ;; *************** function __CO_COMM_NMTE_Open *****************
  7466 ;; Defined at:
  7467 ;;		line 253 in file "CANopen/CO_NMTE.c"
  7468 ;; Parameters:    Size  Location     Type
  7469 ;;		None
  7470 ;; Auto vars:     Size  Location     Type
  7471 ;;		None
  7472 ;; Return value:  Size  Location     Type
  7473 ;;                  1    wreg      void 
  7474 ;; Registers used:
  7475 ;;		wreg, fsr1l, fsr1h, fsr2l, fsr2h, status,2, status,0, prodl, prodh, cstack
  7476 ;; Tracked objects:
  7477 ;;		On entry : 0/0
  7478 ;;		On exit  : 0/0
  7479 ;;		Unchanged: 0/0
  7480 ;; Data sizes:     COMRAM   BANK0   BANK1   BANK2   BANK3   BANK4   BANK5   BANK6   BANK7   BANK8   BANK9  BANK10  BANK1
      +1  BANK12  BANK13  BANK14  BANK15
  7481 ;;      Params:         0       0       0       0       0       0       0       0       0       0       0       0       
      +0       0       0       0       0
  7482 ;;      Locals:         0       0       0       0       0       0       0       0       0       0       0       0       
      +0       0       0       0       0
  7483 ;;      Temps:          0       0       0       0       0       0       0       0       0       0       0       0       
      +0       0       0       0       0
  7484 ;;      Totals:         0       0       0       0       0       0       0       0       0       0       0       0       
      +0       0       0       0       0
  7485 ;;Total ram usage:        0 bytes
  7486 ;; Hardware stack levels used: 1
  7487 ;; Hardware stack levels required when called: 7
  7488 ;; This function calls:
  7489 ;;		__CANOpenMessage
  7490 ;;		__CO_COB_CANopen2MCHP
  7491 ;;		___wmul
  7492 ;; This function is called by:
  7493 ;;		__CO_COMMResetEventManager
  7494 ;; This function uses a non-reentrant model
  7495 ;;
  7496                           
  7497                           	psect	text39
  7498   001386                     __ptext39:
  7499                           	callstack 0
  7500   001386                     __CO_COMM_NMTE_Open:
  7501                           	callstack 22
  7502   001386                     
  7503                           ;CANopen/CO_NMTE.c: 256:  _uNMTE_COBID.word = 0x700L + _uCO_nodeID.byte;
  7504   001386  0E00               	movlw	0
  7505   001388  242F               	addwf	__uCO_nodeID^0,w,c
  7506   00138A  0100               	movlb	0	; () banked
  7507   00138C  6FA6               	movwf	__uNMTE_COBID& (0+255),b
  7508   00138E  6BA7               	clrf	(__uNMTE_COBID+1)& (0+255),b
  7509   001390  0E07               	movlw	7
  7510   001392  23A7               	addwfc	(__uNMTE_COBID+1)& (0+255),f,b
  7511   001394  6BA8               	clrf	(__uNMTE_COBID+2)& (0+255),b
  7512   001396  0E00               	movlw	0
  7513   001398  23A8               	addwfc	(__uNMTE_COBID+2)& (0+255),f,b
  7514   00139A  6BA9               	clrf	(__uNMTE_COBID+3)& (0+255),b
  7515   00139C  0E00               	movlw	0
  7516   00139E  23A9               	addwfc	(__uNMTE_COBID+3)& (0+255),f,b
  7517   0013A0                     
  7518                           ; BSR set to: 0
  7519                           ;CANopen/CO_NMTE.c: 257:  _uCOB_ID_in.word = _uNMTE_COBID.word; _CO_COB_CANopen2MCHP();;
  7520   0013A0  C0A6  F005         	movff	__uNMTE_COBID,__uCOB_ID_in
  7521   0013A4  C0A7  F006         	movff	__uNMTE_COBID+1,__uCOB_ID_in+1
  7522   0013A8  C0A8  F007         	movff	__uNMTE_COBID+2,__uCOB_ID_in+2
  7523   0013AC  C0A9  F008         	movff	__uNMTE_COBID+3,__uCOB_ID_in+3
  7524   0013B0                     
  7525                           ; BSR set to: 0
  7526   0013B0  EC2A  F00C         	call	__CO_COB_CANopen2MCHP	;wreg free
  7527   0013B4                     
  7528                           ;CANopen/CO_NMTE.c: 258:  _uNMTE_COBID.word = _uCOB_ID_out.word;
  7529   0013B4  C001  F0A6         	movff	__uCOB_ID_out,__uNMTE_COBID
  7530   0013B8  C002  F0A7         	movff	__uCOB_ID_out+1,__uNMTE_COBID+1
  7531   0013BC  C003  F0A8         	movff	__uCOB_ID_out+2,__uNMTE_COBID+2
  7532   0013C0  C004  F0A9         	movff	__uCOB_ID_out+3,__uNMTE_COBID+3
  7533   0013C4                     
  7534                           ;CANopen/CO_NMTE.c: 260:  _uNMTEState.byte = 0;
  7535   0013C4  0E00               	movlw	0
  7536   0013C6  6E30               	movwf	__uNMTEState^0,c
  7537   0013C8                     
  7538                           ;CANopen/CO_NMTE.c: 263:  if (_uNMTEHeartBeat.word)
  7539   0013C8  5012               	movf	__uNMTEHeartBeat^0,w,c
  7540   0013CA  1013               	iorwf	(__uNMTEHeartBeat+1)^0,w,c
  7541   0013CC  B4D8               	btfsc	status,2,c
  7542   0013CE  EFEB  F009         	goto	u5501
  7543   0013D2  EFED  F009         	goto	u5500
  7544   0013D6                     u5501:
  7545   0013D6  EFF7  F009         	goto	l9292
  7546   0013DA                     u5500:
  7547   0013DA                     
  7548                           ;CANopen/CO_NMTE.c: 264:  {;CANopen/CO_NMTE.c: 265:   _uNMTEState.bits.b1 = 1;
  7549   0013DA  8230               	bsf	__uNMTEState^0,1,c
  7550                           
  7551                           ;CANopen/CO_NMTE.c: 266:   _net_en.bits.b3 = 1;
  7552   0013DC  862C               	bsf	__net_en^0,3,c
  7553   0013DE                     
  7554                           ;CANopen/CO_NMTE.c: 267:   _uNMTETimer = _uNMTEHeartBeat.word;
  7555   0013DE  C012  F0AE         	movff	__uNMTEHeartBeat,__uNMTETimer
  7556   0013E2  C013  F0AF         	movff	__uNMTEHeartBeat+1,__uNMTETimer+1
  7557   0013E6  0100               	movlb	0	; () banked
  7558   0013E8  6BB0               	clrf	(__uNMTETimer+2)& (0+255),b
  7559                           
  7560                           ;CANopen/CO_NMTE.c: 268:  }
  7561   0013EA  EF37  F00A         	goto	l794
  7562   0013EE                     l9292:
  7563                           
  7564                           ;CANopen/CO_NMTE.c: 272:  if (_uNMTEGuardTime.word && _uNMTELifeFactor.byte)
  7565   0013EE  5010               	movf	__uNMTEGuardTime^0,w,c
  7566   0013F0  1011               	iorwf	(__uNMTEGuardTime+1)^0,w,c
  7567   0013F2  B4D8               	btfsc	status,2,c
  7568   0013F4  EFFE  F009         	goto	u5511
  7569   0013F8  EF00  F00A         	goto	u5510
  7570   0013FC                     u5511:
  7571   0013FC  EF37  F00A         	goto	l794
  7572   001400                     u5510:
  7573   001400  5021               	movf	__uNMTELifeFactor^0,w,c
  7574   001402  B4D8               	btfsc	status,2,c
  7575   001404  EF06  F00A         	goto	u5521
  7576   001408  EF08  F00A         	goto	u5520
  7577   00140C                     u5521:
  7578   00140C  EF37  F00A         	goto	l794
  7579   001410                     u5520:
  7580   001410                     
  7581                           ;CANopen/CO_NMTE.c: 273:  {;CANopen/CO_NMTE.c: 275:   _uCANOldMode = CANCON; _uCAN_Handl
      +                          e = (0x00) | 4; *((unsigned long *)(&_uCAN_Param1)) = _uNMTE_COBID.word; _CANOpenMessage
      +                          (); _hNMTE = _uCAN_ret;;
  7582   001410  006F FE3C  F031    	movff	16271,__uCANOldMode	;volatile
  7583   001416  0E04               	movlw	4
  7584   001418  6E36               	movwf	__uCAN_Handle^0,c
  7585   00141A  C0A6  F035         	movff	__uNMTE_COBID,__uCAN_Param1
  7586   00141E  C0A7  F036         	movff	__uNMTE_COBID+1,__uCAN_Param1+1
  7587   001422  C0A8  F037         	movff	__uNMTE_COBID+2,__uCAN_Param1+2
  7588   001426  C0A9  F038         	movff	__uNMTE_COBID+3,__uCAN_Param1+3
  7589   00142A  EC5E  F00E         	call	__CANOpenMessage	;wreg free
  7590   00142E  C034  F020         	movff	__uCAN_ret,__hNMTE
  7591   001432                     
  7592                           ;CANopen/CO_NMTE.c: 276:   if (_hNMTE)
  7593   001432  5020               	movf	__hNMTE^0,w,c
  7594   001434  B4D8               	btfsc	status,2,c
  7595   001436  EF1F  F00A         	goto	u5531
  7596   00143A  EF21  F00A         	goto	u5530
  7597   00143E                     u5531:
  7598   00143E  EF37  F00A         	goto	l794
  7599   001442                     u5530:
  7600   001442                     
  7601                           ;CANopen/CO_NMTE.c: 277:   {;CANopen/CO_NMTE.c: 278:    _net_en.bits.b3 = 1;
  7602   001442  862C               	bsf	__net_en^0,3,c
  7603   001444                     
  7604                           ;CANopen/CO_NMTE.c: 281:    _uNMTELocalState.byte = 0x80;
  7605   001444  0E80               	movlw	128
  7606   001446  6E22               	movwf	__uNMTELocalState^0,c
  7607   001448                     
  7608                           ;CANopen/CO_NMTE.c: 283:    _uNMTEState.bits.b2 = 1;
  7609   001448  8430               	bsf	__uNMTEState^0,2,c
  7610   00144A                     
  7611                           ;CANopen/CO_NMTE.c: 284:    _uNMTEState.bits.b1 = 1;
  7612   00144A  8230               	bsf	__uNMTEState^0,1,c
  7613   00144C                     
  7614                           ;CANopen/CO_NMTE.c: 285:    _uNMTETimer = _uNMTEGuardTime.word * _uNMTELifeFactor.byte;
  7615   00144C  C021  F120         	movff	__uNMTELifeFactor,___wmul@multiplier
  7616   001450  0101               	movlb	1	; () banked
  7617   001452  6B21               	clrf	(___wmul@multiplier+1)& (0+255),b
  7618   001454  C010  F122         	movff	__uNMTEGuardTime,___wmul@multiplicand
  7619   001458  C011  F123         	movff	__uNMTEGuardTime+1,___wmul@multiplicand+1
  7620   00145C  EC81  F011         	call	___wmul	;wreg free
  7621   001460  0101               	movlb	1	; () banked
  7622   001462  C120  F0AE         	movff	?___wmul,__uNMTETimer
  7623   001466  C121  F0AF         	movff	?___wmul+1,__uNMTETimer+1
  7624   00146A  0100               	movlb	0	; () banked
  7625   00146C  6BB0               	clrf	(__uNMTETimer+2)& (0+255),b
  7626   00146E                     l794:
  7627   00146E  0012               	return		;funcret
  7628   001470                     __end_of__CO_COMM_NMTE_Open:
  7629                           	callstack 0
  7630                           
  7631 ;; *************** function __CO_COB_CANopen2MCHP *****************
  7632 ;; Defined at:
  7633 ;;		line 180 in file "CANopen/CO_TOOLS.c"
  7634 ;; Parameters:    Size  Location     Type
  7635 ;;		None
  7636 ;; Auto vars:     Size  Location     Type
  7637 ;;		None
  7638 ;; Return value:  Size  Location     Type
  7639 ;;                  1    wreg      void 
  7640 ;; Registers used:
  7641 ;;		wreg, fsr2l, fsr2h, status,2, status,0
  7642 ;; Tracked objects:
  7643 ;;		On entry : 0/0
  7644 ;;		On exit  : 0/0
  7645 ;;		Unchanged: 0/0
  7646 ;; Data sizes:     COMRAM   BANK0   BANK1   BANK2   BANK3   BANK4   BANK5   BANK6   BANK7   BANK8   BANK9  BANK10  BANK1
      +1  BANK12  BANK13  BANK14  BANK15
  7647 ;;      Params:         0       0       0       0       0       0       0       0       0       0       0       0       
      +0       0       0       0       0
  7648 ;;      Locals:         0       0       0       0       0       0       0       0       0       0       0       0       
      +0       0       0       0       0
  7649 ;;      Temps:          2       0       0       0       0       0       0       0       0       0       0       0       
      +0       0       0       0       0
  7650 ;;      Totals:         2       0       0       0       0       0       0       0       0       0       0       0       
      +0       0       0       0       0
  7651 ;;Total ram usage:        2 bytes
  7652 ;; Hardware stack levels used: 1
  7653 ;; Hardware stack levels required when called: 6
  7654 ;; This function calls:
  7655 ;;		Nothing
  7656 ;; This function is called by:
  7657 ;;		__CO_COMM_NMTE_Open
  7658 ;;		__CO_COMM_SDO1_Open
  7659 ;;		_DemoInit
  7660 ;;		__CO_COMM_SYNC_COBIDAccessEvent
  7661 ;;		_CO_COMM_RPDO1_COBIDAccessEvent
  7662 ;;		_CO_COMM_TPDO1_COBIDAccessEvent
  7663 ;; This function uses a non-reentrant model
  7664 ;;
  7665                           
  7666                           	psect	text40
  7667   001854                     __ptext40:
  7668                           	callstack 0
  7669   001854                     __CO_COB_CANopen2MCHP:
  7670                           	callstack 22
  7671   001854                     
  7672                           ;CANopen/CO_TOOLS.c: 183:  if (_uCOB_ID_in.bytes.B3.byte & 0x20)
  7673   001854  AA08               	btfss	(__uCOB_ID_in+3)^0,5,c
  7674   001856  EF2F  F00C         	goto	u2851
  7675   00185A  EF31  F00C         	goto	u2850
  7676   00185E                     u2851:
  7677   00185E  EF59  F00C         	goto	l6400
  7678   001862                     u2850:
  7679   001862                     
  7680                           ;CANopen/CO_TOOLS.c: 184:  {;CANopen/CO_TOOLS.c: 186:   *(unsigned int *)(&_uCOB_ID_out.
      +                          bytes.B0.byte) = (*(unsigned int *)(&_uCOB_ID_in.bytes.B2.byte)) << 3;
  7681   001862  EE20  F007         	lfsr	2,__uCOB_ID_in+2
  7682   001866  006F FF78  F052    	movff	postinc2,??__CO_COB_CANopen2MCHP
  7683   00186C  006F FF74  F053    	movff	postdec2,??__CO_COB_CANopen2MCHP+1
  7684   001872  90D8               	bcf	status,0,c
  7685   001874  3652               	rlcf	??__CO_COB_CANopen2MCHP^0,f,c
  7686   001876  3653               	rlcf	(??__CO_COB_CANopen2MCHP+1)^0,f,c
  7687   001878  90D8               	bcf	status,0,c
  7688   00187A  3652               	rlcf	??__CO_COB_CANopen2MCHP^0,f,c
  7689   00187C  3653               	rlcf	(??__CO_COB_CANopen2MCHP+1)^0,f,c
  7690   00187E  90D8               	bcf	status,0,c
  7691   001880  3652               	rlcf	??__CO_COB_CANopen2MCHP^0,f,c
  7692   001882  3653               	rlcf	(??__CO_COB_CANopen2MCHP+1)^0,f,c
  7693   001884  C052  F001         	movff	??__CO_COB_CANopen2MCHP,__uCOB_ID_out
  7694   001888  C053  F002         	movff	??__CO_COB_CANopen2MCHP+1,__uCOB_ID_out+1
  7695   00188C                     
  7696                           ;CANopen/CO_TOOLS.c: 189:   _uCOB_ID_out.bytes.B3.byte = _uCOB_ID_out.bytes.B1.byte;
  7697   00188C  C002  F004         	movff	__uCOB_ID_out+1,__uCOB_ID_out+3
  7698   001890                     
  7699                           ;CANopen/CO_TOOLS.c: 192:   _uCOB_ID_out.bytes.B1.byte = ((_uCOB_ID_out.bytes.B0.byte & 
      +                          0xE0) | (_uCOB_ID_in.bytes.B2.byte & 0x03)) | 0x08;
  7700   001890  C007  F052         	movff	__uCOB_ID_in+2,??__CO_COB_CANopen2MCHP
  7701   001894  0E03               	movlw	3
  7702   001896  1652               	andwf	??__CO_COB_CANopen2MCHP^0,f,c
  7703   001898  5001               	movf	__uCOB_ID_out^0,w,c
  7704   00189A  0BE0               	andlw	224
  7705   00189C  1052               	iorwf	??__CO_COB_CANopen2MCHP^0,w,c
  7706   00189E  0908               	iorlw	8
  7707   0018A0  6E02               	movwf	(__uCOB_ID_out+1)^0,c
  7708   0018A2                     
  7709                           ;CANopen/CO_TOOLS.c: 195:   _uCOB_ID_out.bytes.B0.byte = _uCOB_ID_out.bytes.B3.byte;
  7710   0018A2  C004  F001         	movff	__uCOB_ID_out+3,__uCOB_ID_out
  7711   0018A6                     
  7712                           ;CANopen/CO_TOOLS.c: 198:   _uCOB_ID_out.bytes.B3.byte = _uCOB_ID_in.bytes.B0.byte;
  7713   0018A6  C005  F004         	movff	__uCOB_ID_in,__uCOB_ID_out+3
  7714   0018AA                     
  7715                           ;CANopen/CO_TOOLS.c: 199:   _uCOB_ID_out.bytes.B2.byte = _uCOB_ID_in.bytes.B1.byte;
  7716   0018AA  C006  F003         	movff	__uCOB_ID_in+1,__uCOB_ID_out+2
  7717                           
  7718                           ;CANopen/CO_TOOLS.c: 200:  }
  7719   0018AE  EF73  F00C         	goto	l6408
  7720   0018B2                     l6400:
  7721                           
  7722                           ;CANopen/CO_TOOLS.c: 203:  {;CANopen/CO_TOOLS.c: 205:   _uCOB_ID_out.word = ((unsigned i
      +                          nt)(_uCOB_ID_in.word) << 5);
  7723   0018B2  C005  F052         	movff	__uCOB_ID_in,??__CO_COB_CANopen2MCHP
  7724   0018B6  C006  F053         	movff	__uCOB_ID_in+1,??__CO_COB_CANopen2MCHP+1
  7725   0018BA  0E05               	movlw	5
  7726   0018BC                     u2865:
  7727   0018BC  90D8               	bcf	status,0,c
  7728   0018BE  3652               	rlcf	??__CO_COB_CANopen2MCHP^0,f,c
  7729   0018C0  3653               	rlcf	(??__CO_COB_CANopen2MCHP+1)^0,f,c
  7730   0018C2  2EE8               	decfsz	wreg,f,c
  7731   0018C4  EF5E  F00C         	goto	u2865
  7732   0018C8  C052  F001         	movff	??__CO_COB_CANopen2MCHP,__uCOB_ID_out
  7733   0018CC  C053  F002         	movff	??__CO_COB_CANopen2MCHP+1,__uCOB_ID_out+1
  7734   0018D0  6A03               	clrf	(__uCOB_ID_out+2)^0,c
  7735   0018D2  6A04               	clrf	(__uCOB_ID_out+3)^0,c
  7736   0018D4                     
  7737                           ;CANopen/CO_TOOLS.c: 206:   _uCOB_ID_out.bytes.B2.byte = _uCOB_ID_out.bytes.B0.byte;
  7738   0018D4  C001  F003         	movff	__uCOB_ID_out,__uCOB_ID_out+2
  7739   0018D8                     
  7740                           ;CANopen/CO_TOOLS.c: 207:   _uCOB_ID_out.bytes.B0.byte = _uCOB_ID_out.bytes.B1.byte;
  7741   0018D8  C002  F001         	movff	__uCOB_ID_out+1,__uCOB_ID_out
  7742                           
  7743                           ;CANopen/CO_TOOLS.c: 208:   _uCOB_ID_out.bytes.B1.byte = _uCOB_ID_out.bytes.B2.byte & 0x
      +                          E0;
  7744   0018DC  5003               	movf	(__uCOB_ID_out+2)^0,w,c
  7745   0018DE  0BE0               	andlw	224
  7746   0018E0  6E02               	movwf	(__uCOB_ID_out+1)^0,c
  7747   0018E2                     
  7748                           ;CANopen/CO_TOOLS.c: 209:   _uCOB_ID_out.bytes.B2.byte = 0;
  7749   0018E2  0E00               	movlw	0
  7750   0018E4  6E03               	movwf	(__uCOB_ID_out+2)^0,c
  7751   0018E6                     l6408:
  7752                           
  7753                           ;CANopen/CO_TOOLS.c: 213:  if (_uCOB_ID_in.bytes.B3.bits.b7) _uCOB_ID_out.bytes.B1.bits.
      +                          b4 = 1;
  7754   0018E6  AE08               	btfss	(__uCOB_ID_in+3)^0,7,c
  7755   0018E8  EF78  F00C         	goto	u2871
  7756   0018EC  EF7A  F00C         	goto	u2870
  7757   0018F0                     u2871:
  7758   0018F0  EF7B  F00C         	goto	l1122
  7759   0018F4                     u2870:
  7760   0018F4  8802               	bsf	(__uCOB_ID_out+1)^0,4,c
  7761   0018F6                     l1122:
  7762                           
  7763                           ;CANopen/CO_TOOLS.c: 214:  if (_uCOB_ID_in.bytes.B3.bits.b6) _uCOB_ID_out.bytes.B1.bits.
      +                          b2 = 1;
  7764   0018F6  AC08               	btfss	(__uCOB_ID_in+3)^0,6,c
  7765   0018F8  EF80  F00C         	goto	u2881
  7766   0018FC  EF82  F00C         	goto	u2880
  7767   001900                     u2881:
  7768   001900  EF83  F00C         	goto	l1124
  7769   001904                     u2880:
  7770   001904  8402               	bsf	(__uCOB_ID_out+1)^0,2,c
  7771   001906                     l1124:
  7772   001906  0012               	return		;funcret
  7773   001908                     __end_of__CO_COB_CANopen2MCHP:
  7774                           	callstack 0
  7775                           
  7776 ;; *************** function __CANOpenMessage *****************
  7777 ;; Defined at:
  7778 ;;		line 555 in file "CANopen/CO_CANDRV.c"
  7779 ;; Parameters:    Size  Location     Type
  7780 ;;		None
  7781 ;; Auto vars:     Size  Location     Type
  7782 ;;  i               1   12[COMRAM] unsigned char 
  7783 ;; Return value:  Size  Location     Type
  7784 ;;                  1    wreg      void 
  7785 ;; Registers used:
  7786 ;;		wreg, fsr1l, fsr1h, fsr2l, fsr2h, status,2, status,0, prodl, prodh
  7787 ;; Tracked objects:
  7788 ;;		On entry : 0/0
  7789 ;;		On exit  : 0/0
  7790 ;;		Unchanged: 0/0
  7791 ;; Data sizes:     COMRAM   BANK0   BANK1   BANK2   BANK3   BANK4   BANK5   BANK6   BANK7   BANK8   BANK9  BANK10  BANK1
      +1  BANK12  BANK13  BANK14  BANK15
  7792 ;;      Params:         0       0       0       0       0       0       0       0       0       0       0       0       
      +0       0       0       0       0
  7793 ;;      Locals:         1       0       0       0       0       0       0       0       0       0       0       0       
      +0       0       0       0       0
  7794 ;;      Temps:          0       0       0       0       0       0       0       0       0       0       0       0       
      +0       0       0       0       0
  7795 ;;      Totals:         1       0       0       0       0       0       0       0       0       0       0       0       
      +0       0       0       0       0
  7796 ;;Total ram usage:        1 bytes
  7797 ;; Hardware stack levels used: 1
  7798 ;; Hardware stack levels required when called: 6
  7799 ;; This function calls:
  7800 ;;		Nothing
  7801 ;; This function is called by:
  7802 ;;		__CO_COMM_NMT_Open
  7803 ;;		__CO_COMM_NMTE_Open
  7804 ;;		__CO_COMM_PDO1_Open
  7805 ;;		__CO_COMM_SDO1_Open
  7806 ;;		__CO_COMM_SYNC_Open
  7807 ;; This function uses a non-reentrant model
  7808 ;;
  7809                           
  7810                           	psect	text41
  7811   001CBC                     __ptext41:
  7812                           	callstack 0
  7813   001CBC                     __CANOpenMessage:
  7814                           	callstack 22
  7815   001CBC                     
  7816                           ;CANopen/CO_CANDRV.c: 557:  unsigned char i;;CANopen/CO_CANDRV.c: 560:  for (i = 0; i < 
      +                          8; i++)
  7817   001CBC  0E00               	movlw	0
  7818   001CBE  6E52               	movwf	__CANOpenMessage@i^0,c
  7819   001CC0                     l6370:
  7820                           
  7821                           ;CANopen/CO_CANDRV.c: 561:  {;CANopen/CO_CANDRV.c: 562:   if (_uCANRxHndls[i] == 0)
  7822   001CC0  0E84               	movlw	low __uCANRxHndls
  7823   001CC2  2452               	addwf	__CANOpenMessage@i^0,w,c
  7824   001CC4  6ED9               	movwf	fsr2l,c
  7825   001CC6  6ADA               	clrf	fsr2h,c
  7826   001CC8  0E00               	movlw	high __uCANRxHndls
  7827   001CCA  22DA               	addwfc	fsr2h,f,c
  7828   001CCC  50DF               	movf	indf2,w,c
  7829   001CCE  A4D8               	btfss	status,2,c
  7830   001CD0  EF6C  F00E         	goto	u2831
  7831   001CD4  EF6E  F00E         	goto	u2830
  7832   001CD8                     u2831:
  7833   001CD8  EF94  F00E         	goto	l6380
  7834   001CDC                     u2830:
  7835   001CDC                     
  7836                           ;CANopen/CO_CANDRV.c: 563:   {;CANopen/CO_CANDRV.c: 565:    _uCAN_ret = _uCANRxHndls[i] 
      +                          = _uCAN_Handle;
  7837   001CDC  0E84               	movlw	low __uCANRxHndls
  7838   001CDE  2452               	addwf	__CANOpenMessage@i^0,w,c
  7839   001CE0  6ED9               	movwf	fsr2l,c
  7840   001CE2  6ADA               	clrf	fsr2h,c
  7841   001CE4  0E00               	movlw	high __uCANRxHndls
  7842   001CE6  22DA               	addwfc	fsr2h,f,c
  7843   001CE8  0060  F0DB  FFDF   	movff	__uCAN_Handle,indf2
  7844   001CEE  006F FF7C  F034    	movff	indf2,__uCAN_ret
  7845   001CF4                     
  7846                           ;CANopen/CO_CANDRV.c: 568:    _uCANRxIDRes[i].dword = *(unsigned long *)(&_uCAN_Param1);
  7847   001CF4  EE20  F035         	lfsr	2,__uCAN_Param1
  7848   001CF8  5052               	movf	__CANOpenMessage@i^0,w,c
  7849   001CFA  0D04               	mullw	4
  7850   001CFC  0E00               	movlw	low __uCANRxIDRes
  7851   001CFE  24F3               	addwf	243,w,c
  7852   001D00  6EE1               	movwf	fsr1l,c
  7853   001D02  0E01               	movlw	high __uCANRxIDRes
  7854   001D04  20F4               	addwfc	prodh,w,c
  7855   001D06  6EE2               	movwf	fsr1h,c
  7856   001D08  006F FF7B FFE6     	movff	postinc2,postinc1
  7857   001D0E  006F FF7B FFE6     	movff	postinc2,postinc1
  7858   001D14  006F FF7B FFE6     	movff	postinc2,postinc1
  7859   001D1A  006F FF7B FFE6     	movff	postinc2,postinc1
  7860   001D20                     
  7861                           ;CANopen/CO_CANDRV.c: 571:    _uCANReq = 1;
  7862   001D20  0E01               	movlw	1
  7863   001D22  6E32               	movwf	__uCANReq^0,c
  7864   001D24  EF9F  F00E         	goto	l206
  7865   001D28                     l6380:
  7866                           
  7867                           ;CANopen/CO_CANDRV.c: 575:  }
  7868   001D28  2A52               	incf	__CANOpenMessage@i^0,f,c
  7869   001D2A  0E07               	movlw	7
  7870   001D2C  6452               	cpfsgt	__CANOpenMessage@i^0,c
  7871   001D2E  EF9B  F00E         	goto	u2841
  7872   001D32  EF9D  F00E         	goto	u2840
  7873   001D36                     u2841:
  7874   001D36  EF60  F00E         	goto	l6370
  7875   001D3A                     u2840:
  7876   001D3A                     
  7877                           ;CANopen/CO_CANDRV.c: 577:  _uCAN_ret = 0;
  7878   001D3A  0E00               	movlw	0
  7879   001D3C  6E34               	movwf	__uCAN_ret^0,c
  7880   001D3E                     l206:
  7881   001D3E  0012               	return		;funcret
  7882   001D40                     __end_of__CANOpenMessage:
  7883                           	callstack 0
  7884                           
  7885 ;; *************** function __CANReset *****************
  7886 ;; Defined at:
  7887 ;;		line 230 in file "CANopen/CO_CANDRV.c"
  7888 ;; Parameters:    Size  Location     Type
  7889 ;;		None
  7890 ;; Auto vars:     Size  Location     Type
  7891 ;;		None
  7892 ;; Return value:  Size  Location     Type
  7893 ;;                  1    wreg      void 
  7894 ;; Registers used:
  7895 ;;		wreg, status,2, status,0, cstack
  7896 ;; Tracked objects:
  7897 ;;		On entry : 0/0
  7898 ;;		On exit  : 0/0
  7899 ;;		Unchanged: 0/0
  7900 ;; Data sizes:     COMRAM   BANK0   BANK1   BANK2   BANK3   BANK4   BANK5   BANK6   BANK7   BANK8   BANK9  BANK10  BANK1
      +1  BANK12  BANK13  BANK14  BANK15
  7901 ;;      Params:         0       0       0       0       0       0       0       0       0       0       0       0       
      +0       0       0       0       0
  7902 ;;      Locals:         0       0       0       0       0       0       0       0       0       0       0       0       
      +0       0       0       0       0
  7903 ;;      Temps:          0       0       0       0       0       0       0       0       0       0       0       0       
      +0       0       0       0       0
  7904 ;;      Totals:         0       0       0       0       0       0       0       0       0       0       0       0       
      +0       0       0       0       0
  7905 ;;Total ram usage:        0 bytes
  7906 ;; Hardware stack levels used: 1
  7907 ;; Hardware stack levels required when called: 7
  7908 ;; This function calls:
  7909 ;;		__CANSetBitRate
  7910 ;; This function is called by:
  7911 ;;		__CO_COMMResetEventManager
  7912 ;; This function uses a non-reentrant model
  7913 ;;
  7914                           
  7915                           	psect	text42
  7916   001908                     __ptext42:
  7917                           	callstack 0
  7918   001908                     __CANReset:
  7919                           	callstack 22
  7920   001908                     
  7921                           ;CANopen/CO_CANDRV.c: 233:  _uCANReq = 0;
  7922   001908  0E00               	movlw	0
  7923   00190A  6E32               	movwf	__uCANReq^0,c
  7924                           
  7925                           ;CANopen/CO_CANDRV.c: 236:  CANCON = 0x40;
  7926   00190C  0E40               	movlw	64
  7927   00190E  6E8F               	movwf	143,c	;volatile
  7928                           
  7929                           ;CANopen/CO_CANDRV.c: 237:  CANCON = 0x80;
  7930   001910  0E80               	movlw	128
  7931   001912  6E8F               	movwf	143,c	;volatile
  7932   001914                     
  7933                           ;CANopen/CO_CANDRV.c: 240:  _CANSetBitRate();
  7934   001914  EC33  F00D         	call	__CANSetBitRate	;wreg free
  7935   001918                     
  7936                           ;CANopen/CO_CANDRV.c: 243:  BSEL0 = 0x00;
  7937   001918  0E00               	movlw	0
  7938   00191A  0137               	movlb	55	; () banked
  7939   00191C  6F3D               	movwf	61,b	;volatile
  7940   00191E                     
  7941                           ; BSR set to: 55
  7942                           ;CANopen/CO_CANDRV.c: 246:  RXB0CON = 0;
  7943   00191E  0E00               	movlw	0
  7944   001920  6E80               	movwf	128,c	;volatile
  7945   001922                     
  7946                           ; BSR set to: 55
  7947                           ;CANopen/CO_CANDRV.c: 247:  RXB1CON = 0;
  7948   001922  0E00               	movlw	0
  7949   001924  6FF0               	movwf	240,b	;volatile
  7950   001926                     
  7951                           ; BSR set to: 55
  7952                           ;CANopen/CO_CANDRV.c: 248:  B0CON = 0;
  7953   001926  0E00               	movlw	0
  7954   001928  6F40               	movwf	64,b	;volatile
  7955   00192A                     
  7956                           ; BSR set to: 55
  7957                           ;CANopen/CO_CANDRV.c: 249:  B1CON = 0;
  7958   00192A  0E00               	movlw	0
  7959   00192C  6F50               	movwf	80,b	;volatile
  7960   00192E                     
  7961                           ; BSR set to: 55
  7962                           ;CANopen/CO_CANDRV.c: 250:  B2CON = 0;
  7963   00192E  0E00               	movlw	0
  7964   001930  6F60               	movwf	96,b	;volatile
  7965   001932                     
  7966                           ; BSR set to: 55
  7967                           ;CANopen/CO_CANDRV.c: 251:  B3CON = 0;
  7968   001932  0E00               	movlw	0
  7969   001934  6F70               	movwf	112,b	;volatile
  7970   001936                     
  7971                           ; BSR set to: 55
  7972                           ;CANopen/CO_CANDRV.c: 252:  B4CON = 0;
  7973   001936  0E00               	movlw	0
  7974   001938  6F80               	movwf	128,b	;volatile
  7975   00193A                     
  7976                           ; BSR set to: 55
  7977                           ;CANopen/CO_CANDRV.c: 253:  B5CON = 0;
  7978   00193A  0E00               	movlw	0
  7979   00193C  6F90               	movwf	144,b	;volatile
  7980   00193E                     
  7981                           ; BSR set to: 55
  7982                           ;CANopen/CO_CANDRV.c: 257:  ECANCON = 0x50;
  7983   00193E  0E50               	movlw	80
  7984   001940  6E91               	movwf	145,c	;volatile
  7985   001942                     
  7986                           ; BSR set to: 55
  7987                           ;CANopen/CO_CANDRV.c: 260:  RXFCON0 = 0;
  7988   001942  0E00               	movlw	0
  7989   001944  6F06               	movwf	6,b	;volatile
  7990   001946                     
  7991                           ; BSR set to: 55
  7992                           ;CANopen/CO_CANDRV.c: 261:  RXFCON1 = 0;
  7993   001946  0E00               	movlw	0
  7994   001948  6F07               	movwf	7,b	;volatile
  7995   00194A                     
  7996                           ; BSR set to: 55
  7997                           ;CANopen/CO_CANDRV.c: 264:  SDFLC = 0;
  7998   00194A  0E00               	movlw	0
  7999   00194C  6F30               	movwf	48,b	;volatile
  8000   00194E                     
  8001                           ; BSR set to: 55
  8002                           ;CANopen/CO_CANDRV.c: 267:  RXFBCON0 = 0x00;
  8003   00194E  0E00               	movlw	0
  8004   001950  6F31               	movwf	49,b	;volatile
  8005   001952                     
  8006                           ; BSR set to: 55
  8007                           ;CANopen/CO_CANDRV.c: 268:  RXFBCON1 = 0x11;
  8008   001952  0E11               	movlw	17
  8009   001954  6F32               	movwf	50,b	;volatile
  8010   001956                     
  8011                           ; BSR set to: 55
  8012                           ;CANopen/CO_CANDRV.c: 269:  RXFBCON2 = 0x22;
  8013   001956  0E22               	movlw	34
  8014   001958  6F33               	movwf	51,b	;volatile
  8015   00195A                     
  8016                           ; BSR set to: 55
  8017                           ;CANopen/CO_CANDRV.c: 270:  RXFBCON3 = 0x33;
  8018   00195A  0E33               	movlw	51
  8019   00195C  6F34               	movwf	52,b	;volatile
  8020   00195E                     
  8021                           ; BSR set to: 55
  8022                           ;CANopen/CO_CANDRV.c: 271:  RXFBCON4 = 0x44;
  8023   00195E  0E44               	movlw	68
  8024   001960  6F35               	movwf	53,b	;volatile
  8025   001962                     
  8026                           ; BSR set to: 55
  8027                           ;CANopen/CO_CANDRV.c: 272:  RXFBCON5 = 0x55;
  8028   001962  0E55               	movlw	85
  8029   001964  6F36               	movwf	54,b	;volatile
  8030   001966                     
  8031                           ; BSR set to: 55
  8032                           ;CANopen/CO_CANDRV.c: 273:  RXFBCON6 = 0x66;
  8033   001966  0E66               	movlw	102
  8034   001968  6F37               	movwf	55,b	;volatile
  8035   00196A                     
  8036                           ; BSR set to: 55
  8037                           ;CANopen/CO_CANDRV.c: 274:  RXFBCON7 = 0x77;
  8038   00196A  0E77               	movlw	119
  8039   00196C  6F38               	movwf	56,b	;volatile
  8040   00196E                     
  8041                           ; BSR set to: 55
  8042                           ;CANopen/CO_CANDRV.c: 277:  MSEL0 = MSEL1 = MSEL2 = MSEL3 = 0;
  8043   00196E  0E00               	movlw	0
  8044   001970  6F3C               	movwf	60,b	;volatile
  8045   001972  006D FCF3 F73B     	movff	14140,14139	;volatile
  8046   001978  006D FCEF F73A     	movff	14139,14138	;volatile
  8047   00197E  006D FCEB F739     	movff	14138,14137	;volatile
  8048   001984                     
  8049                           ; BSR set to: 55
  8050                           ;CANopen/CO_CANDRV.c: 280:  RXM0SIDH = 0xFF;
  8051   001984  69B8               	setf	184,b	;volatile
  8052   001986                     
  8053                           ; BSR set to: 55
  8054                           ;CANopen/CO_CANDRV.c: 281:  RXM0SIDL = 0xE3;
  8055   001986  0EE3               	movlw	227
  8056   001988  6FB9               	movwf	185,b	;volatile
  8057   00198A                     
  8058                           ; BSR set to: 55
  8059                           ;CANopen/CO_CANDRV.c: 282:  RXM0EIDH = 0xFF;
  8060   00198A  69BA               	setf	186,b	;volatile
  8061   00198C                     
  8062                           ; BSR set to: 55
  8063                           ;CANopen/CO_CANDRV.c: 283:  RXM0EIDL = 0xFF;
  8064   00198C  69BB               	setf	187,b	;volatile
  8065   00198E                     
  8066                           ; BSR set to: 55
  8067                           ;CANopen/CO_CANDRV.c: 286:  CIOCON = 0x20;
  8068   00198E  0E20               	movlw	32
  8069   001990  6F00               	movwf	0,b	;volatile
  8070   001992                     
  8071                           ; BSR set to: 55
  8072                           ;CANopen/CO_CANDRV.c: 289:  TXBIE = 0x1C;
  8073   001992  0E1C               	movlw	28
  8074   001994  6F3F               	movwf	63,b	;volatile
  8075   001996                     
  8076                           ; BSR set to: 55
  8077                           ;CANopen/CO_CANDRV.c: 290:  BIE0 = 0xFF;
  8078   001996  693E               	setf	62,b	;volatile
  8079   001998                     
  8080                           ; BSR set to: 55
  8081                           ;CANopen/CO_CANDRV.c: 293:  _uCANRxHndls[0] = 0;
  8082   001998  0E00               	movlw	0
  8083   00199A  0100               	movlb	0	; () banked
  8084   00199C  6F84               	movwf	__uCANRxHndls& (0+255),b
  8085   00199E                     
  8086                           ; BSR set to: 0
  8087                           ;CANopen/CO_CANDRV.c: 295:  _uCANRxHndls[1] = 0;
  8088   00199E  0E00               	movlw	0
  8089   0019A0  6F85               	movwf	(__uCANRxHndls+1)& (0+255),b
  8090   0019A2                     
  8091                           ; BSR set to: 0
  8092                           ;CANopen/CO_CANDRV.c: 298:  _uCANRxHndls[2] = 0;
  8093   0019A2  0E00               	movlw	0
  8094   0019A4  6F86               	movwf	(__uCANRxHndls+2)& (0+255),b
  8095   0019A6                     
  8096                           ; BSR set to: 0
  8097                           ;CANopen/CO_CANDRV.c: 301:  _uCANRxHndls[3] = 0;
  8098   0019A6  0E00               	movlw	0
  8099   0019A8  6F87               	movwf	(__uCANRxHndls+3)& (0+255),b
  8100   0019AA                     
  8101                           ; BSR set to: 0
  8102                           ;CANopen/CO_CANDRV.c: 304:  _uCANRxHndls[4] = 0;
  8103   0019AA  0E00               	movlw	0
  8104   0019AC  6F88               	movwf	(__uCANRxHndls+4)& (0+255),b
  8105   0019AE                     
  8106                           ; BSR set to: 0
  8107                           ;CANopen/CO_CANDRV.c: 307:  _uCANRxHndls[5] = 0;
  8108   0019AE  0E00               	movlw	0
  8109   0019B0  6F89               	movwf	(__uCANRxHndls+5)& (0+255),b
  8110   0019B2                     
  8111                           ; BSR set to: 0
  8112                           ;CANopen/CO_CANDRV.c: 310:  _uCANRxHndls[6] = 0;
  8113   0019B2  0E00               	movlw	0
  8114   0019B4  6F8A               	movwf	(__uCANRxHndls+6)& (0+255),b
  8115   0019B6                     
  8116                           ; BSR set to: 0
  8117                           ;CANopen/CO_CANDRV.c: 313:  _uCANRxHndls[7] = 0;
  8118   0019B6  0E00               	movlw	0
  8119   0019B8  6F8B               	movwf	(__uCANRxHndls+7)& (0+255),b
  8120   0019BA                     
  8121                           ; BSR set to: 0
  8122   0019BA  0012               	return		;funcret
  8123   0019BC                     __end_of__CANReset:
  8124                           	callstack 0
  8125                           
  8126 ;; *************** function __CANIsPutReady *****************
  8127 ;; Defined at:
  8128 ;;		line 467 in file "CANopen/CO_CANDRV.c"
  8129 ;; Parameters:    Size  Location     Type
  8130 ;;		None
  8131 ;; Auto vars:     Size  Location     Type
  8132 ;;		None
  8133 ;; Return value:  Size  Location     Type
  8134 ;;                  1    wreg      void 
  8135 ;; Registers used:
  8136 ;;		wreg, status,2
  8137 ;; Tracked objects:
  8138 ;;		On entry : 0/0
  8139 ;;		On exit  : 0/0
  8140 ;;		Unchanged: 0/0
  8141 ;; Data sizes:     COMRAM   BANK0   BANK1   BANK2   BANK3   BANK4   BANK5   BANK6   BANK7   BANK8   BANK9  BANK10  BANK1
      +1  BANK12  BANK13  BANK14  BANK15
  8142 ;;      Params:         0       0       0       0       0       0       0       0       0       0       0       0       
      +0       0       0       0       0
  8143 ;;      Locals:         0       0       0       0       0       0       0       0       0       0       0       0       
      +0       0       0       0       0
  8144 ;;      Temps:          0       0       0       0       0       0       0       0       0       0       0       0       
      +0       0       0       0       0
  8145 ;;      Totals:         0       0       0       0       0       0       0       0       0       0       0       0       
      +0       0       0       0       0
  8146 ;;Total ram usage:        0 bytes
  8147 ;; Hardware stack levels used: 1
  8148 ;; Hardware stack levels required when called: 6
  8149 ;; This function calls:
  8150 ;;		Nothing
  8151 ;; This function is called by:
  8152 ;;		__CO_COMMResetEventManager
  8153 ;;		__CO_COMMTXRdyEventManager
  8154 ;; This function uses a non-reentrant model
  8155 ;;
  8156                           
  8157                           	psect	text43
  8158   001F6C                     __ptext43:
  8159                           	callstack 0
  8160   001F6C                     __CANIsPutReady:
  8161                           	callstack 23
  8162   001F6C                     
  8163                           ;CANopen/CO_CANDRV.c: 470:  if (!TXB0CONbits.TXREQ) {ECANCON = 0x43; _uCAN_ret = _uCANTx
      +                          Hndls[0] = _uCAN_Handle;}
  8164   001F6C  0137               	movlb	55	; () banked
  8165   001F6E  B7E0               	btfsc	224,3,b	;volatile
  8166   001F70  EFBC  F00F         	goto	u3011
  8167   001F74  EFBE  F00F         	goto	u3010
  8168   001F78                     u3011:
  8169   001F78  EFC6  F00F         	goto	l185
  8170   001F7C                     u3010:
  8171   001F7C                     
  8172                           ; BSR set to: 55
  8173   001F7C  0E43               	movlw	67
  8174   001F7E  6E91               	movwf	145,c	;volatile
  8175   001F80                     
  8176                           ; BSR set to: 55
  8177   001F80  C036  F0B1         	movff	__uCAN_Handle,__uCANTxHndls
  8178   001F84  C0B1  F034         	movff	__uCANTxHndls,__uCAN_ret
  8179   001F88  EFE6  F00F         	goto	l191
  8180   001F8C                     l185:
  8181                           
  8182                           ; BSR set to: 55
  8183   001F8C  B7D0               	btfsc	208,3,b	;volatile
  8184   001F8E  EFCB  F00F         	goto	u3021
  8185   001F92  EFCD  F00F         	goto	u3020
  8186   001F96                     u3021:
  8187   001F96  EFD5  F00F         	goto	l187
  8188   001F9A                     u3020:
  8189   001F9A                     
  8190                           ; BSR set to: 55
  8191   001F9A  0E44               	movlw	68
  8192   001F9C  6E91               	movwf	145,c	;volatile
  8193   001F9E                     
  8194                           ; BSR set to: 55
  8195   001F9E  C036  F0B2         	movff	__uCAN_Handle,__uCANTxHndls+1
  8196   001FA2  C0B2  F034         	movff	__uCANTxHndls+1,__uCAN_ret
  8197   001FA6  EFE6  F00F         	goto	l191
  8198   001FAA                     l187:
  8199                           
  8200                           ; BSR set to: 55
  8201   001FAA  B7C0               	btfsc	192,3,b	;volatile
  8202   001FAC  EFDA  F00F         	goto	u3031
  8203   001FB0  EFDC  F00F         	goto	u3030
  8204   001FB4                     u3031:
  8205   001FB4  EFE4  F00F         	goto	l6576
  8206   001FB8                     u3030:
  8207   001FB8                     
  8208                           ; BSR set to: 55
  8209   001FB8  0E45               	movlw	69
  8210   001FBA  6E91               	movwf	145,c	;volatile
  8211   001FBC                     
  8212                           ; BSR set to: 55
  8213   001FBC  C036  F0B3         	movff	__uCAN_Handle,__uCANTxHndls+2
  8214   001FC0  C0B3  F034         	movff	__uCANTxHndls+2,__uCAN_ret
  8215   001FC4  EFE6  F00F         	goto	l191
  8216   001FC8                     l6576:
  8217                           
  8218                           ; BSR set to: 55
  8219   001FC8  0E00               	movlw	0
  8220   001FCA  6E34               	movwf	__uCAN_ret^0,c
  8221   001FCC                     l191:
  8222                           
  8223                           ; BSR set to: 55
  8224   001FCC  0012               	return		;funcret
  8225   001FCE                     __end_of__CANIsPutReady:
  8226                           	callstack 0
  8227                           
  8228 ;; *************** function __CANEventManager *****************
  8229 ;; Defined at:
  8230 ;;		line 107 in file "CANopen/CO_CANDRV.c"
  8231 ;; Parameters:    Size  Location     Type
  8232 ;;		None
  8233 ;; Auto vars:     Size  Location     Type
  8234 ;;		None
  8235 ;; Return value:  Size  Location     Type
  8236 ;;                  1    wreg      void 
  8237 ;; Registers used:
  8238 ;;		wreg, status,2, status,0, cstack
  8239 ;; Tracked objects:
  8240 ;;		On entry : 0/0
  8241 ;;		On exit  : 0/0
  8242 ;;		Unchanged: 0/0
  8243 ;; Data sizes:     COMRAM   BANK0   BANK1   BANK2   BANK3   BANK4   BANK5   BANK6   BANK7   BANK8   BANK9  BANK10  BANK1
      +1  BANK12  BANK13  BANK14  BANK15
  8244 ;;      Params:         0       0       0       0       0       0       0       0       0       0       0       0       
      +0       0       0       0       0
  8245 ;;      Locals:         0       0       0       0       0       0       0       0       0       0       0       0       
      +0       0       0       0       0
  8246 ;;      Temps:          0       0       2       0       0       0       0       0       0       0       0       0       
      +0       0       0       0       0
  8247 ;;      Totals:         0       0       2       0       0       0       0       0       0       0       0       0       
      +0       0       0       0       0
  8248 ;;Total ram usage:        2 bytes
  8249 ;; Hardware stack levels used: 1
  8250 ;; Hardware stack levels required when called: 7
  8251 ;; This function calls:
  8252 ;;		__CANSetBitRate
  8253 ;; This function is called by:
  8254 ;;		__CO_COMMResetEventManager
  8255 ;;		_CO_ProcessAllEvents
  8256 ;; This function uses a non-reentrant model
  8257 ;;
  8258                           
  8259                           	psect	text44
  8260   000C38                     __ptext44:
  8261                           	callstack 0
  8262   000C38                     __CANEventManager:
  8263                           	callstack 22
  8264   000C38                     
  8265                           ;CANopen/CO_CANDRV.c: 109:  if (_uCANReq)
  8266   000C38  5032               	movf	__uCANReq^0,w,c
  8267   000C3A  B4D8               	btfsc	status,2,c
  8268   000C3C  EF22  F006         	goto	u5391
  8269   000C40  EF24  F006         	goto	u5390
  8270   000C44                     u5391:
  8271   000C44  EF31  F007         	goto	l164
  8272   000C48                     u5390:
  8273   000C48  EF1B  F007         	goto	l9266
  8274   000C4C                     l141:
  8275                           
  8276                           ; BSR set to: 1
  8277                           ;CANopen/CO_CANDRV.c: 116:     if (CANSTATbits.OPMODE2)
  8278   000C4C  AE8E               	btfss	142,7,c	;volatile
  8279   000C4E  EF2B  F006         	goto	u5401
  8280   000C52  EF2D  F006         	goto	u5400
  8281   000C56                     u5401:
  8282   000C56  EF0C  F007         	goto	l9254
  8283   000C5A                     u5400:
  8284   000C5A                     
  8285                           ; BSR set to: 1
  8286                           ;CANopen/CO_CANDRV.c: 117:     {;CANopen/CO_CANDRV.c: 118:      if (_uCANRxHndls[0]) {*(
      +                          _FILTER *)(&RXF0SIDH) = _uCANRxIDRes[0]; RXFCON0bits.RXF0EN = 1;}
  8287   000C5A  0100               	movlb	0	; () banked
  8288   000C5C  5184               	movf	__uCANRxHndls& (0+255),w,b
  8289   000C5E  B4D8               	btfsc	status,2,c
  8290   000C60  EF34  F006         	goto	u5411
  8291   000C64  EF36  F006         	goto	u5410
  8292   000C68                     u5411:
  8293   000C68  EF46  F006         	goto	l143
  8294   000C6C                     u5410:
  8295   000C6C                     
  8296                           ; BSR set to: 0
  8297   000C6C  0060  F403  F7A0   	movff	__uCANRxIDRes,14240	;volatile
  8298   000C72  0060  F407  F7A1   	movff	__uCANRxIDRes+1,14241	;volatile
  8299   000C78  0060  F40B  F7A2   	movff	__uCANRxIDRes+2,14242	;volatile
  8300   000C7E  0060  F40F  F7A3   	movff	__uCANRxIDRes+3,14243	;volatile
  8301   000C84  0137               	movlb	55	; () banked
  8302   000C86  8106               	bsf	6,0,b	;volatile
  8303   000C88  EF48  F006         	goto	l9222
  8304   000C8C                     l143:
  8305                           
  8306                           ; BSR set to: 0
  8307   000C8C  0137               	movlb	55	; () banked
  8308   000C8E  9106               	bcf	6,0,b	;volatile
  8309   000C90                     l9222:
  8310                           
  8311                           ; BSR set to: 55
  8312                           ;CANopen/CO_CANDRV.c: 121:      if (_uCANRxHndls[1]) {*(_FILTER *)(&RXF1SIDH) = _uCANRxI
      +                          DRes[1]; RXFCON0bits.RXF1EN = 1;}
  8313   000C90  0100               	movlb	0	; () banked
  8314   000C92  5185               	movf	(__uCANRxHndls+1)& (0+255),w,b
  8315   000C94  B4D8               	btfsc	status,2,c
  8316   000C96  EF4F  F006         	goto	u5421
  8317   000C9A  EF51  F006         	goto	u5420
  8318   000C9E                     u5421:
  8319   000C9E  EF61  F006         	goto	l145
  8320   000CA2                     u5420:
  8321   000CA2                     
  8322                           ; BSR set to: 0
  8323   000CA2  0060  F413  F7A4   	movff	__uCANRxIDRes+4,14244	;volatile
  8324   000CA8  0060  F417  F7A5   	movff	__uCANRxIDRes+5,14245	;volatile
  8325   000CAE  0060  F41B  F7A6   	movff	__uCANRxIDRes+6,14246	;volatile
  8326   000CB4  0060  F41F  F7A7   	movff	__uCANRxIDRes+7,14247	;volatile
  8327   000CBA  0137               	movlb	55	; () banked
  8328   000CBC  8306               	bsf	6,1,b	;volatile
  8329   000CBE  EF63  F006         	goto	l9226
  8330   000CC2                     l145:
  8331                           
  8332                           ; BSR set to: 0
  8333   000CC2  0137               	movlb	55	; () banked
  8334   000CC4  9306               	bcf	6,1,b	;volatile
  8335   000CC6                     l9226:
  8336                           
  8337                           ; BSR set to: 55
  8338                           ;CANopen/CO_CANDRV.c: 125:      if (_uCANRxHndls[2]) {*(_FILTER *)(&RXF2SIDH) = _uCANRxI
      +                          DRes[2]; RXFCON0bits.RXF2EN = 1;}
  8339   000CC6  0100               	movlb	0	; () banked
  8340   000CC8  5186               	movf	(__uCANRxHndls+2)& (0+255),w,b
  8341   000CCA  B4D8               	btfsc	status,2,c
  8342   000CCC  EF6A  F006         	goto	u5431
  8343   000CD0  EF6C  F006         	goto	u5430
  8344   000CD4                     u5431:
  8345   000CD4  EF7C  F006         	goto	l147
  8346   000CD8                     u5430:
  8347   000CD8                     
  8348                           ; BSR set to: 0
  8349   000CD8  0060  F423  F7A8   	movff	__uCANRxIDRes+8,14248	;volatile
  8350   000CDE  0060  F427  F7A9   	movff	__uCANRxIDRes+9,14249	;volatile
  8351   000CE4  0060  F42B  F7AA   	movff	__uCANRxIDRes+10,14250	;volatile
  8352   000CEA  0060  F42F  F7AB   	movff	__uCANRxIDRes+11,14251	;volatile
  8353   000CF0  0137               	movlb	55	; () banked
  8354   000CF2  8506               	bsf	6,2,b	;volatile
  8355   000CF4  EF7E  F006         	goto	l9230
  8356   000CF8                     l147:
  8357                           
  8358                           ; BSR set to: 0
  8359   000CF8  0137               	movlb	55	; () banked
  8360   000CFA  9506               	bcf	6,2,b	;volatile
  8361   000CFC                     l9230:
  8362                           
  8363                           ; BSR set to: 55
  8364                           ;CANopen/CO_CANDRV.c: 129:      if (_uCANRxHndls[3]) {*(_FILTER *)(&RXF3SIDH) = _uCANRxI
      +                          DRes[3]; RXFCON0bits.RXF3EN = 1;}
  8365   000CFC  0100               	movlb	0	; () banked
  8366   000CFE  5187               	movf	(__uCANRxHndls+3)& (0+255),w,b
  8367   000D00  B4D8               	btfsc	status,2,c
  8368   000D02  EF85  F006         	goto	u5441
  8369   000D06  EF87  F006         	goto	u5440
  8370   000D0A                     u5441:
  8371   000D0A  EF97  F006         	goto	l149
  8372   000D0E                     u5440:
  8373   000D0E                     
  8374                           ; BSR set to: 0
  8375   000D0E  0060  F433  F7AC   	movff	__uCANRxIDRes+12,14252	;volatile
  8376   000D14  0060  F437  F7AD   	movff	__uCANRxIDRes+13,14253	;volatile
  8377   000D1A  0060  F43B  F7AE   	movff	__uCANRxIDRes+14,14254	;volatile
  8378   000D20  0060  F43F  F7AF   	movff	__uCANRxIDRes+15,14255	;volatile
  8379   000D26  0137               	movlb	55	; () banked
  8380   000D28  8706               	bsf	6,3,b	;volatile
  8381   000D2A  EF99  F006         	goto	l9234
  8382   000D2E                     l149:
  8383                           
  8384                           ; BSR set to: 0
  8385   000D2E  0137               	movlb	55	; () banked
  8386   000D30  9706               	bcf	6,3,b	;volatile
  8387   000D32                     l9234:
  8388                           
  8389                           ; BSR set to: 55
  8390                           ;CANopen/CO_CANDRV.c: 133:      if (_uCANRxHndls[4]) {*(_FILTER *)(&RXF4SIDH) = _uCANRxI
      +                          DRes[4]; RXFCON0bits.RXF4EN = 1;}
  8391   000D32  0100               	movlb	0	; () banked
  8392   000D34  5188               	movf	(__uCANRxHndls+4)& (0+255),w,b
  8393   000D36  B4D8               	btfsc	status,2,c
  8394   000D38  EFA0  F006         	goto	u5451
  8395   000D3C  EFA2  F006         	goto	u5450
  8396   000D40                     u5451:
  8397   000D40  EFB2  F006         	goto	l151
  8398   000D44                     u5450:
  8399   000D44                     
  8400                           ; BSR set to: 0
  8401   000D44  0060  F443  F7B0   	movff	__uCANRxIDRes+16,14256	;volatile
  8402   000D4A  0060  F447  F7B1   	movff	__uCANRxIDRes+17,14257	;volatile
  8403   000D50  0060  F44B  F7B2   	movff	__uCANRxIDRes+18,14258	;volatile
  8404   000D56  0060  F44F  F7B3   	movff	__uCANRxIDRes+19,14259	;volatile
  8405   000D5C  0137               	movlb	55	; () banked
  8406   000D5E  8906               	bsf	6,4,b	;volatile
  8407   000D60  EFB4  F006         	goto	l9238
  8408   000D64                     l151:
  8409                           
  8410                           ; BSR set to: 0
  8411   000D64  0137               	movlb	55	; () banked
  8412   000D66  9906               	bcf	6,4,b	;volatile
  8413   000D68                     l9238:
  8414                           
  8415                           ; BSR set to: 55
  8416                           ;CANopen/CO_CANDRV.c: 137:      if (_uCANRxHndls[5]) {*(_FILTER *)(&RXF5SIDH) = _uCANRxI
      +                          DRes[5]; RXFCON0bits.RXF5EN = 1;}
  8417   000D68  0100               	movlb	0	; () banked
  8418   000D6A  5189               	movf	(__uCANRxHndls+5)& (0+255),w,b
  8419   000D6C  B4D8               	btfsc	status,2,c
  8420   000D6E  EFBB  F006         	goto	u5461
  8421   000D72  EFBD  F006         	goto	u5460
  8422   000D76                     u5461:
  8423   000D76  EFCD  F006         	goto	l153
  8424   000D7A                     u5460:
  8425   000D7A                     
  8426                           ; BSR set to: 0
  8427   000D7A  0060  F453  F7B4   	movff	__uCANRxIDRes+20,14260	;volatile
  8428   000D80  0060  F457  F7B5   	movff	__uCANRxIDRes+21,14261	;volatile
  8429   000D86  0060  F45B  F7B6   	movff	__uCANRxIDRes+22,14262	;volatile
  8430   000D8C  0060  F45F  F7B7   	movff	__uCANRxIDRes+23,14263	;volatile
  8431   000D92  0137               	movlb	55	; () banked
  8432   000D94  8B06               	bsf	6,5,b	;volatile
  8433   000D96  EFCF  F006         	goto	l9242
  8434   000D9A                     l153:
  8435                           
  8436                           ; BSR set to: 0
  8437   000D9A  0137               	movlb	55	; () banked
  8438   000D9C  9B06               	bcf	6,5,b	;volatile
  8439   000D9E                     l9242:
  8440                           
  8441                           ; BSR set to: 55
  8442                           ;CANopen/CO_CANDRV.c: 141:      if (_uCANRxHndls[6]) {*(_FILTER *)(&RXF6SIDH) = _uCANRxI
      +                          DRes[6]; RXFCON0bits.RXF6EN = 1;}
  8443   000D9E  0100               	movlb	0	; () banked
  8444   000DA0  518A               	movf	(__uCANRxHndls+6)& (0+255),w,b
  8445   000DA2  B4D8               	btfsc	status,2,c
  8446   000DA4  EFD6  F006         	goto	u5471
  8447   000DA8  EFD8  F006         	goto	u5470
  8448   000DAC                     u5471:
  8449   000DAC  EFE8  F006         	goto	l155
  8450   000DB0                     u5470:
  8451   000DB0                     
  8452                           ; BSR set to: 0
  8453   000DB0  0060  F463  F708   	movff	__uCANRxIDRes+24,14088	;volatile
  8454   000DB6  0060  F467  F709   	movff	__uCANRxIDRes+25,14089	;volatile
  8455   000DBC  0060  F46B  F70A   	movff	__uCANRxIDRes+26,14090	;volatile
  8456   000DC2  0060  F46F  F70B   	movff	__uCANRxIDRes+27,14091	;volatile
  8457   000DC8  0137               	movlb	55	; () banked
  8458   000DCA  8D06               	bsf	6,6,b	;volatile
  8459   000DCC  EFEA  F006         	goto	l9246
  8460   000DD0                     l155:
  8461                           
  8462                           ; BSR set to: 0
  8463   000DD0  0137               	movlb	55	; () banked
  8464   000DD2  9D06               	bcf	6,6,b	;volatile
  8465   000DD4                     l9246:
  8466                           
  8467                           ; BSR set to: 55
  8468                           ;CANopen/CO_CANDRV.c: 145:      if (_uCANRxHndls[7]) {*(_FILTER *)(&RXF7SIDH) = _uCANRxI
      +                          DRes[7]; RXFCON0bits.RXF7EN = 1;}
  8469   000DD4  0100               	movlb	0	; () banked
  8470   000DD6  518B               	movf	(__uCANRxHndls+7)& (0+255),w,b
  8471   000DD8  B4D8               	btfsc	status,2,c
  8472   000DDA  EFF1  F006         	goto	u5481
  8473   000DDE  EFF3  F006         	goto	u5480
  8474   000DE2                     u5481:
  8475   000DE2  EF03  F007         	goto	l157
  8476   000DE6                     u5480:
  8477   000DE6                     
  8478                           ; BSR set to: 0
  8479   000DE6  0060  F473  F70C   	movff	__uCANRxIDRes+28,14092	;volatile
  8480   000DEC  0060  F477  F70D   	movff	__uCANRxIDRes+29,14093	;volatile
  8481   000DF2  0060  F47B  F70E   	movff	__uCANRxIDRes+30,14094	;volatile
  8482   000DF8  0060  F47F  F70F   	movff	__uCANRxIDRes+31,14095	;volatile
  8483   000DFE  0137               	movlb	55	; () banked
  8484   000E00  8F06               	bsf	6,7,b	;volatile
  8485   000E02  EF05  F007         	goto	l9250
  8486   000E06                     l157:
  8487                           
  8488                           ; BSR set to: 0
  8489   000E06  0137               	movlb	55	; () banked
  8490   000E08  9F06               	bcf	6,7,b	;volatile
  8491   000E0A                     l9250:
  8492                           
  8493                           ;CANopen/CO_CANDRV.c: 182:      _uCANReq = 0;
  8494   000E0A  0E00               	movlw	0
  8495   000E0C  6E32               	movwf	__uCANReq^0,c
  8496   000E0E                     
  8497                           ;CANopen/CO_CANDRV.c: 185:      CANCON = _uCANOldMode;;
  8498   000E0E  0060  F0C7  FF8F   	movff	__uCANOldMode,16271	;volatile
  8499                           
  8500                           ;CANopen/CO_CANDRV.c: 186:     }
  8501   000E14  EF31  F007         	goto	l164
  8502   000E18                     l9254:
  8503                           
  8504                           ; BSR set to: 1
  8505   000E18  0E80               	movlw	128
  8506   000E1A  6E8F               	movwf	143,c	;volatile
  8507   000E1C  EF31  F007         	goto	l164
  8508   000E20                     l161:
  8509                           
  8510                           ; BSR set to: 1
  8511                           ;CANopen/CO_CANDRV.c: 194:     if (CANCONbits.REQOP2)
  8512   000E20  AE8F               	btfss	143,7,c	;volatile
  8513   000E22  EF15  F007         	goto	u5491
  8514   000E26  EF17  F007         	goto	u5490
  8515   000E2A                     u5491:
  8516   000E2A  EF0C  F007         	goto	l9254
  8517   000E2E                     u5490:
  8518   000E2E                     
  8519                           ; BSR set to: 1
  8520                           ;CANopen/CO_CANDRV.c: 195:     {;CANopen/CO_CANDRV.c: 197:      _CANSetBitRate();
  8521   000E2E  EC33  F00D         	call	__CANSetBitRate	;wreg free
  8522   000E32  EF05  F007         	goto	l9250
  8523   000E36                     l9266:
  8524   000E36  5032               	movf	__uCANReq^0,w,c
  8525   000E38  0101               	movlb	1	; () banked
  8526   000E3A  6F20               	movwf	??__CANEventManager& (0+255),b
  8527   000E3C  6B21               	clrf	(??__CANEventManager+1)& (0+255),b
  8528                           
  8529                           ; Switch on 2 bytes has been partitioned into a top level switch of size 1, and 1 sub-sw
      +                          itches
  8530                           ; Switch size 1, requested type "simple"
  8531                           ; Number of cases is 1, Range of values is 0 to 0
  8532                           ; switch strategies available:
  8533                           ; Name         Instructions Cycles
  8534                           ; simple_byte            4     3 (average)
  8535                           ;	Chosen strategy is simple_byte
  8536   000E3E  5121               	movf	(??__CANEventManager+1)& (0+255),w,b
  8537   000E40  0A00               	xorlw	0	; case 0
  8538   000E42  B4D8               	btfsc	status,2,c
  8539   000E44  EF26  F007         	goto	l10514
  8540   000E48  EF31  F007         	goto	l164
  8541   000E4C                     l10514:
  8542                           
  8543                           ; BSR set to: 1
  8544                           ; Switch size 1, requested type "simple"
  8545                           ; Number of cases is 2, Range of values is 1 to 2
  8546                           ; switch strategies available:
  8547                           ; Name         Instructions Cycles
  8548                           ; simple_byte            7     4 (average)
  8549                           ;	Chosen strategy is simple_byte
  8550   000E4C  5120               	movf	??__CANEventManager& (0+255),w,b
  8551   000E4E  0A01               	xorlw	1	; case 1
  8552   000E50  B4D8               	btfsc	status,2,c
  8553   000E52  EF26  F006         	goto	l141
  8554   000E56  0A03               	xorlw	3	; case 2
  8555   000E58  B4D8               	btfsc	status,2,c
  8556   000E5A  EF10  F007         	goto	l161
  8557   000E5E  EF31  F007         	goto	l164
  8558   000E62                     l164:
  8559   000E62  0012               	return		;funcret
  8560   000E64                     __end_of__CANEventManager:
  8561                           	callstack 0
  8562                           
  8563 ;; *************** function __CANSetBitRate *****************
  8564 ;; Defined at:
  8565 ;;		line 366 in file "CANopen/CO_CANDRV.c"
  8566 ;; Parameters:    Size  Location     Type
  8567 ;;		None
  8568 ;; Auto vars:     Size  Location     Type
  8569 ;;		None
  8570 ;; Return value:  Size  Location     Type
  8571 ;;                  1    wreg      void 
  8572 ;; Registers used:
  8573 ;;		wreg, status,2, status,0
  8574 ;; Tracked objects:
  8575 ;;		On entry : 0/0
  8576 ;;		On exit  : 0/0
  8577 ;;		Unchanged: 0/0
  8578 ;; Data sizes:     COMRAM   BANK0   BANK1   BANK2   BANK3   BANK4   BANK5   BANK6   BANK7   BANK8   BANK9  BANK10  BANK1
      +1  BANK12  BANK13  BANK14  BANK15
  8579 ;;      Params:         0       0       0       0       0       0       0       0       0       0       0       0       
      +0       0       0       0       0
  8580 ;;      Locals:         0       0       0       0       0       0       0       0       0       0       0       0       
      +0       0       0       0       0
  8581 ;;      Temps:          2       0       0       0       0       0       0       0       0       0       0       0       
      +0       0       0       0       0
  8582 ;;      Totals:         2       0       0       0       0       0       0       0       0       0       0       0       
      +0       0       0       0       0
  8583 ;;Total ram usage:        2 bytes
  8584 ;; Hardware stack levels used: 1
  8585 ;; Hardware stack levels required when called: 6
  8586 ;; This function calls:
  8587 ;;		Nothing
  8588 ;; This function is called by:
  8589 ;;		__CANEventManager
  8590 ;;		__CANReset
  8591 ;; This function uses a non-reentrant model
  8592 ;;
  8593                           
  8594                           	psect	text45
  8595   001A66                     __ptext45:
  8596                           	callstack 0
  8597   001A66                     __CANSetBitRate:
  8598                           	callstack 22
  8599   001A66                     
  8600                           ;CANopen/CO_CANDRV.c: 368:  switch(_uCAN_Bitrate)
  8601   001A66  EF50  F00D         	goto	l6358
  8602   001A6A                     l6336:
  8603                           
  8604                           ;CANopen/CO_CANDRV.c: 371:    BRGCON1 = 0x27;
  8605   001A6A  0E27               	movlw	39
  8606   001A6C  0137               	movlb	55	; () banked
  8607   001A6E  6F03               	movwf	3,b	;volatile
  8608                           
  8609                           ;CANopen/CO_CANDRV.c: 372:    BRGCON2 = 0x98;
  8610   001A70  0E98               	movlw	152
  8611   001A72  6F04               	movwf	4,b	;volatile
  8612                           
  8613                           ;CANopen/CO_CANDRV.c: 373:    BRGCON3 = 0x81;
  8614   001A74  0E81               	movlw	129
  8615   001A76  6F05               	movwf	5,b	;volatile
  8616                           
  8617                           ;CANopen/CO_CANDRV.c: 374:    break;
  8618   001A78  EF81  F00D         	goto	l182
  8619   001A7C                     l6338:
  8620                           
  8621                           ;CANopen/CO_CANDRV.c: 377:    BRGCON1 = 0x41;
  8622   001A7C  0E41               	movlw	65
  8623   001A7E  0137               	movlb	55	; () banked
  8624   001A80  6F03               	movwf	3,b	;volatile
  8625                           
  8626                           ;CANopen/CO_CANDRV.c: 378:    BRGCON2 = 0xBA;
  8627   001A82  0EBA               	movlw	186
  8628   001A84  6F04               	movwf	4,b	;volatile
  8629                           
  8630                           ;CANopen/CO_CANDRV.c: 379:    BRGCON3 = 0x07;
  8631   001A86  0E07               	movlw	7
  8632   001A88  6F05               	movwf	5,b	;volatile
  8633                           
  8634                           ;CANopen/CO_CANDRV.c: 380:    break;
  8635   001A8A  EF81  F00D         	goto	l182
  8636   001A8E                     l6340:
  8637                           
  8638                           ;CANopen/CO_CANDRV.c: 384:    BRGCON1 = 0x07;
  8639   001A8E  0E07               	movlw	7
  8640   001A90  0137               	movlb	55	; () banked
  8641   001A92  6F03               	movwf	3,b	;volatile
  8642                           
  8643                           ;CANopen/CO_CANDRV.c: 385:    BRGCON2 = 0x98;
  8644   001A94  0E98               	movlw	152
  8645   001A96  6F04               	movwf	4,b	;volatile
  8646                           
  8647                           ;CANopen/CO_CANDRV.c: 386:    BRGCON3 = 0x01;
  8648   001A98  0E01               	movlw	1
  8649   001A9A  6F05               	movwf	5,b	;volatile
  8650                           
  8651                           ;CANopen/CO_CANDRV.c: 387:    break;
  8652   001A9C  EF81  F00D         	goto	l182
  8653   001AA0                     l6358:
  8654   001AA0  5033               	movf	__uCAN_Bitrate^0,w,c
  8655   001AA2  6E52               	movwf	??__CANSetBitRate^0,c
  8656   001AA4  6A53               	clrf	(??__CANSetBitRate+1)^0,c
  8657                           
  8658                           ; Switch on 2 bytes has been partitioned into a top level switch of size 1, and 1 sub-sw
      +                          itches
  8659                           ; Switch size 1, requested type "simple"
  8660                           ; Number of cases is 1, Range of values is 0 to 0
  8661                           ; switch strategies available:
  8662                           ; Name         Instructions Cycles
  8663                           ; simple_byte            4     3 (average)
  8664                           ;	Chosen strategy is simple_byte
  8665   001AA6  5053               	movf	(??__CANSetBitRate+1)^0,w,c
  8666   001AA8  0A00               	xorlw	0	; case 0
  8667   001AAA  B4D8               	btfsc	status,2,c
  8668   001AAC  EF5A  F00D         	goto	l10516
  8669   001AB0  EF35  F00D         	goto	l6336
  8670   001AB4                     l10516:
  8671                           
  8672                           ; Switch size 1, requested type "simple"
  8673                           ; Number of cases is 9, Range of values is 0 to 8
  8674                           ; switch strategies available:
  8675                           ; Name         Instructions Cycles
  8676                           ; simple_byte           28    15 (average)
  8677                           ;	Chosen strategy is simple_byte
  8678   001AB4  5052               	movf	??__CANSetBitRate^0,w,c
  8679   001AB6  0A00               	xorlw	0	; case 0
  8680   001AB8  B4D8               	btfsc	status,2,c
  8681   001ABA  EF35  F00D         	goto	l6336
  8682   001ABE  0A01               	xorlw	1	; case 1
  8683   001AC0  B4D8               	btfsc	status,2,c
  8684   001AC2  EF3E  F00D         	goto	l6338
  8685   001AC6  0A03               	xorlw	3	; case 2
  8686   001AC8  B4D8               	btfsc	status,2,c
  8687   001ACA  EF47  F00D         	goto	l6340
  8688   001ACE  0A01               	xorlw	1	; case 3
  8689   001AD0  B4D8               	btfsc	status,2,c
  8690   001AD2  EF3E  F00D         	goto	l6338
  8691   001AD6  0A07               	xorlw	7	; case 4
  8692   001AD8  B4D8               	btfsc	status,2,c
  8693   001ADA  EF3E  F00D         	goto	l6338
  8694   001ADE  0A01               	xorlw	1	; case 5
  8695   001AE0  B4D8               	btfsc	status,2,c
  8696   001AE2  EF3E  F00D         	goto	l6338
  8697   001AE6  0A03               	xorlw	3	; case 6
  8698   001AE8  B4D8               	btfsc	status,2,c
  8699   001AEA  EF3E  F00D         	goto	l6338
  8700   001AEE  0A01               	xorlw	1	; case 7
  8701   001AF0  B4D8               	btfsc	status,2,c
  8702   001AF2  EF3E  F00D         	goto	l6338
  8703   001AF6  0A0F               	xorlw	15	; case 8
  8704   001AF8  B4D8               	btfsc	status,2,c
  8705   001AFA  EF3E  F00D         	goto	l6338
  8706   001AFE  EF35  F00D         	goto	l6336
  8707   001B02                     l182:
  8708                           
  8709                           ; BSR set to: 55
  8710   001B02  0012               	return		;funcret
  8711   001B04                     __end_of__CANSetBitRate:
  8712                           	callstack 0
  8713                           
  8714 ;; *************** function _CO_NMTStateChangeEvent *****************
  8715 ;; Defined at:
  8716 ;;		line 47 in file "CANopen/exttst.c"
  8717 ;; Parameters:    Size  Location     Type
  8718 ;;		None
  8719 ;; Auto vars:     Size  Location     Type
  8720 ;;		None
  8721 ;; Return value:  Size  Location     Type
  8722 ;;                  1    wreg      void 
  8723 ;; Registers used:
  8724 ;;		None
  8725 ;; Tracked objects:
  8726 ;;		On entry : 0/0
  8727 ;;		On exit  : 0/0
  8728 ;;		Unchanged: 0/0
  8729 ;; Data sizes:     COMRAM   BANK0   BANK1   BANK2   BANK3   BANK4   BANK5   BANK6   BANK7   BANK8   BANK9  BANK10  BANK1
      +1  BANK12  BANK13  BANK14  BANK15
  8730 ;;      Params:         0       0       0       0       0       0       0       0       0       0       0       0       
      +0       0       0       0       0
  8731 ;;      Locals:         0       0       0       0       0       0       0       0       0       0       0       0       
      +0       0       0       0       0
  8732 ;;      Temps:          0       0       0       0       0       0       0       0       0       0       0       0       
      +0       0       0       0       0
  8733 ;;      Totals:         0       0       0       0       0       0       0       0       0       0       0       0       
      +0       0       0       0       0
  8734 ;;Total ram usage:        0 bytes
  8735 ;; Hardware stack levels used: 1
  8736 ;; Hardware stack levels required when called: 6
  8737 ;; This function calls:
  8738 ;;		Nothing
  8739 ;; This function is called by:
  8740 ;;		__CO_COMM_NMT_RXEvent
  8741 ;; This function uses a non-reentrant model
  8742 ;;
  8743                           
  8744                           	psect	text46
  8745   0024D6                     __ptext46:
  8746                           	callstack 0
  8747   0024D6                     _CO_NMTStateChangeEvent:
  8748                           	callstack 21
  8749   0024D6  0012               	return		;funcret
  8750   0024D8                     __end_of_CO_NMTStateChangeEvent:
  8751                           	callstack 0
  8752                           
  8753 ;; *************** function _CO_NMTResetEvent *****************
  8754 ;; Defined at:
  8755 ;;		line 51 in file "CANopen/exttst.c"
  8756 ;; Parameters:    Size  Location     Type
  8757 ;;		None
  8758 ;; Auto vars:     Size  Location     Type
  8759 ;;		None
  8760 ;; Return value:  Size  Location     Type
  8761 ;;                  1    wreg      void 
  8762 ;; Registers used:
  8763 ;;		None
  8764 ;; Tracked objects:
  8765 ;;		On entry : 0/0
  8766 ;;		On exit  : 0/0
  8767 ;;		Unchanged: 0/0
  8768 ;; Data sizes:     COMRAM   BANK0   BANK1   BANK2   BANK3   BANK4   BANK5   BANK6   BANK7   BANK8   BANK9  BANK10  BANK1
      +1  BANK12  BANK13  BANK14  BANK15
  8769 ;;      Params:         0       0       0       0       0       0       0       0       0       0       0       0       
      +0       0       0       0       0
  8770 ;;      Locals:         0       0       0       0       0       0       0       0       0       0       0       0       
      +0       0       0       0       0
  8771 ;;      Temps:          0       0       0       0       0       0       0       0       0       0       0       0       
      +0       0       0       0       0
  8772 ;;      Totals:         0       0       0       0       0       0       0       0       0       0       0       0       
      +0       0       0       0       0
  8773 ;;Total ram usage:        0 bytes
  8774 ;; Hardware stack levels used: 1
  8775 ;; Hardware stack levels required when called: 6
  8776 ;; This function calls:
  8777 ;;		Nothing
  8778 ;; This function is called by:
  8779 ;;		__CO_COMM_NMT_RXEvent
  8780 ;; This function uses a non-reentrant model
  8781 ;;
  8782                           
  8783                           	psect	text47
  8784   0024D0                     __ptext47:
  8785                           	callstack 0
  8786   0024D0                     _CO_NMTResetEvent:
  8787                           	callstack 21
  8788   0024D0  00FF               	reset		;# 
  8789   0024D2  0012               	return		;funcret
  8790   0024D4                     __end_of_CO_NMTResetEvent:
  8791                           	callstack 0
  8792                           
  8793 ;; *************** function _CO_NMTAppResetRequest *****************
  8794 ;; Defined at:
  8795 ;;		line 56 in file "CANopen/exttst.c"
  8796 ;; Parameters:    Size  Location     Type
  8797 ;;		None
  8798 ;; Auto vars:     Size  Location     Type
  8799 ;;		None
  8800 ;; Return value:  Size  Location     Type
  8801 ;;                  1    wreg      void 
  8802 ;; Registers used:
  8803 ;;		None
  8804 ;; Tracked objects:
  8805 ;;		On entry : 0/0
  8806 ;;		On exit  : 0/0
  8807 ;;		Unchanged: 0/0
  8808 ;; Data sizes:     COMRAM   BANK0   BANK1   BANK2   BANK3   BANK4   BANK5   BANK6   BANK7   BANK8   BANK9  BANK10  BANK1
      +1  BANK12  BANK13  BANK14  BANK15
  8809 ;;      Params:         0       0       0       0       0       0       0       0       0       0       0       0       
      +0       0       0       0       0
  8810 ;;      Locals:         0       0       0       0       0       0       0       0       0       0       0       0       
      +0       0       0       0       0
  8811 ;;      Temps:          0       0       0       0       0       0       0       0       0       0       0       0       
      +0       0       0       0       0
  8812 ;;      Totals:         0       0       0       0       0       0       0       0       0       0       0       0       
      +0       0       0       0       0
  8813 ;;Total ram usage:        0 bytes
  8814 ;; Hardware stack levels used: 1
  8815 ;; Hardware stack levels required when called: 6
  8816 ;; This function calls:
  8817 ;;		Nothing
  8818 ;; This function is called by:
  8819 ;;		__CO_COMM_NMT_RXEvent
  8820 ;; This function uses a non-reentrant model
  8821 ;;
  8822                           
  8823                           	psect	text48
  8824   0024D8                     __ptext48:
  8825                           	callstack 0
  8826   0024D8                     _CO_NMTAppResetRequest:
  8827                           	callstack 21
  8828   0024D8  0012               	return		;funcret
  8829   0024DA                     __end_of_CO_NMTAppResetRequest:
  8830                           	callstack 0
  8831                           
  8832 ;; *************** function __CO_COMM_NMTE_RXEvent *****************
  8833 ;; Defined at:
  8834 ;;		line 333 in file "CANopen/CO_NMTE.c"
  8835 ;; Parameters:    Size  Location     Type
  8836 ;;		None
  8837 ;; Auto vars:     Size  Location     Type
  8838 ;;		None
  8839 ;; Return value:  Size  Location     Type
  8840 ;;                  1    wreg      void 
  8841 ;; Registers used:
  8842 ;;		wreg, status,2, status,0, prodl, prodh, cstack
  8843 ;; Tracked objects:
  8844 ;;		On entry : 0/0
  8845 ;;		On exit  : 0/0
  8846 ;;		Unchanged: 0/0
  8847 ;; Data sizes:     COMRAM   BANK0   BANK1   BANK2   BANK3   BANK4   BANK5   BANK6   BANK7   BANK8   BANK9  BANK10  BANK1
      +1  BANK12  BANK13  BANK14  BANK15
  8848 ;;      Params:         0       0       0       0       0       0       0       0       0       0       0       0       
      +0       0       0       0       0
  8849 ;;      Locals:         0       0       0       0       0       0       0       0       0       0       0       0       
      +0       0       0       0       0
  8850 ;;      Temps:          0       0       0       0       0       0       0       0       0       0       0       0       
      +0       0       0       0       0
  8851 ;;      Totals:         0       0       0       0       0       0       0       0       0       0       0       0       
      +0       0       0       0       0
  8852 ;;Total ram usage:        0 bytes
  8853 ;; Hardware stack levels used: 1
  8854 ;; Hardware stack levels required when called: 7
  8855 ;; This function calls:
  8856 ;;		___wmul
  8857 ;; This function is called by:
  8858 ;;		__CO_COMMRXEventManager
  8859 ;; This function uses a non-reentrant model
  8860 ;;
  8861                           
  8862                           	psect	text49
  8863   0020EA                     __ptext49:
  8864                           	callstack 0
  8865   0020EA                     __CO_COMM_NMTE_RXEvent:
  8866                           	callstack 21
  8867   0020EA                     
  8868                           ;CANopen/CO_NMTE.c: 336:  if (_uNMTEState.bits.b2)
  8869   0020EA  A430               	btfss	__uNMTEState^0,2,c
  8870   0020EC  EF7A  F010         	goto	u5711
  8871   0020F0  EF7C  F010         	goto	u5710
  8872   0020F4                     u5711:
  8873   0020F4  EF9F  F010         	goto	l803
  8874   0020F8                     u5710:
  8875   0020F8                     
  8876                           ;CANopen/CO_NMTE.c: 337:  {;CANopen/CO_NMTE.c: 338:   if (RXB0DLCbits.RXRTR)
  8877   0020F8  AC85               	btfss	133,6,c	;volatile
  8878   0020FA  EF81  F010         	goto	u5721
  8879   0020FE  EF83  F010         	goto	u5720
  8880   002102                     u5721:
  8881   002102  EF9F  F010         	goto	l803
  8882   002106                     u5720:
  8883   002106                     
  8884                           ;CANopen/CO_NMTE.c: 339:   {;CANopen/CO_NMTE.c: 340:    if ((RXB0DLC & 0xF) == 1)
  8885   002106  5085               	movf	133,w,c	;volatile
  8886   002108  0B0F               	andlw	15
  8887   00210A  06E8               	decf	wreg,f,c
  8888   00210C  A4D8               	btfss	status,2,c
  8889   00210E  EF8B  F010         	goto	u5731
  8890   002112  EF8D  F010         	goto	u5730
  8891   002116                     u5731:
  8892   002116  EF9F  F010         	goto	l803
  8893   00211A                     u5730:
  8894   00211A                     
  8895                           ;CANopen/CO_NMTE.c: 341:    {;CANopen/CO_NMTE.c: 343:     _tx_net_que.bits.b3 = 1;
  8896   00211A  8628               	bsf	__tx_net_que^0,3,c
  8897   00211C                     
  8898                           ;CANopen/CO_NMTE.c: 346:     _uNMTETimer = _uNMTEGuardTime.word * _uNMTELifeFactor.byte;
  8899   00211C  C021  F120         	movff	__uNMTELifeFactor,___wmul@multiplier
  8900   002120  0101               	movlb	1	; () banked
  8901   002122  6B21               	clrf	(___wmul@multiplier+1)& (0+255),b
  8902   002124  C010  F122         	movff	__uNMTEGuardTime,___wmul@multiplicand
  8903   002128  C011  F123         	movff	__uNMTEGuardTime+1,___wmul@multiplicand+1
  8904   00212C  EC81  F011         	call	___wmul	;wreg free
  8905   002130  0101               	movlb	1	; () banked
  8906   002132  C120  F0AE         	movff	?___wmul,__uNMTETimer
  8907   002136  C121  F0AF         	movff	?___wmul+1,__uNMTETimer+1
  8908   00213A  0100               	movlb	0	; () banked
  8909   00213C  6BB0               	clrf	(__uNMTETimer+2)& (0+255),b
  8910   00213E                     l803:
  8911   00213E  0012               	return		;funcret
  8912   002140                     __end_of__CO_COMM_NMTE_RXEvent:
  8913                           	callstack 0
  8914                           
  8915 ;; *************** function ___wmul *****************
  8916 ;; Defined at:
  8917 ;;		line 15 in file "C:\Program Files\Microchip\xc8\v2.40\pic\sources\c99\common\Umul16.c"
  8918 ;; Parameters:    Size  Location     Type
  8919 ;;  multiplier      2    0[BANK1 ] unsigned int 
  8920 ;;  multiplicand    2    2[BANK1 ] unsigned int 
  8921 ;; Auto vars:     Size  Location     Type
  8922 ;;  product         2   12[COMRAM] unsigned int 
  8923 ;; Return value:  Size  Location     Type
  8924 ;;                  2    0[BANK1 ] unsigned int 
  8925 ;; Registers used:
  8926 ;;		wreg, status,2, status,0, prodl, prodh
  8927 ;; Tracked objects:
  8928 ;;		On entry : 0/0
  8929 ;;		On exit  : 0/0
  8930 ;;		Unchanged: 0/0
  8931 ;; Data sizes:     COMRAM   BANK0   BANK1   BANK2   BANK3   BANK4   BANK5   BANK6   BANK7   BANK8   BANK9  BANK10  BANK1
      +1  BANK12  BANK13  BANK14  BANK15
  8932 ;;      Params:         0       0       4       0       0       0       0       0       0       0       0       0       
      +0       0       0       0       0
  8933 ;;      Locals:         2       0       0       0       0       0       0       0       0       0       0       0       
      +0       0       0       0       0
  8934 ;;      Temps:          0       0       0       0       0       0       0       0       0       0       0       0       
      +0       0       0       0       0
  8935 ;;      Totals:         2       0       4       0       0       0       0       0       0       0       0       0       
      +0       0       0       0       0
  8936 ;;Total ram usage:        6 bytes
  8937 ;; Hardware stack levels used: 1
  8938 ;; Hardware stack levels required when called: 6
  8939 ;; This function calls:
  8940 ;;		Nothing
  8941 ;; This function is called by:
  8942 ;;		__CO_COMM_NMTE_Open
  8943 ;;		__CO_COMM_NMTE_RXEvent
  8944 ;;		__CO_COMM_NMTE_HeartBeatAccessEvent
  8945 ;;		__CO_COMM_NMTE_GuardTimeAccessEvent
  8946 ;;		__CO_COMM_NMTE_LifeFactorAccessEvent
  8947 ;; This function uses a non-reentrant model
  8948 ;;
  8949                           
  8950                           	psect	text50
  8951   002302                     __ptext50:
  8952                           	callstack 0
  8953   002302                     ___wmul:
  8954                           	callstack 22
  8955   002302  0101               	movlb	1	; () banked
  8956   002304  5120               	movf	___wmul@multiplier& (0+255),w,b
  8957   002306  0322               	mulwf	___wmul@multiplicand& (0+255),b
  8958   002308  006F FFCC  F052    	movff	prodl,___wmul@product
  8959   00230E  006F FFD0  F053    	movff	prodh,___wmul@product+1
  8960   002314  5120               	movf	___wmul@multiplier& (0+255),w,b
  8961   002316  0323               	mulwf	(___wmul@multiplicand+1)& (0+255),b
  8962   002318  50F3               	movf	243,w,c
  8963   00231A  2653               	addwf	(___wmul@product+1)^0,f,c
  8964   00231C  5121               	movf	(___wmul@multiplier+1)& (0+255),w,b
  8965   00231E  0322               	mulwf	___wmul@multiplicand& (0+255),b
  8966   002320  50F3               	movf	243,w,c
  8967   002322  2653               	addwf	(___wmul@product+1)^0,f,c
  8968   002324                     
  8969                           ; BSR set to: 1
  8970   002324  C052  F120         	movff	___wmul@product,?___wmul
  8971   002328  C053  F121         	movff	___wmul@product+1,?___wmul+1
  8972   00232C                     
  8973                           ; BSR set to: 1
  8974   00232C  0012               	return		;funcret
  8975   00232E                     __end_of___wmul:
  8976                           	callstack 0
  8977                           
  8978 ;; *************** function __CANIsGetReady *****************
  8979 ;; Defined at:
  8980 ;;		line 651 in file "CANopen/CO_CANDRV.c"
  8981 ;; Parameters:    Size  Location     Type
  8982 ;;		None
  8983 ;; Auto vars:     Size  Location     Type
  8984 ;;		None
  8985 ;; Return value:  Size  Location     Type
  8986 ;;                  1    wreg      void 
  8987 ;; Registers used:
  8988 ;;		wreg, fsr2l, fsr2h, status,2, status,0
  8989 ;; Tracked objects:
  8990 ;;		On entry : 0/0
  8991 ;;		On exit  : 0/0
  8992 ;;		Unchanged: 0/0
  8993 ;; Data sizes:     COMRAM   BANK0   BANK1   BANK2   BANK3   BANK4   BANK5   BANK6   BANK7   BANK8   BANK9  BANK10  BANK1
      +1  BANK12  BANK13  BANK14  BANK15
  8994 ;;      Params:         0       0       0       0       0       0       0       0       0       0       0       0       
      +0       0       0       0       0
  8995 ;;      Locals:         0       0       0       0       0       0       0       0       0       0       0       0       
      +0       0       0       0       0
  8996 ;;      Temps:          2       0       0       0       0       0       0       0       0       0       0       0       
      +0       0       0       0       0
  8997 ;;      Totals:         2       0       0       0       0       0       0       0       0       0       0       0       
      +0       0       0       0       0
  8998 ;;Total ram usage:        2 bytes
  8999 ;; Hardware stack levels used: 1
  9000 ;; Hardware stack levels required when called: 6
  9001 ;; This function calls:
  9002 ;;		Nothing
  9003 ;; This function is called by:
  9004 ;;		__CO_COMMRXEventManager
  9005 ;; This function uses a non-reentrant model
  9006 ;;
  9007                           
  9008                           	psect	text51
  9009   001B04                     __ptext51:
  9010                           	callstack 0
  9011   001B04                     __CANIsGetReady:
  9012                           	callstack 22
  9013   001B04                     
  9014                           ;CANopen/CO_CANDRV.c: 654:  if (PIR5bits.RXB1IF)
  9015   001B04  0139               	movlb	57	; () banked
  9016   001B06  A3A5               	btfss	165,1,b	;volatile
  9017   001B08  EF88  F00D         	goto	u3591
  9018   001B0C  EF8A  F00D         	goto	u3590
  9019   001B10                     u3591:
  9020   001B10  EFCB  F00D         	goto	l7170
  9021   001B14                     u3590:
  9022   001B14                     
  9023                           ; BSR set to: 57
  9024                           ;CANopen/CO_CANDRV.c: 655:  {;CANopen/CO_CANDRV.c: 657:   ECANCON = 0x50;
  9025   001B14  0E50               	movlw	80
  9026   001B16  6E91               	movwf	145,c	;volatile
  9027   001B18                     
  9028                           ; BSR set to: 57
  9029                           ;CANopen/CO_CANDRV.c: 660:   if (RXB0CONbits.RXFUL) {}
  9030   001B18  AE80               	btfss	128,7,c	;volatile
  9031   001B1A  EF91  F00D         	goto	u3601
  9032   001B1E  EF93  F00D         	goto	u3600
  9033   001B22                     u3601:
  9034   001B22  EF95  F00D         	goto	l216
  9035   001B26                     u3600:
  9036   001B26  EFBD  F00D         	goto	l7168
  9037   001B2A                     l216:
  9038                           
  9039                           ; BSR set to: 57
  9040   001B2A  0137               	movlb	55	; () banked
  9041   001B2C  AFF0               	btfss	240,7,b	;volatile
  9042   001B2E  EF9B  F00D         	goto	u3611
  9043   001B32  EF9D  F00D         	goto	u3610
  9044   001B36                     u3611:
  9045   001B36  EFA1  F00D         	goto	l218
  9046   001B3A                     u3610:
  9047   001B3A                     
  9048                           ; BSR set to: 55
  9049   001B3A  0E51               	movlw	81
  9050   001B3C  6E91               	movwf	145,c	;volatile
  9051   001B3E  EFBD  F00D         	goto	l7168
  9052   001B42                     l218:
  9053                           
  9054                           ; BSR set to: 55
  9055   001B42  AF40               	btfss	64,7,b	;volatile
  9056   001B44  EFA6  F00D         	goto	u3621
  9057   001B48  EFA8  F00D         	goto	u3620
  9058   001B4C                     u3621:
  9059   001B4C  EFAC  F00D         	goto	l220
  9060   001B50                     u3620:
  9061   001B50                     
  9062                           ; BSR set to: 55
  9063   001B50  0E52               	movlw	82
  9064   001B52  6E91               	movwf	145,c	;volatile
  9065   001B54  EFBD  F00D         	goto	l7168
  9066   001B58                     l220:
  9067                           
  9068                           ; BSR set to: 55
  9069   001B58  AF50               	btfss	80,7,b	;volatile
  9070   001B5A  EFB1  F00D         	goto	u3631
  9071   001B5E  EFB3  F00D         	goto	u3630
  9072   001B62                     u3631:
  9073   001B62  EFB7  F00D         	goto	l7162
  9074   001B66                     u3630:
  9075   001B66                     
  9076                           ; BSR set to: 55
  9077   001B66  0E53               	movlw	83
  9078   001B68  6E91               	movwf	145,c	;volatile
  9079   001B6A  EFBD  F00D         	goto	l7168
  9080   001B6E                     l7162:
  9081                           
  9082                           ; BSR set to: 55
  9083   001B6E  0E00               	movlw	0
  9084   001B70  6E34               	movwf	__uCAN_ret^0,c
  9085   001B72                     
  9086                           ; BSR set to: 55
  9087   001B72  0139               	movlb	57	; () banked
  9088   001B74  93A5               	bcf	165,1,b	;volatile
  9089   001B76  EFCD  F00D         	goto	l224
  9090   001B7A                     l7168:
  9091                           
  9092                           ;CANopen/CO_CANDRV.c: 689:   _uCAN_ret = *((RXB0CON & 0x0F) + _uCANRxHndls);
  9093   001B7A  5080               	movf	128,w,c	;volatile
  9094   001B7C  0B0F               	andlw	15
  9095   001B7E  6E52               	movwf	??__CANIsGetReady^0,c
  9096   001B80  6A53               	clrf	(??__CANIsGetReady+1)^0,c
  9097   001B82  0E84               	movlw	low __uCANRxHndls
  9098   001B84  2452               	addwf	??__CANIsGetReady^0,w,c
  9099   001B86  6ED9               	movwf	fsr2l,c
  9100   001B88  0E00               	movlw	high __uCANRxHndls
  9101   001B8A  2053               	addwfc	(??__CANIsGetReady+1)^0,w,c
  9102   001B8C  6EDA               	movwf	fsr2h,c
  9103   001B8E  50DF               	movf	indf2,w,c
  9104   001B90  6E34               	movwf	__uCAN_ret^0,c
  9105                           
  9106                           ;CANopen/CO_CANDRV.c: 690:  }
  9107   001B92  EFCD  F00D         	goto	l224
  9108   001B96                     l7170:
  9109                           
  9110                           ; BSR set to: 57
  9111   001B96  0E00               	movlw	0
  9112   001B98  6E34               	movwf	__uCAN_ret^0,c
  9113   001B9A                     l224:
  9114   001B9A  0012               	return		;funcret
  9115   001B9C                     __end_of__CANIsGetReady:
  9116                           	callstack 0
  9117                           
  9118 ;; *************** function _INTERRUPT_InterruptManager *****************
  9119 ;; Defined at:
  9120 ;;		line 58 in file "mcc_generated_files/interrupt_manager.c"
  9121 ;; Parameters:    Size  Location     Type
  9122 ;;		None
  9123 ;; Auto vars:     Size  Location     Type
  9124 ;;		None
  9125 ;; Return value:  Size  Location     Type
  9126 ;;                  1    wreg      void 
  9127 ;; Registers used:
  9128 ;;		wreg, status,2, status,0, pcl, pclath, pclatu, tosl, prodl, prodh, cstack
  9129 ;; Tracked objects:
  9130 ;;		On entry : 0/0
  9131 ;;		On exit  : 0/0
  9132 ;;		Unchanged: 0/0
  9133 ;; Data sizes:     COMRAM   BANK0   BANK1   BANK2   BANK3   BANK4   BANK5   BANK6   BANK7   BANK8   BANK9  BANK10  BANK1
      +1  BANK12  BANK13  BANK14  BANK15
  9134 ;;      Params:         0       0       0       0       0       0       0       0       0       0       0       0       
      +0       0       0       0       0
  9135 ;;      Locals:         0       0       0       0       0       0       0       0       0       0       0       0       
      +0       0       0       0       0
  9136 ;;      Temps:          2       0       0       0       0       0       0       0       0       0       0       0       
      +0       0       0       0       0
  9137 ;;      Totals:         2       0       0       0       0       0       0       0       0       0       0       0       
      +0       0       0       0       0
  9138 ;;Total ram usage:        2 bytes
  9139 ;; Hardware stack levels used: 1
  9140 ;; Hardware stack levels required when called: 5
  9141 ;; This function calls:
  9142 ;;		_ECAN_WAKI_ISR
  9143 ;;		_TMR0_ISR
  9144 ;; This function is called by:
  9145 ;;		Interrupt level 2
  9146 ;; This function uses a non-reentrant model
  9147 ;;
  9148                           
  9149                           	psect	text52
  9150   00202E                     __ptext52:
  9151                           	callstack 0
  9152   00202E                     _INTERRUPT_InterruptManager:
  9153                           	callstack 19
  9154                           
  9155                           ;incstack = 0
  9156   00202E  006F FFE8  F050    	movff	pclath,??_INTERRUPT_InterruptManager
  9157   002034  006F FFEC  F051    	movff	pclatu,??_INTERRUPT_InterruptManager+1
  9158   00203A                     
  9159                           ;mcc_generated_files/interrupt_manager.c: 61:     if(PIE5bits.WAKIE == 1 && PIR5bits.WAK
      +                          IF == 1)
  9160   00203A  0139               	movlb	57	; () banked
  9161   00203C  AD95               	btfss	149,6,b	;volatile
  9162   00203E  EF23  F010         	goto	i2u481_41
  9163   002042  EF25  F010         	goto	i2u481_40
  9164   002046                     i2u481_41:
  9165   002046  EF30  F010         	goto	i2l1269
  9166   00204A                     i2u481_40:
  9167   00204A                     
  9168                           ; BSR set to: 57
  9169   00204A  ADA5               	btfss	165,6,b	;volatile
  9170   00204C  EF2A  F010         	goto	i2u482_41
  9171   002050  EF2C  F010         	goto	i2u482_40
  9172   002054                     i2u482_41:
  9173   002054  EF30  F010         	goto	i2l1269
  9174   002058                     i2u482_40:
  9175   002058                     
  9176                           ; BSR set to: 57
  9177                           ;mcc_generated_files/interrupt_manager.c: 62:     {;mcc_generated_files/interrupt_manage
      +                          r.c: 63:         ECAN_WAKI_ISR();
  9178   002058  EC19  F012         	call	_ECAN_WAKI_ISR	;wreg free
  9179                           
  9180                           ;mcc_generated_files/interrupt_manager.c: 64:     }
  9181   00205C  EF40  F010         	goto	i2l1273
  9182   002060                     i2l1269:
  9183                           
  9184                           ; BSR set to: 57
  9185   002060  AF93               	btfss	147,7,b	;volatile
  9186   002062  EF35  F010         	goto	i2u483_41
  9187   002066  EF37  F010         	goto	i2u483_40
  9188   00206A                     i2u483_41:
  9189   00206A  EF40  F010         	goto	i2l1273
  9190   00206E                     i2u483_40:
  9191   00206E                     
  9192                           ; BSR set to: 57
  9193   00206E  AFA3               	btfss	163,7,b	;volatile
  9194   002070  EF3C  F010         	goto	i2u484_41
  9195   002074  EF3E  F010         	goto	i2u484_40
  9196   002078                     i2u484_41:
  9197   002078  EF40  F010         	goto	i2l1273
  9198   00207C                     i2u484_40:
  9199   00207C                     
  9200                           ; BSR set to: 57
  9201                           ;mcc_generated_files/interrupt_manager.c: 66:     {;mcc_generated_files/interrupt_manage
      +                          r.c: 67:         TMR0_ISR();
  9202   00207C  EC68  F011         	call	_TMR0_ISR	;wreg free
  9203   002080                     i2l1273:
  9204   002080  0060  F147  FFFB   	movff	??_INTERRUPT_InterruptManager+1,pclatu
  9205   002086  0060  F143  FFFA   	movff	??_INTERRUPT_InterruptManager,pclath
  9206   00208C  0011               	retfie		f
  9207   00208E                     __end_of_INTERRUPT_InterruptManager:
  9208                           	callstack 0
  9209                           
  9210 ;; *************** function _TMR0_ISR *****************
  9211 ;; Defined at:
  9212 ;;		line 121 in file "mcc_generated_files/tmr0.c"
  9213 ;; Parameters:    Size  Location     Type
  9214 ;;		None
  9215 ;; Auto vars:     Size  Location     Type
  9216 ;;		None
  9217 ;; Return value:  Size  Location     Type
  9218 ;;                  1    wreg      void 
  9219 ;; Registers used:
  9220 ;;		wreg, status,2, status,0, pcl, pclath, pclatu, tosl, prodl, prodh, cstack
  9221 ;; Tracked objects:
  9222 ;;		On entry : 0/0
  9223 ;;		On exit  : 0/0
  9224 ;;		Unchanged: 0/0
  9225 ;; Data sizes:     COMRAM   BANK0   BANK1   BANK2   BANK3   BANK4   BANK5   BANK6   BANK7   BANK8   BANK9  BANK10  BANK1
      +1  BANK12  BANK13  BANK14  BANK15
  9226 ;;      Params:         0       0       0       0       0       0       0       0       0       0       0       0       
      +0       0       0       0       0
  9227 ;;      Locals:         0       0       0       0       0       0       0       0       0       0       0       0       
      +0       0       0       0       0
  9228 ;;      Temps:          0       0       0       0       0       0       0       0       0       0       0       0       
      +0       0       0       0       0
  9229 ;;      Totals:         0       0       0       0       0       0       0       0       0       0       0       0       
      +0       0       0       0       0
  9230 ;;Total ram usage:        0 bytes
  9231 ;; Hardware stack levels used: 1
  9232 ;; Hardware stack levels required when called: 4
  9233 ;; This function calls:
  9234 ;;		Absolute function
  9235 ;;		_TMR0_Blink
  9236 ;;		_TMR0_DefaultInterruptHandler
  9237 ;; This function is called by:
  9238 ;;		_INTERRUPT_InterruptManager
  9239 ;; This function uses a non-reentrant model
  9240 ;;
  9241                           
  9242                           	psect	text53
  9243   0022D0                     __ptext53:
  9244                           	callstack 0
  9245   0022D0                     _TMR0_ISR:
  9246                           	callstack 19
  9247   0022D0                     
  9248                           ;mcc_generated_files/tmr0.c: 124:     PIR3bits.TMR0IF = 0;
  9249   0022D0  0139               	movlb	57	; () banked
  9250   0022D2  9FA3               	bcf	163,7,b	;volatile
  9251   0022D4                     
  9252                           ; BSR set to: 57
  9253                           ;mcc_generated_files/tmr0.c: 125:     if(TMR0_InterruptHandler)
  9254   0022D4  0100               	movlb	0	; () banked
  9255   0022D6  51B4               	movf	_TMR0_InterruptHandler& (0+255),w,b
  9256   0022D8  11B5               	iorwf	(_TMR0_InterruptHandler+1)& (0+255),w,b
  9257   0022DA  B4D8               	btfsc	status,2,c
  9258   0022DC  EF72  F011         	goto	i2u451_41
  9259   0022E0  EF74  F011         	goto	i2u451_40
  9260   0022E4                     i2u451_41:
  9261   0022E4  EF80  F011         	goto	i2l1851
  9262   0022E8                     i2u451_40:
  9263   0022E8                     
  9264                           ; BSR set to: 0
  9265                           ;mcc_generated_files/tmr0.c: 126:     {;mcc_generated_files/tmr0.c: 127:         TMR0_In
      +                          terruptHandler();
  9266   0022E8  D802               	call	i2u452_48
  9267   0022EA  EF80  F011         	goto	i2u452_49
  9268   0022EE                     i2u452_48:
  9269   0022EE  0005               	push	
  9270   0022F0  6EFA               	movwf	pclath,c
  9271   0022F2  51B4               	movf	_TMR0_InterruptHandler& (0+255),w,b
  9272   0022F4  6EFD               	movwf	tosl,c
  9273   0022F6  51B5               	movf	(_TMR0_InterruptHandler+1)& (0+255),w,b
  9274   0022F8  6EFE               	movwf	tosh,c
  9275   0022FA  6AFF               	clrf	tosu,c
  9276   0022FC  50FA               	movf	pclath,w,c
  9277   0022FE  0012               	return		;indir
  9278   002300                     i2u452_49:
  9279   002300                     i2l1851:
  9280   002300  0012               	return		;funcret
  9281   002302                     __end_of_TMR0_ISR:
  9282                           	callstack 0
  9283                           
  9284 ;; *************** function _TMR0_Blink *****************
  9285 ;; Defined at:
  9286 ;;		line 508 in file "main.c"
  9287 ;; Parameters:    Size  Location     Type
  9288 ;;		None
  9289 ;; Auto vars:     Size  Location     Type
  9290 ;;		None
  9291 ;; Return value:  Size  Location     Type
  9292 ;;                  1    wreg      void 
  9293 ;; Registers used:
  9294 ;;		wreg, status,2, status,0, prodl, prodh, cstack
  9295 ;; Tracked objects:
  9296 ;;		On entry : 0/0
  9297 ;;		On exit  : 0/0
  9298 ;;		Unchanged: 0/0
  9299 ;; Data sizes:     COMRAM   BANK0   BANK1   BANK2   BANK3   BANK4   BANK5   BANK6   BANK7   BANK8   BANK9  BANK10  BANK1
      +1  BANK12  BANK13  BANK14  BANK15
  9300 ;;      Params:         0       0       0       0       0       0       0       0       0       0       0       0       
      +0       0       0       0       0
  9301 ;;      Locals:         0       0       0       0       0       0       0       0       0       0       0       0       
      +0       0       0       0       0
  9302 ;;      Temps:          1       0       0       0       0       0       0       0       0       0       0       0       
      +0       0       0       0       0
  9303 ;;      Totals:         1       0       0       0       0       0       0       0       0       0       0       0       
      +0       0       0       0       0
  9304 ;;Total ram usage:        1 bytes
  9305 ;; Hardware stack levels used: 1
  9306 ;; Hardware stack levels required when called: 3
  9307 ;; This function calls:
  9308 ;;		__CO_COMMLSTimeEventManager
  9309 ;; This function is called by:
  9310 ;;		_main
  9311 ;;		_TMR0_ISR
  9312 ;; This function uses a non-reentrant model
  9313 ;;
  9314                           
  9315                           	psect	text54
  9316   002140                     __ptext54:
  9317                           	callstack 0
  9318   002140                     _TMR0_Blink:
  9319                           	callstack 19
  9320   002140                     
  9321                           ;main.c: 528:  if ((!_tx_pdo_que.bits.b0))
  9322   002140  B026               	btfsc	__tx_pdo_que^0,0,c
  9323   002142  EFA5  F010         	goto	i2u444_41
  9324   002146  EFA7  F010         	goto	i2u444_40
  9325   00214A                     i2u444_41:
  9326   00214A  EFBC  F010         	goto	i2l7838
  9327   00214E                     i2u444_40:
  9328   00214E                     
  9329                           ;main.c: 529:  {;main.c: 530:         (*(UNSIGNED8 *)uLocalXmtBuffer).byte ++;
  9330   00214E  0100               	movlb	0	; () banked
  9331   002150  2BEC               	incf	_uLocalXmtBuffer& (0+255),f,b
  9332   002152                     
  9333                           ; BSR set to: 0
  9334                           ;main.c: 531:         (*(UNSIGNED8 *)uLocalXmtBuffer).bits.b0 = 1;
  9335   002152  81EC               	bsf	_uLocalXmtBuffer& (0+255),0,b
  9336   002154                     
  9337                           ; BSR set to: 0
  9338                           ;main.c: 533:   _tx_pdo_que.bits.b0 = 1;
  9339   002154  8026               	bsf	__tx_pdo_que^0,0,c
  9340   002156                     
  9341                           ; BSR set to: 0
  9342   002156  B8BB               	btfsc	187,4,c	;volatile
  9343   002158  EFB0  F010         	goto	i2u445_41
  9344   00215C  EFB3  F010         	goto	i2u445_40
  9345   002160                     i2u445_41:
  9346   002160  0E01               	movlw	1
  9347   002162  EFB4  F010         	goto	i2u445_46
  9348   002166                     i2u445_40:
  9349   002166  0E00               	movlw	0
  9350   002168                     i2u445_46:
  9351   002168  0AFF               	xorlw	255
  9352   00216A  6E4F               	movwf	??_TMR0_Blink^0,c
  9353   00216C  3A4F               	swapf	??_TMR0_Blink^0,f,c
  9354   00216E  50BB               	movf	187,w,c	;volatile
  9355   002170  184F               	xorwf	??_TMR0_Blink^0,w,c
  9356   002172  0BEF               	andlw	-17
  9357   002174  184F               	xorwf	??_TMR0_Blink^0,w,c
  9358   002176  6EBB               	movwf	187,c	;volatile
  9359   002178                     i2l7838:
  9360                           
  9361                           ;main.c: 542:     _CO_COMMLSTimeEventManager();
  9362   002178  ECDB  F00E         	call	__CO_COMMLSTimeEventManager	;wreg free
  9363   00217C  0012               	return		;funcret
  9364   00217E                     __end_of_TMR0_Blink:
  9365                           	callstack 0
  9366                           
  9367 ;; *************** function _TMR0_DefaultInterruptHandler *****************
  9368 ;; Defined at:
  9369 ;;		line 138 in file "mcc_generated_files/tmr0.c"
  9370 ;; Parameters:    Size  Location     Type
  9371 ;;		None
  9372 ;; Auto vars:     Size  Location     Type
  9373 ;;		None
  9374 ;; Return value:  Size  Location     Type
  9375 ;;                  1    wreg      void 
  9376 ;; Registers used:
  9377 ;;		None
  9378 ;; Tracked objects:
  9379 ;;		On entry : 0/0
  9380 ;;		On exit  : 0/0
  9381 ;;		Unchanged: 0/0
  9382 ;; Data sizes:     COMRAM   BANK0   BANK1   BANK2   BANK3   BANK4   BANK5   BANK6   BANK7   BANK8   BANK9  BANK10  BANK1
      +1  BANK12  BANK13  BANK14  BANK15
  9383 ;;      Params:         0       0       0       0       0       0       0       0       0       0       0       0       
      +0       0       0       0       0
  9384 ;;      Locals:         0       0       0       0       0       0       0       0       0       0       0       0       
      +0       0       0       0       0
  9385 ;;      Temps:          0       0       0       0       0       0       0       0       0       0       0       0       
      +0       0       0       0       0
  9386 ;;      Totals:         0       0       0       0       0       0       0       0       0       0       0       0       
      +0       0       0       0       0
  9387 ;;Total ram usage:        0 bytes
  9388 ;; Hardware stack levels used: 1
  9389 ;; This function calls:
  9390 ;;		Nothing
  9391 ;; This function is called by:
  9392 ;;		_TMR0_Initialize
  9393 ;;		_TMR0_ISR
  9394 ;; This function uses a non-reentrant model
  9395 ;;
  9396                           
  9397                           	psect	text55
  9398   0024DA                     __ptext55:
  9399                           	callstack 0
  9400   0024DA                     _TMR0_DefaultInterruptHandler:
  9401                           	callstack 22
  9402   0024DA  0012               	return		;funcret
  9403   0024DC                     __end_of_TMR0_DefaultInterruptHandler:
  9404                           	callstack 0
  9405                           
  9406 ;; *************** function __CO_COMMLSTimeEventManager *****************
  9407 ;; Defined at:
  9408 ;;		line 598 in file "CANopen/CO_COMM.c"
  9409 ;; Parameters:    Size  Location     Type
  9410 ;;		None
  9411 ;; Auto vars:     Size  Location     Type
  9412 ;;		None
  9413 ;; Return value:  Size  Location     Type
  9414 ;;                  1    wreg      void 
  9415 ;; Registers used:
  9416 ;;		wreg, status,2, status,0, prodl, prodh, cstack
  9417 ;; Tracked objects:
  9418 ;;		On entry : 0/0
  9419 ;;		On exit  : 0/0
  9420 ;;		Unchanged: 0/0
  9421 ;; Data sizes:     COMRAM   BANK0   BANK1   BANK2   BANK3   BANK4   BANK5   BANK6   BANK7   BANK8   BANK9  BANK10  BANK1
      +1  BANK12  BANK13  BANK14  BANK15
  9422 ;;      Params:         0       0       0       0       0       0       0       0       0       0       0       0       
      +0       0       0       0       0
  9423 ;;      Locals:         0       0       0       0       0       0       0       0       0       0       0       0       
      +0       0       0       0       0
  9424 ;;      Temps:          0       0       0       0       0       0       0       0       0       0       0       0       
      +0       0       0       0       0
  9425 ;;      Totals:         0       0       0       0       0       0       0       0       0       0       0       0       
      +0       0       0       0       0
  9426 ;;Total ram usage:        0 bytes
  9427 ;; Hardware stack levels used: 1
  9428 ;; Hardware stack levels required when called: 2
  9429 ;; This function calls:
  9430 ;;		_CO_PDO1LSTimerEvent
  9431 ;;		__CO_COMM_NMTE_LSTimerEvent
  9432 ;;		__CO_COMM_SDO1_LSTimerEvent
  9433 ;; This function is called by:
  9434 ;;		_TMR0_Blink
  9435 ;; This function uses a non-reentrant model
  9436 ;;
  9437                           
  9438                           	psect	text56
  9439   001DB6                     __ptext56:
  9440                           	callstack 0
  9441   001DB6                     __CO_COMMLSTimeEventManager:
  9442                           	callstack 19
  9443   001DB6                     
  9444                           ;CANopen/CO_COMM.c: 601:  if (_uCO_state.bits.b0)
  9445   001DB6  A02E               	btfss	__uCO_state^0,0,c
  9446   001DB8  EFE0  F00E         	goto	i2u399_41
  9447   001DBC  EFE2  F00E         	goto	i2u399_40
  9448   001DC0                     i2u399_41:
  9449   001DC0  EF15  F00F         	goto	i2l404
  9450   001DC4                     i2u399_40:
  9451   001DC4                     
  9452                           ;CANopen/CO_COMM.c: 602:  {;CANopen/CO_COMM.c: 604:   if (_tpdo_en.byte)
  9453   001DC4  5029               	movf	__tpdo_en^0,w,c
  9454   001DC6  B4D8               	btfsc	status,2,c
  9455   001DC8  EFE8  F00E         	goto	i2u400_41
  9456   001DCC  EFEA  F00E         	goto	i2u400_40
  9457   001DD0                     i2u400_41:
  9458   001DD0  EFF3  F00E         	goto	i2l7522
  9459   001DD4                     i2u400_40:
  9460   001DD4                     
  9461                           ;CANopen/CO_COMM.c: 605:   {;CANopen/CO_COMM.c: 606:    if (_tpdo_en.bits.b0){CO_PDO1LST
      +                          imerEvent();}
  9462   001DD4  A029               	btfss	__tpdo_en^0,0,c
  9463   001DD6  EFEF  F00E         	goto	i2u401_41
  9464   001DDA  EFF1  F00E         	goto	i2u401_40
  9465   001DDE                     i2u401_41:
  9466   001DDE  EFF3  F00E         	goto	i2l7522
  9467   001DE2                     i2u401_40:
  9468   001DE2  EC6E  F012         	call	_CO_PDO1LSTimerEvent	;wreg free
  9469   001DE6                     i2l7522:
  9470                           
  9471                           ;CANopen/CO_COMM.c: 623:   if (_net_en.byte)
  9472   001DE6  502C               	movf	__net_en^0,w,c
  9473   001DE8  B4D8               	btfsc	status,2,c
  9474   001DEA  EFF9  F00E         	goto	i2u402_41
  9475   001DEE  EFFB  F00E         	goto	i2u402_40
  9476   001DF2                     i2u402_41:
  9477   001DF2  EF04  F00F         	goto	i2l7528
  9478   001DF6                     i2u402_40:
  9479   001DF6                     
  9480                           ;CANopen/CO_COMM.c: 624:   {;CANopen/CO_COMM.c: 628:    if (_net_en.bits.b3){_CO_COMM_NM
      +                          TE_LSTimerEvent();}
  9481   001DF6  A62C               	btfss	__net_en^0,3,c
  9482   001DF8  EF00  F00F         	goto	i2u403_41
  9483   001DFC  EF02  F00F         	goto	i2u403_40
  9484   001E00                     i2u403_41:
  9485   001E00  EF04  F00F         	goto	i2l7528
  9486   001E04                     i2u403_40:
  9487   001E04  EC18  F00E         	call	__CO_COMM_NMTE_LSTimerEvent	;wreg free
  9488   001E08                     i2l7528:
  9489                           
  9490                           ;CANopen/CO_COMM.c: 633:   if (_sdo_en.byte)
  9491   001E08  502B               	movf	__sdo_en^0,w,c
  9492   001E0A  B4D8               	btfsc	status,2,c
  9493   001E0C  EF0A  F00F         	goto	i2u404_41
  9494   001E10  EF0C  F00F         	goto	i2u404_40
  9495   001E14                     i2u404_41:
  9496   001E14  EF15  F00F         	goto	i2l404
  9497   001E18                     i2u404_40:
  9498   001E18                     
  9499                           ;CANopen/CO_COMM.c: 634:   {;CANopen/CO_COMM.c: 635:    if (_sdo_en.bits.b0){_CO_COMM_SD
      +                          O1_LSTimerEvent();}
  9500   001E18  A02B               	btfss	__sdo_en^0,0,c
  9501   001E1A  EF11  F00F         	goto	i2u405_41
  9502   001E1E  EF13  F00F         	goto	i2u405_40
  9503   001E22                     i2u405_41:
  9504   001E22  EF15  F00F         	goto	i2l404
  9505   001E26                     i2u405_40:
  9506   001E26  ECBF  F010         	call	__CO_COMM_SDO1_LSTimerEvent	;wreg free
  9507   001E2A                     i2l404:
  9508   001E2A  0012               	return		;funcret
  9509   001E2C                     __end_of__CO_COMMLSTimeEventManager:
  9510                           	callstack 0
  9511                           
  9512 ;; *************** function __CO_COMM_SDO1_LSTimerEvent *****************
  9513 ;; Defined at:
  9514 ;;		line 281 in file "CANopen/CO_SDO1.c"
  9515 ;; Parameters:    Size  Location     Type
  9516 ;;		None
  9517 ;; Auto vars:     Size  Location     Type
  9518 ;;		None
  9519 ;; Return value:  Size  Location     Type
  9520 ;;                  1    wreg      void 
  9521 ;; Registers used:
  9522 ;;		wreg, status,2, status,0
  9523 ;; Tracked objects:
  9524 ;;		On entry : 0/0
  9525 ;;		On exit  : 0/0
  9526 ;;		Unchanged: 0/0
  9527 ;; Data sizes:     COMRAM   BANK0   BANK1   BANK2   BANK3   BANK4   BANK5   BANK6   BANK7   BANK8   BANK9  BANK10  BANK1
      +1  BANK12  BANK13  BANK14  BANK15
  9528 ;;      Params:         0       0       0       0       0       0       0       0       0       0       0       0       
      +0       0       0       0       0
  9529 ;;      Locals:         0       0       0       0       0       0       0       0       0       0       0       0       
      +0       0       0       0       0
  9530 ;;      Temps:          0       0       0       0       0       0       0       0       0       0       0       0       
      +0       0       0       0       0
  9531 ;;      Totals:         0       0       0       0       0       0       0       0       0       0       0       0       
      +0       0       0       0       0
  9532 ;;Total ram usage:        0 bytes
  9533 ;; Hardware stack levels used: 1
  9534 ;; This function calls:
  9535 ;;		Nothing
  9536 ;; This function is called by:
  9537 ;;		__CO_COMMLSTimeEventManager
  9538 ;; This function uses a non-reentrant model
  9539 ;;
  9540                           
  9541                           	psect	text57
  9542   00217E                     __ptext57:
  9543                           	callstack 0
  9544   00217E                     __CO_COMM_SDO1_LSTimerEvent:
  9545                           	callstack 20
  9546   00217E                     
  9547                           ;CANopen/CO_SDO1.c: 284:  if (_uSDO1State.bits.start)
  9548   00217E  AA1D               	btfss	__uSDO1State^0,5,c
  9549   002180  EFC4  F010         	goto	i2u333_41
  9550   002184  EFC6  F010         	goto	i2u333_40
  9551   002188                     i2u333_41:
  9552   002188  EFDD  F010         	goto	i2l967
  9553   00218C                     i2u333_40:
  9554   00218C                     
  9555                           ;CANopen/CO_SDO1.c: 285:  {;CANopen/CO_SDO1.c: 287:   _uSDO1Timer -= 8;
  9556   00218C  0E08               	movlw	8
  9557   00218E  0100               	movlb	0	; () banked
  9558   002190  5FC0               	subwf	__uSDO1Timer& (0+255),f,b
  9559   002192  0E00               	movlw	0
  9560   002194  5BC1               	subwfb	(__uSDO1Timer+1)& (0+255),f,b
  9561                           
  9562                           ;CANopen/CO_SDO1.c: 290:   if ((signed int)_uSDO1Timer <= 0)
  9563   002196  BFC1               	btfsc	(__uSDO1Timer+1)& (0+255),7,b
  9564   002198  EFD8  F010         	goto	i2u334_40
  9565   00219C  51C1               	movf	(__uSDO1Timer+1)& (0+255),w,b
  9566   00219E  E106               	bnz	i2u334_41
  9567   0021A0  05C0               	decf	__uSDO1Timer& (0+255),w,b
  9568   0021A2  B0D8               	btfsc	status,0,c
  9569   0021A4  EFD6  F010         	goto	i2u334_41
  9570   0021A8  EFD8  F010         	goto	i2u334_40
  9571   0021AC                     i2u334_41:
  9572   0021AC  EFDD  F010         	goto	i2l967
  9573   0021B0                     i2u334_40:
  9574   0021B0                     
  9575                           ; BSR set to: 0
  9576                           ;CANopen/CO_SDO1.c: 291:   {;CANopen/CO_SDO1.c: 293:    _uSDO1State.byte = 0;
  9577   0021B0  0E00               	movlw	0
  9578   0021B2  6E1D               	movwf	__uSDO1State^0,c
  9579                           
  9580                           ;CANopen/CO_SDO1.c: 296:    _uSDO1ACode = E_SDO_TIME;
  9581   0021B4  0E02               	movlw	2
  9582   0021B6  6E1C               	movwf	__uSDO1ACode^0,c
  9583   0021B8                     
  9584                           ; BSR set to: 0
  9585                           ;CANopen/CO_SDO1.c: 297:    _tx_sdo_que.bits.b0 = 1;
  9586   0021B8  8027               	bsf	__tx_sdo_que^0,0,c
  9587   0021BA                     i2l967:
  9588   0021BA  0012               	return		;funcret
  9589   0021BC                     __end_of__CO_COMM_SDO1_LSTimerEvent:
  9590                           	callstack 0
  9591                           
  9592 ;; *************** function __CO_COMM_NMTE_LSTimerEvent *****************
  9593 ;; Defined at:
  9594 ;;		line 424 in file "CANopen/CO_NMTE.c"
  9595 ;; Parameters:    Size  Location     Type
  9596 ;;		None
  9597 ;; Auto vars:     Size  Location     Type
  9598 ;;		None
  9599 ;; Return value:  Size  Location     Type
  9600 ;;                  1    wreg      void 
  9601 ;; Registers used:
  9602 ;;		wreg, status,2, status,0, prodl, prodh, cstack
  9603 ;; Tracked objects:
  9604 ;;		On entry : 0/0
  9605 ;;		On exit  : 0/0
  9606 ;;		Unchanged: 0/0
  9607 ;; Data sizes:     COMRAM   BANK0   BANK1   BANK2   BANK3   BANK4   BANK5   BANK6   BANK7   BANK8   BANK9  BANK10  BANK1
      +1  BANK12  BANK13  BANK14  BANK15
  9608 ;;      Params:         0       0       0       0       0       0       0       0       0       0       0       0       
      +0       0       0       0       0
  9609 ;;      Locals:         0       0       0       0       0       0       0       0       0       0       0       0       
      +0       0       0       0       0
  9610 ;;      Temps:          3       0       0       0       0       0       0       0       0       0       0       0       
      +0       0       0       0       0
  9611 ;;      Totals:         3       0       0       0       0       0       0       0       0       0       0       0       
      +0       0       0       0       0
  9612 ;;Total ram usage:        3 bytes
  9613 ;; Hardware stack levels used: 1
  9614 ;; Hardware stack levels required when called: 1
  9615 ;; This function calls:
  9616 ;;		_CO_NMTENodeGuardErrEvent
  9617 ;;		i2___wmul
  9618 ;; This function is called by:
  9619 ;;		__CO_COMMLSTimeEventManager
  9620 ;; This function uses a non-reentrant model
  9621 ;;
  9622                           
  9623                           	psect	text58
  9624   001C30                     __ptext58:
  9625                           	callstack 0
  9626   001C30                     __CO_COMM_NMTE_LSTimerEvent:
  9627                           	callstack 19
  9628   001C30                     
  9629                           ;CANopen/CO_NMTE.c: 427:  if (_uNMTEState.bits.b1)
  9630   001C30  A230               	btfss	__uNMTEState^0,1,c
  9631   001C32  EF1D  F00E         	goto	i2u330_41
  9632   001C36  EF1F  F00E         	goto	i2u330_40
  9633   001C3A                     i2u330_41:
  9634   001C3A  EF5D  F00E         	goto	i2l822
  9635   001C3E                     i2u330_40:
  9636   001C3E                     
  9637                           ;CANopen/CO_NMTE.c: 428:  {;CANopen/CO_NMTE.c: 430:   _uNMTETimer -= 8;
  9638   001C3E  0EF8               	movlw	248
  9639   001C40  0100               	movlb	0	; () banked
  9640   001C42  27AE               	addwf	__uNMTETimer& (0+255),f,b
  9641   001C44  0EFF               	movlw	255
  9642   001C46  23AF               	addwfc	(__uNMTETimer+1)& (0+255),f,b
  9643   001C48  0EFF               	movlw	255
  9644   001C4A  23B0               	addwfc	(__uNMTETimer+2)& (0+255),f,b
  9645   001C4C                     
  9646                           ; BSR set to: 0
  9647                           ;CANopen/CO_NMTE.c: 434:   if (_uNMTETimer <= 0)
  9648   001C4C  BFB0               	btfsc	(__uNMTETimer+2)& (0+255),7,b
  9649   001C4E  EF34  F00E         	goto	i2u331_40
  9650   001C52  51B0               	movf	(__uNMTETimer+2)& (0+255),w,b
  9651   001C54  11AF               	iorwf	(__uNMTETimer+1)& (0+255),w,b
  9652   001C56  E106               	bnz	i2u331_41
  9653   001C58  05AE               	decf	__uNMTETimer& (0+255),w,b
  9654   001C5A  B0D8               	btfsc	status,0,c
  9655   001C5C  EF32  F00E         	goto	i2u331_41
  9656   001C60  EF34  F00E         	goto	i2u331_40
  9657   001C64                     i2u331_41:
  9658   001C64  EF5D  F00E         	goto	i2l822
  9659   001C68                     i2u331_40:
  9660   001C68                     
  9661                           ; BSR set to: 0
  9662                           ;CANopen/CO_NMTE.c: 435:   {;CANopen/CO_NMTE.c: 437:    if (!_uNMTEState.bits.b2)
  9663   001C68  B430               	btfsc	__uNMTEState^0,2,c
  9664   001C6A  EF39  F00E         	goto	i2u332_41
  9665   001C6E  EF3B  F00E         	goto	i2u332_40
  9666   001C72                     i2u332_41:
  9667   001C72  EF4C  F00E         	goto	i2l6850
  9668   001C76                     i2u332_40:
  9669   001C76                     
  9670                           ; BSR set to: 0
  9671                           ;CANopen/CO_NMTE.c: 438:    {;CANopen/CO_NMTE.c: 440:     _uNMTETimer = _uNMTETimer + _u
      +                          NMTEHeartBeat.word;
  9672   001C76  C012  F04C         	movff	__uNMTEHeartBeat,??__CO_COMM_NMTE_LSTimerEvent
  9673   001C7A  C013  F04D         	movff	__uNMTEHeartBeat+1,??__CO_COMM_NMTE_LSTimerEvent+1
  9674   001C7E  6A4E               	clrf	(??__CO_COMM_NMTE_LSTimerEvent+2)^0,c
  9675   001C80  51AE               	movf	__uNMTETimer& (0+255),w,b
  9676   001C82  244C               	addwf	??__CO_COMM_NMTE_LSTimerEvent^0,w,c
  9677   001C84  6FAE               	movwf	__uNMTETimer& (0+255),b
  9678   001C86  51AF               	movf	(__uNMTETimer+1)& (0+255),w,b
  9679   001C88  204D               	addwfc	(??__CO_COMM_NMTE_LSTimerEvent+1)^0,w,c
  9680   001C8A  6FAF               	movwf	(__uNMTETimer+1)& (0+255),b
  9681   001C8C  51B0               	movf	(__uNMTETimer+2)& (0+255),w,b
  9682   001C8E  204E               	addwfc	(??__CO_COMM_NMTE_LSTimerEvent+2)^0,w,c
  9683   001C90  6FB0               	movwf	(__uNMTETimer+2)& (0+255),b
  9684   001C92                     
  9685                           ; BSR set to: 0
  9686                           ;CANopen/CO_NMTE.c: 443:     _tx_net_que.bits.b3 = 1;
  9687   001C92  8628               	bsf	__tx_net_que^0,3,c
  9688                           
  9689                           ;CANopen/CO_NMTE.c: 444:    }
  9690   001C94  EF5D  F00E         	goto	i2l822
  9691   001C98                     i2l6850:
  9692                           
  9693                           ; BSR set to: 0
  9694                           ;CANopen/CO_NMTE.c: 448:    {;CANopen/CO_NMTE.c: 450:     _uNMTETimer = _uNMTEGuardTime.
      +                          word * _uNMTELifeFactor.byte;
  9695   001C98  C021  F046         	movff	__uNMTELifeFactor,i2___wmul@multiplier
  9696   001C9C  6A47               	clrf	(i2___wmul@multiplier+1)^0,c
  9697   001C9E  C010  F048         	movff	__uNMTEGuardTime,i2___wmul@multiplicand
  9698   001CA2  C011  F049         	movff	__uNMTEGuardTime+1,i2___wmul@multiplicand+1
  9699   001CA6  EC97  F011         	call	i2___wmul	;wreg free
  9700   001CAA  C046  F0AE         	movff	?i2___wmul,__uNMTETimer
  9701   001CAE  C047  F0AF         	movff	?i2___wmul+1,__uNMTETimer+1
  9702   001CB2  0100               	movlb	0	; () banked
  9703   001CB4  6BB0               	clrf	(__uNMTETimer+2)& (0+255),b
  9704   001CB6                     
  9705                           ; BSR set to: 0
  9706                           ;CANopen/CO_NMTE.c: 453:     CO_NMTENodeGuardErrEvent();
  9707   001CB6  ECF6  F011         	call	_CO_NMTENodeGuardErrEvent	;wreg free
  9708   001CBA                     i2l822:
  9709   001CBA  0012               	return		;funcret
  9710   001CBC                     __end_of__CO_COMM_NMTE_LSTimerEvent:
  9711                           	callstack 0
  9712                           
  9713 ;; *************** function i2___wmul *****************
  9714 ;; Defined at:
  9715 ;;		line 15 in file "C:\Program Files\Microchip\xc8\v2.40\pic\sources\c99\common\Umul16.c"
  9716 ;; Parameters:    Size  Location     Type
  9717 ;;  multiplier      2    0[COMRAM] unsigned int 
  9718 ;;  multiplicand    2    2[COMRAM] unsigned int 
  9719 ;; Auto vars:     Size  Location     Type
  9720 ;;  product         2    4[COMRAM] unsigned int 
  9721 ;; Return value:  Size  Location     Type
  9722 ;;                  2    0[COMRAM] unsigned int 
  9723 ;; Registers used:
  9724 ;;		wreg, status,2, status,0, prodl, prodh
  9725 ;; Tracked objects:
  9726 ;;		On entry : 0/0
  9727 ;;		On exit  : 0/0
  9728 ;;		Unchanged: 0/0
  9729 ;; Data sizes:     COMRAM   BANK0   BANK1   BANK2   BANK3   BANK4   BANK5   BANK6   BANK7   BANK8   BANK9  BANK10  BANK1
      +1  BANK12  BANK13  BANK14  BANK15
  9730 ;;      Params:         4       0       0       0       0       0       0       0       0       0       0       0       
      +0       0       0       0       0
  9731 ;;      Locals:         2       0       0       0       0       0       0       0       0       0       0       0       
      +0       0       0       0       0
  9732 ;;      Temps:          0       0       0       0       0       0       0       0       0       0       0       0       
      +0       0       0       0       0
  9733 ;;      Totals:         6       0       0       0       0       0       0       0       0       0       0       0       
      +0       0       0       0       0
  9734 ;;Total ram usage:        6 bytes
  9735 ;; Hardware stack levels used: 1
  9736 ;; This function calls:
  9737 ;;		Nothing
  9738 ;; This function is called by:
  9739 ;;		__CO_COMM_NMTE_LSTimerEvent
  9740 ;; This function uses a non-reentrant model
  9741 ;;
  9742                           
  9743                           	psect	text59
  9744   00232E                     __ptext59:
  9745                           	callstack 0
  9746   00232E                     i2___wmul:
  9747                           	callstack 19
  9748   00232E  5046               	movf	i2___wmul@multiplier^0,w,c
  9749   002330  0248               	mulwf	i2___wmul@multiplicand^0,c
  9750   002332  006F FFCC  F04A    	movff	prodl,i2___wmul@product
  9751   002338  006F FFD0  F04B    	movff	prodh,i2___wmul@product+1
  9752   00233E  5046               	movf	i2___wmul@multiplier^0,w,c
  9753   002340  0249               	mulwf	(i2___wmul@multiplicand+1)^0,c
  9754   002342  50F3               	movf	243,w,c
  9755   002344  264B               	addwf	(i2___wmul@product+1)^0,f,c
  9756   002346  5047               	movf	(i2___wmul@multiplier+1)^0,w,c
  9757   002348  0248               	mulwf	i2___wmul@multiplicand^0,c
  9758   00234A  50F3               	movf	243,w,c
  9759   00234C  264B               	addwf	(i2___wmul@product+1)^0,f,c
  9760   00234E  C04A  F046         	movff	i2___wmul@product,?i2___wmul
  9761   002352  C04B  F047         	movff	i2___wmul@product+1,?i2___wmul+1
  9762   002356  0012               	return		;funcret
  9763   002358                     __end_ofi2___wmul:
  9764                           	callstack 0
  9765                           
  9766 ;; *************** function _CO_NMTENodeGuardErrEvent *****************
  9767 ;; Defined at:
  9768 ;;		line 65 in file "CANopen/exttst.c"
  9769 ;; Parameters:    Size  Location     Type
  9770 ;;		None
  9771 ;; Auto vars:     Size  Location     Type
  9772 ;;		None
  9773 ;; Return value:  Size  Location     Type
  9774 ;;                  1    wreg      void 
  9775 ;; Registers used:
  9776 ;;		wreg, status,2, status,0
  9777 ;; Tracked objects:
  9778 ;;		On entry : 0/0
  9779 ;;		On exit  : 0/0
  9780 ;;		Unchanged: 0/0
  9781 ;; Data sizes:     COMRAM   BANK0   BANK1   BANK2   BANK3   BANK4   BANK5   BANK6   BANK7   BANK8   BANK9  BANK10  BANK1
      +1  BANK12  BANK13  BANK14  BANK15
  9782 ;;      Params:         0       0       0       0       0       0       0       0       0       0       0       0       
      +0       0       0       0       0
  9783 ;;      Locals:         0       0       0       0       0       0       0       0       0       0       0       0       
      +0       0       0       0       0
  9784 ;;      Temps:          1       0       0       0       0       0       0       0       0       0       0       0       
      +0       0       0       0       0
  9785 ;;      Totals:         1       0       0       0       0       0       0       0       0       0       0       0       
      +0       0       0       0       0
  9786 ;;Total ram usage:        1 bytes
  9787 ;; Hardware stack levels used: 1
  9788 ;; This function calls:
  9789 ;;		Nothing
  9790 ;; This function is called by:
  9791 ;;		__CO_COMM_NMTE_LSTimerEvent
  9792 ;; This function uses a non-reentrant model
  9793 ;;
  9794                           
  9795                           	psect	text60
  9796   0023EC                     __ptext60:
  9797                           	callstack 0
  9798   0023EC                     _CO_NMTENodeGuardErrEvent:
  9799                           	callstack 19
  9800   0023EC                     
  9801                           ;CANopen/exttst.c: 67:  LATBbits.LATB4 = ~LATBbits.LATB4;
  9802   0023EC  B8BB               	btfsc	187,4,c	;volatile
  9803   0023EE  EFFB  F011         	goto	i2u328_41
  9804   0023F2  EFFE  F011         	goto	i2u328_40
  9805   0023F6                     i2u328_41:
  9806   0023F6  0E01               	movlw	1
  9807   0023F8  EFFF  F011         	goto	i2u328_46
  9808   0023FC                     i2u328_40:
  9809   0023FC  0E00               	movlw	0
  9810   0023FE                     i2u328_46:
  9811   0023FE  0AFF               	xorlw	255
  9812   002400  6E46               	movwf	??_CO_NMTENodeGuardErrEvent^0,c
  9813   002402  3A46               	swapf	??_CO_NMTENodeGuardErrEvent^0,f,c
  9814   002404  50BB               	movf	187,w,c	;volatile
  9815   002406  1846               	xorwf	??_CO_NMTENodeGuardErrEvent^0,w,c
  9816   002408  0BEF               	andlw	-17
  9817   00240A  1846               	xorwf	??_CO_NMTENodeGuardErrEvent^0,w,c
  9818   00240C  6EBB               	movwf	187,c	;volatile
  9819   00240E  0012               	return		;funcret
  9820   002410                     __end_of_CO_NMTENodeGuardErrEvent:
  9821                           	callstack 0
  9822                           
  9823 ;; *************** function _CO_PDO1LSTimerEvent *****************
  9824 ;; Defined at:
  9825 ;;		line 478 in file "main.c"
  9826 ;; Parameters:    Size  Location     Type
  9827 ;;		None
  9828 ;; Auto vars:     Size  Location     Type
  9829 ;;		None
  9830 ;; Return value:  Size  Location     Type
  9831 ;;                  1    wreg      void 
  9832 ;; Registers used:
  9833 ;;		None
  9834 ;; Tracked objects:
  9835 ;;		On entry : 0/0
  9836 ;;		On exit  : 0/0
  9837 ;;		Unchanged: 0/0
  9838 ;; Data sizes:     COMRAM   BANK0   BANK1   BANK2   BANK3   BANK4   BANK5   BANK6   BANK7   BANK8   BANK9  BANK10  BANK1
      +1  BANK12  BANK13  BANK14  BANK15
  9839 ;;      Params:         0       0       0       0       0       0       0       0       0       0       0       0       
      +0       0       0       0       0
  9840 ;;      Locals:         0       0       0       0       0       0       0       0       0       0       0       0       
      +0       0       0       0       0
  9841 ;;      Temps:          0       0       0       0       0       0       0       0       0       0       0       0       
      +0       0       0       0       0
  9842 ;;      Totals:         0       0       0       0       0       0       0       0       0       0       0       0       
      +0       0       0       0       0
  9843 ;;Total ram usage:        0 bytes
  9844 ;; Hardware stack levels used: 1
  9845 ;; This function calls:
  9846 ;;		Nothing
  9847 ;; This function is called by:
  9848 ;;		__CO_COMMLSTimeEventManager
  9849 ;; This function uses a non-reentrant model
  9850 ;;
  9851                           
  9852                           	psect	text61
  9853   0024DC                     __ptext61:
  9854                           	callstack 0
  9855   0024DC                     _CO_PDO1LSTimerEvent:
  9856                           	callstack 20
  9857   0024DC  0012               	return		;funcret
  9858   0024DE                     __end_of_CO_PDO1LSTimerEvent:
  9859                           	callstack 0
  9860                           
  9861 ;; *************** function _ECAN_WAKI_ISR *****************
  9862 ;; Defined at:
  9863 ;;		line 444 in file "mcc_generated_files/ecan.c"
  9864 ;; Parameters:    Size  Location     Type
  9865 ;;		None
  9866 ;; Auto vars:     Size  Location     Type
  9867 ;;		None
  9868 ;; Return value:  Size  Location     Type
  9869 ;;                  1    wreg      void 
  9870 ;; Registers used:
  9871 ;;		wreg, pcl, pclath, pclatu, tosl, cstack
  9872 ;; Tracked objects:
  9873 ;;		On entry : 0/0
  9874 ;;		On exit  : 0/0
  9875 ;;		Unchanged: 0/0
  9876 ;; Data sizes:     COMRAM   BANK0   BANK1   BANK2   BANK3   BANK4   BANK5   BANK6   BANK7   BANK8   BANK9  BANK10  BANK1
      +1  BANK12  BANK13  BANK14  BANK15
  9877 ;;      Params:         0       0       0       0       0       0       0       0       0       0       0       0       
      +0       0       0       0       0
  9878 ;;      Locals:         0       0       0       0       0       0       0       0       0       0       0       0       
      +0       0       0       0       0
  9879 ;;      Temps:          0       0       0       0       0       0       0       0       0       0       0       0       
      +0       0       0       0       0
  9880 ;;      Totals:         0       0       0       0       0       0       0       0       0       0       0       0       
      +0       0       0       0       0
  9881 ;;Total ram usage:        0 bytes
  9882 ;; Hardware stack levels used: 1
  9883 ;; Hardware stack levels required when called: 1
  9884 ;; This function calls:
  9885 ;;		Absolute function
  9886 ;;		_WakeUpDefaultInterruptHandler
  9887 ;; This function is called by:
  9888 ;;		_INTERRUPT_InterruptManager
  9889 ;; This function uses a non-reentrant model
  9890 ;;
  9891                           
  9892                           	psect	text62
  9893   002432                     __ptext62:
  9894                           	callstack 0
  9895   002432                     _ECAN_WAKI_ISR:
  9896                           	callstack 22
  9897   002432                     
  9898                           ;mcc_generated_files/ecan.c: 446:     WakeUpInterruptHandler();
  9899   002432  D802               	call	i2u450_48
  9900   002434  EF26  F012         	goto	i2u450_49
  9901   002438                     i2u450_48:
  9902   002438  0005               	push	
  9903   00243A  6EFA               	movwf	pclath,c
  9904   00243C  0100               	movlb	0	; () banked
  9905   00243E  51B6               	movf	_WakeUpInterruptHandler& (0+255),w,b
  9906   002440  6EFD               	movwf	tosl,c
  9907   002442  51B7               	movf	(_WakeUpInterruptHandler+1)& (0+255),w,b
  9908   002444  6EFE               	movwf	tosh,c
  9909   002446  6AFF               	clrf	tosu,c
  9910   002448  50FA               	movf	pclath,w,c
  9911   00244A  0012               	return		;indir
  9912   00244C                     i2u450_49:
  9913   00244C                     
  9914                           ;mcc_generated_files/ecan.c: 447:     PIR5bits.WAKIF = 0;
  9915   00244C  0139               	movlb	57	; () banked
  9916   00244E  9DA5               	bcf	165,6,b	;volatile
  9917   002450                     
  9918                           ; BSR set to: 57
  9919   002450  0012               	return		;funcret
  9920   002452                     __end_of_ECAN_WAKI_ISR:
  9921                           	callstack 0
  9922                           
  9923 ;; *************** function _WakeUpDefaultInterruptHandler *****************
  9924 ;; Defined at:
  9925 ;;		line 63 in file "mcc_generated_files/ecan.c"
  9926 ;; Parameters:    Size  Location     Type
  9927 ;;		None
  9928 ;; Auto vars:     Size  Location     Type
  9929 ;;		None
  9930 ;; Return value:  Size  Location     Type
  9931 ;;                  1    wreg      void 
  9932 ;; Registers used:
  9933 ;;		None
  9934 ;; Tracked objects:
  9935 ;;		On entry : 0/0
  9936 ;;		On exit  : 0/0
  9937 ;;		Unchanged: 0/0
  9938 ;; Data sizes:     COMRAM   BANK0   BANK1   BANK2   BANK3   BANK4   BANK5   BANK6   BANK7   BANK8   BANK9  BANK10  BANK1
      +1  BANK12  BANK13  BANK14  BANK15
  9939 ;;      Params:         0       0       0       0       0       0       0       0       0       0       0       0       
      +0       0       0       0       0
  9940 ;;      Locals:         0       0       0       0       0       0       0       0       0       0       0       0       
      +0       0       0       0       0
  9941 ;;      Temps:          0       0       0       0       0       0       0       0       0       0       0       0       
      +0       0       0       0       0
  9942 ;;      Totals:         0       0       0       0       0       0       0       0       0       0       0       0       
      +0       0       0       0       0
  9943 ;;Total ram usage:        0 bytes
  9944 ;; Hardware stack levels used: 1
  9945 ;; This function calls:
  9946 ;;		Nothing
  9947 ;; This function is called by:
  9948 ;;		_ECAN_Initialize
  9949 ;;		_ECAN_WAKI_ISR
  9950 ;; This function uses a non-reentrant model
  9951 ;;
  9952                           
  9953                           	psect	text63
  9954   0024DE                     __ptext63:
  9955                           	callstack 0
  9956   0024DE                     _WakeUpDefaultInterruptHandler:
  9957                           	callstack 22
  9958   0024DE  0012               	return		;funcret
  9959   0024E0                     __end_of_WakeUpDefaultInterruptHandler:
  9960                           	callstack 0
  9961                           
  9962                           ;
  9963                           ; Interrupt Vector Table @ 0x8
  9964                           ;
  9965                           
  9966                           	psect	ivt0x8
  9967   000008                     __pivt0x8:
  9968                           	callstack 0
  9969   000008                     ivt0x8_base:
  9970                           	callstack 0
  9971                           
  9972                           ; high-priority vector
  9973   000008  EF17  F010         	goto	_INTERRUPT_InterruptManager
  9974   000018                     	org	16
  9975                           
  9976                           ; low-priority vector
  9977   000018  00FF               	reset	
  9978                           
  9979                           	psect	text64
  9980   000000                     __ptext64:
  9981                           	callstack 0
  9982   000000                     
  9983                           	psect	rparam
  9984   000000                     
  9985                           	psect	idloc
  9986                           
  9987                           ;Config register IDLOC0 @ 0x200000
  9988                           ;	unspecified, using default values
  9989   200000                     	org	2097152
  9990   200000  0FFF               	dw	4095
  9991                           
  9992                           ;Config register IDLOC1 @ 0x200002
  9993                           ;	unspecified, using default values
  9994   200002                     	org	2097154
  9995   200002  0FFF               	dw	4095
  9996                           
  9997                           ;Config register IDLOC2 @ 0x200004
  9998                           ;	unspecified, using default values
  9999   200004                     	org	2097156
 10000   200004  0FFF               	dw	4095
 10001                           
 10002                           ;Config register IDLOC3 @ 0x200006
 10003                           ;	unspecified, using default values
 10004   200006                     	org	2097158
 10005   200006  0FFF               	dw	4095
 10006                           
 10007                           ;Config register IDLOC4 @ 0x200008
 10008                           ;	unspecified, using default values
 10009   200008                     	org	2097160
 10010   200008  0FFF               	dw	4095
 10011                           
 10012                           ;Config register IDLOC5 @ 0x20000A
 10013                           ;	unspecified, using default values
 10014   20000A                     	org	2097162
 10015   20000A  0FFF               	dw	4095
 10016                           
 10017                           ;Config register IDLOC6 @ 0x20000C
 10018                           ;	unspecified, using default values
 10019   20000C                     	org	2097164
 10020   20000C  0FFF               	dw	4095
 10021                           
 10022                           ;Config register IDLOC7 @ 0x20000E
 10023                           ;	unspecified, using default values
 10024   20000E                     	org	2097166
 10025   20000E  0FFF               	dw	4095
 10026                           
 10027                           	psect	config
 10028                           
 10029                           ;Config register CONFIG1L @ 0x300000
 10030                           ;	External Oscillator Selection
 10031                           ;	FEXTOSC = HS, HS (crystal oscillator) above 8 MHz; PFM set to high power
 10032                           ;	Reset Oscillator Selection
 10033                           ;	RSTOSC = EXTOSC_4PLL, EXTOSC with 4x PLL, with EXTOSC operating per FEXTOSC bits
 10034   300000                     	org	3145728
 10035   300000  AA                 	db	170
 10036                           
 10037                           ;Config register CONFIG1H @ 0x300001
 10038                           ;	Clock out Enable bit
 10039                           ;	CLKOUTEN = OFF, CLKOUT function is disabled
 10040                           ;	PRLOCKED One-Way Set Enable bit
 10041                           ;	PR1WAY = ON, PRLOCK bit can be cleared and set only once
 10042                           ;	Clock Switch Enable bit
 10043                           ;	CSWEN = ON, Writing to NOSC and NDIV is allowed
 10044                           ;	Fail-Safe Clock Monitor Enable bit
 10045                           ;	FCMEN = ON, Fail-Safe Clock Monitor enabled
 10046   300001                     	org	3145729
 10047   300001  FF                 	db	255
 10048                           
 10049                           ;Config register CONFIG2L @ 0x300002
 10050                           ;	MCLR Enable bit
 10051                           ;	MCLRE = EXTMCLR, If LVP = 0, MCLR pin is MCLR; If LVP = 1, RE3 pin function is MCLR
 10052                           ;	Power-up timer selection bits
 10053                           ;	PWRTS = PWRT_OFF, PWRT is disabled
 10054                           ;	Multi-vector enable bit
 10055                           ;	MVECEN = OFF, Interrupt contoller does not use vector table to prioritze interrupts
 10056                           ;	IVTLOCK bit One-way set enable bit
 10057                           ;	IVT1WAY = ON, IVTLOCK bit can be cleared and set only once
 10058                           ;	Low Power BOR Enable bit
 10059                           ;	LPBOREN = OFF, ULPBOR disabled
 10060                           ;	Brown-out Reset Enable bits
 10061                           ;	BOREN = SBORDIS, Brown-out Reset enabled , SBOREN bit is ignored
 10062   300002                     	org	3145730
 10063   300002  F7                 	db	247
 10064                           
 10065                           ;Config register CONFIG2H @ 0x300003
 10066                           ;	Brown-out Reset Voltage Selection bits
 10067                           ;	BORV = VBOR_2P45, Brown-out Reset Voltage (VBOR) set to 2.45V
 10068                           ;	ZCD Disable bit
 10069                           ;	ZCD = OFF, ZCD disabled. ZCD can be enabled by setting the ZCDSEN bit of ZCDCON
 10070                           ;	PPSLOCK bit One-Way Set Enable bit
 10071                           ;	PPS1WAY = ON, PPSLOCK bit can be cleared and set only once; PPS registers remain locke
      +                          d after one clear/set cycle
 10072                           ;	Stack Full/Underflow Reset Enable bit
 10073                           ;	STVREN = ON, Stack full/underflow will cause Reset
 10074                           ;	Debugger Enable bit
 10075                           ;	DEBUG = OFF, Background debugger disabled
 10076                           ;	Extended Instruction Set Enable bit
 10077                           ;	XINST = OFF, Extended Instruction Set and Indexed Addressing Mode disabled
 10078   300003                     	org	3145731
 10079   300003  FF                 	db	255
 10080                           
 10081                           ;Config register CONFIG3L @ 0x300004
 10082                           ;	WDT Period selection bits
 10083                           ;	WDTCPS = WDTCPS_31, Divider ratio 1:65536; software control of WDTPS
 10084                           ;	WDT operating mode
 10085                           ;	WDTE = OFF, WDT Disabled; SWDTEN is ignored
 10086   300004                     	org	3145732
 10087   300004  9F                 	db	159
 10088                           
 10089                           ;Config register CONFIG3H @ 0x300005
 10090                           ;	WDT Window Select bits
 10091                           ;	WDTCWS = WDTCWS_7, window always open (100%); software control; keyed access not requi
      +                          red
 10092                           ;	WDT input clock selector
 10093                           ;	WDTCCS = SC, Software Control
 10094   300005                     	org	3145733
 10095   300005  FF                 	db	255
 10096                           
 10097                           ;Config register CONFIG4L @ 0x300006
 10098                           ;	Boot Block Size selection bits
 10099                           ;	BBSIZE = BBSIZE_512, Boot Block size is 512 words
 10100                           ;	Boot Block enable bit
 10101                           ;	BBEN = OFF, Boot block disabled
 10102                           ;	Storage Area Flash enable bit
 10103                           ;	SAFEN = OFF, SAF disabled
 10104                           ;	Application Block write protection bit
 10105                           ;	WRTAPP = OFF, Application Block not write protected
 10106   300006                     	org	3145734
 10107   300006  FF                 	db	255
 10108                           
 10109                           ;Config register CONFIG4H @ 0x300007
 10110                           ;	Configuration Register Write Protection bit
 10111                           ;	WRTB = OFF, Configuration registers (300000-30000Bh) not write-protected
 10112                           ;	Boot Block Write Protection bit
 10113                           ;	WRTC = OFF, Boot Block (000000-0007FFh) not write-protected
 10114                           ;	Data EEPROM Write Protection bit
 10115                           ;	WRTD = OFF, Data EEPROM not write-protected
 10116                           ;	SAF Write protection bit
 10117                           ;	WRTSAF = OFF, SAF not Write Protected
 10118                           ;	Low Voltage Programming Enable bit
 10119                           ;	LVP = ON, Low voltage programming enabled. MCLR/VPP pin function is MCLR. MCLRE config
      +                          uration bit is ignored
 10120   300007                     	org	3145735
 10121   300007  FF                 	db	255
 10122                           
 10123                           ;Config register CONFIG5L @ 0x300008
 10124                           ;	PFM and Data EEPROM Code Protection bit
 10125                           ;	CP = OFF, PFM and Data EEPROM code protection disabled
 10126   300008                     	org	3145736
 10127   300008  FF                 	db	255
 10128                           
 10129                           ;Config register CONFIG5H @ 0x300009
 10130                           ;	unspecified, using default values
 10131   300009                     	org	3145737
 10132   300009  FF                 	db	255
 10133                           tosu	equ	0x3FFF
 10134                           tosh	equ	0x3FFE
 10135                           tosl	equ	0x3FFD
 10136                           stkptr	equ	0x3FFC
 10137                           pclatu	equ	0x3FFB
 10138                           pclath	equ	0x3FFA
 10139                           pcl	equ	0x3FF9
 10140                           tblptru	equ	0x3FF8
 10141                           tblptrh	equ	0x3FF7
 10142                           tblptrl	equ	0x3FF6
 10143                           tablat	equ	0x3FF5
 10144                           prodh	equ	0x3FF4
 10145                           prodl	equ	0x3FF3
 10146                           indf0	equ	0x3FEF
 10147                           postinc0	equ	0x3FEE
 10148                           postdec0	equ	0x3FED
 10149                           preinc0	equ	0x3FEC
 10150                           plusw0	equ	0x3FEB
 10151                           fsr0h	equ	0x3FEA
 10152                           fsr0l	equ	0x3FE9
 10153                           wreg	equ	0x3FE8
 10154                           indf1	equ	0x3FE7
 10155                           postinc1	equ	0x3FE6
 10156                           postdec1	equ	0x3FE5
 10157                           preinc1	equ	0x3FE4
 10158                           plusw1	equ	0x3FE3
 10159                           fsr1h	equ	0x3FE2
 10160                           fsr1l	equ	0x3FE1
 10161                           bsr	equ	0x3FE0
 10162                           indf2	equ	0x3FDF
 10163                           postinc2	equ	0x3FDE
 10164                           postdec2	equ	0x3FDD
 10165                           preinc2	equ	0x3FDC
 10166                           plusw2	equ	0x3FDB
 10167                           fsr2h	equ	0x3FDA
 10168                           fsr2l	equ	0x3FD9
 10169                           status	equ	0x3FD8

Data Sizes:
    Strings     0
    Constant    722
    Data        0
    BSS         260
    Persistent  0
    Stack       0

Auto Spaces:
    Space          Size  Autos    Used
    COMRAM           95     14      83
    BANK0           160      0     159
    BANK1           256     12      44
    BANK2           256      0       0
    BANK3           256      0       0
    BANK4           256      0       0
    BANK5           256      0       0
    BANK6           256      0       0
    BANK7           256      0       0
    BANK8           256      0       0
    BANK9           256      0       0
    BANK10          256      0       0
    BANK11          256      0       0
    BANK12          256      0       0
    BANK13          256      0       0
    BANK14          256      0       0
    BANK15          256      0       0

Pointer List with Targets:

    I2C1_Read1ByteRegister@returnValue.data	PTR unsigned char  size(2) Largest target is 0

    I2C1_Read2ByteRegister@returnValue.data	PTR unsigned char  size(2) Largest target is 0

    I2C1_Write1ByteRegister@data.data	PTR unsigned char  size(2) Largest target is 0

    I2C1_Write2ByteRegister@data.data	PTR unsigned char  size(2) Largest target is 0

    I2C1_DO_TX$6479$0	PTR void  size(2) Largest target is 5
		 -> I2C1_ReadDataBlock@bufferBlock(COMRAM[4]), I2C1_Write2ByteRegister@data(COMRAM[2]), I2C1_Write1ByteRegister@data(COMRAM[1]), I2C1_Read2ByteRegister@returnValue(COMRAM[2]), 
		 -> NULL(NULL[0]), I2C1_Read1ByteRegister@returnValue(COMRAM[1]), 

    I2C1_DO_TX_EMPTY$6485$0	PTR void  size(2) Largest target is 5
		 -> I2C1_ReadDataBlock@bufferBlock(COMRAM[4]), I2C1_Write2ByteRegister@data(COMRAM[2]), I2C1_Write1ByteRegister@data(COMRAM[1]), I2C1_Read2ByteRegister@returnValue(COMRAM[2]), 
		 -> NULL(NULL[0]), I2C1_Read1ByteRegister@returnValue(COMRAM[1]), 

    I2C1_DO_RX_EMPTY$6491$0	PTR void  size(2) Largest target is 5
		 -> I2C1_ReadDataBlock@bufferBlock(COMRAM[4]), I2C1_Write2ByteRegister@data(COMRAM[2]), I2C1_Write1ByteRegister@data(COMRAM[1]), I2C1_Read2ByteRegister@returnValue(COMRAM[2]), 
		 -> NULL(NULL[0]), I2C1_Read1ByteRegister@returnValue(COMRAM[1]), 

    cb$0	PTR void  size(2) Largest target is 5
		 -> I2C1_ReadDataBlock@bufferBlock(COMRAM[4]), I2C1_Write2ByteRegister@data(COMRAM[2]), I2C1_Write1ByteRegister@data(COMRAM[1]), I2C1_Read2ByteRegister@returnValue(COMRAM[2]), 
		 -> NULL(NULL[0]), I2C1_Read1ByteRegister@returnValue(COMRAM[1]), 

    cb$0	PTR void  size(2) Largest target is 5
		 -> I2C1_ReadDataBlock@bufferBlock(COMRAM[4]), I2C1_Write2ByteRegister@data(COMRAM[2]), I2C1_Write1ByteRegister@data(COMRAM[1]), I2C1_Read2ByteRegister@returnValue(COMRAM[2]), 
		 -> NULL(NULL[0]), I2C1_Read1ByteRegister@returnValue(COMRAM[1]), 

    S4587$0$0	PTR void  size(2) Largest target is 5
		 -> I2C1_ReadDataBlock@bufferBlock(COMRAM[4]), I2C1_Write2ByteRegister@data(COMRAM[2]), I2C1_Write1ByteRegister@data(COMRAM[1]), I2C1_Read2ByteRegister@returnValue(COMRAM[2]), 
		 -> NULL(NULL[0]), I2C1_Read1ByteRegister@returnValue(COMRAM[1]), 

    S4587$data_ptr	PTR unsigned char  size(2) Largest target is 5
		 -> I2C1_ReadDataBlock@reg(COMRAM[1]), I2C1_ReadDataBlock@bufferBlock(COMRAM[4]), I2C1_Write2ByteRegister@reg(COMRAM[1]), I2C1_Write2ByteRegister@data(COMRAM[2]), 
		 -> I2C1_Write1ByteRegister@reg(COMRAM[1]), I2C1_Write1ByteRegister@data(COMRAM[1]), I2C1_Read2ByteRegister@reg(COMRAM[1]), I2C1_Read2ByteRegister@returnValue(COMRAM[2]), 
		 -> NULL(NULL[0]), I2C1_Read1ByteRegister@reg(COMRAM[1]), I2C1_Read1ByteRegister@returnValue(COMRAM[1]), 

    I2C1_Status.data_ptr	PTR unsigned char  size(2) Largest target is 5
		 -> I2C1_Read1ByteRegister@returnValue.data(COMRAM[3]), I2C1_Read2ByteRegister@returnValue.data(COMRAM[3]), I2C1_Write1ByteRegister@data.data(COMRAM[3]), I2C1_Write2ByteRegister@data.data(COMRAM[3]), 
		 -> I2C1_ReadDataBlock@reg(COMRAM[1]), I2C1_ReadDataBlock@bufferBlock(COMRAM[4]), bufferBlock.data(COMRAM[3]), I2C1_Write2ByteRegister@reg(COMRAM[1]), 
		 -> I2C1_Write2ByteRegister@data(COMRAM[2]), I2C1_Write1ByteRegister@reg(COMRAM[1]), I2C1_Write1ByteRegister@data(COMRAM[1]), I2C1_Read2ByteRegister@reg(COMRAM[1]), 
		 -> I2C1_Read2ByteRegister@returnValue(COMRAM[2]), NULL(NULL[0]), I2C1_Read1ByteRegister@reg(COMRAM[1]), I2C1_Read1ByteRegister@returnValue(COMRAM[1]), 

    S4587$callbackPayload	PTR void [6] size(2) Largest target is 5
		 -> I2C1_ReadDataBlock@bufferBlock(COMRAM[4]), I2C1_Write2ByteRegister@data(COMRAM[2]), I2C1_Write1ByteRegister@data(COMRAM[1]), I2C1_Read2ByteRegister@returnValue(COMRAM[2]), 
		 -> NULL(NULL[0]), I2C1_Read1ByteRegister@returnValue(COMRAM[1]), 

    I2C1_Status.callbackPayload	PTR void [6] size(2) Largest target is 5
		 -> I2C1_ReadDataBlock@bufferBlock(COMRAM[4]), I2C1_Write2ByteRegister@data(COMRAM[2]), I2C1_Write1ByteRegister@data(COMRAM[1]), I2C1_Read2ByteRegister@returnValue(COMRAM[2]), 
		 -> NULL(NULL[0]), I2C1_Read1ByteRegister@returnValue(COMRAM[1]), 

    S4587$callbackTable	PTR FTN(PTR void ,)enum E360[6] size(2) Largest target is 1
		 -> I2C1_CallbackReturnReset(), I2C1_CallbackReturnStop(), Absolute function(), rdBlkRegCompleteHandler(), 
		 -> wr2RegCompleteHandler(), wr1RegCompleteHandler(), rd2RegCompleteHandler(), rd1RegCompleteHandler(), 

    I2C1_Status.callbackTable	PTR FTN(PTR void ,)enum E360[6] size(2) Largest target is 1
		 -> I2C1_CallbackReturnReset(), I2C1_CallbackReturnStop(), Absolute function(), rdBlkRegCompleteHandler(), 
		 -> wr2RegCompleteHandler(), wr1RegCompleteHandler(), rd2RegCompleteHandler(), rd1RegCompleteHandler(), 

    i2c1_fsmStateTable	const PTR FTN()enum E22964[19] size(2) Largest target is 1
		 -> I2C1_DO_BUS_ERROR(), I2C1_DO_BUS_COLLISION(), I2C1_DO_ADDRESS_NACK(), I2C1_DO_RESET(), 
		 -> I2C1_DO_RX_NACK_RESTART(), I2C1_DO_RX_NACK_STOP(), I2C1_DO_TX_ACK(), I2C1_DO_RX_ACK(), 
		 -> I2C1_DO_SEND_STOP(), I2C1_DO_SEND_RESTART(), I2C1_DO_SEND_RESTART_WRITE(), I2C1_DO_SEND_RESTART_READ(), 
		 -> I2C1_DO_RX_EMPTY(), I2C1_DO_TX_EMPTY(), I2C1_DO_RX(), I2C1_DO_TX(), 
		 -> I2C1_DO_SEND_ADR_WRITE(), I2C1_DO_SEND_ADR_READ(), I2C1_DO_IDLE(), 

    TMR0_SetInterruptHandler@InterruptHandler	PTR FTN()void  size(2) Largest target is 1
		 -> TMR0_Blink(), TMR0_DefaultInterruptHandler(), 

    TMR0_InterruptHandler	PTR FTN()void  size(2) Largest target is 1
		 -> TMR0_Blink(), Absolute function(), TMR0_DefaultInterruptHandler(), 

    WakeUpInterruptHandler	PTR FTN()void  size(2) Largest target is 1
		 -> Absolute function(), WakeUpDefaultInterruptHandler(), 

    UART1_SetErrorHandler@interruptHandler	PTR FTN()void  size(2) Largest target is 1
		 -> UART1_DefaultErrorHandler(), 

    UART1_SetOverrunErrorHandler@interruptHandler	PTR FTN()void  size(2) Largest target is 1
		 -> UART1_DefaultOverrunErrorHandler(), 

    UART1_SetFramingErrorHandler@interruptHandler	PTR FTN()void  size(2) Largest target is 1
		 -> UART1_DefaultFramingErrorHandler(), 

    UART1_ErrorHandler	PTR FTN()void  size(2) Largest target is 1
		 -> Absolute function(), UART1_DefaultErrorHandler(), 

    UART1_OverrunErrorHandler	PTR FTN()void  size(2) Largest target is 1
		 -> Absolute function(), UART1_DefaultOverrunErrorHandler(), 

    UART1_FramingErrorHandler	PTR FTN()void  size(2) Largest target is 1
		 -> Absolute function(), UART1_DefaultFramingErrorHandler(), 

    rdBlkRegCompleteHandler@ptr.data	PTR unsigned char  size(2) Largest target is 0

    S3385$data	PTR unsigned char  size(2) Largest target is 0

    bufferBlock.data	PTR unsigned char  size(2) Largest target is 0

    _uSDO1Dict.p.pROM	PTR const unsigned char  size(2) Largest target is 0

    _uSDO1Dict.p.pRAM	PTR unsigned char  size(2) Largest target is 0

    _uSDO1Dict.p.pFunc	PTR FTN()void  size(2) Largest target is 0

    _uSDO1Dict.pReqBuf	PTR unsigned char  size(2) Largest target is 20
		 -> _uSDO1RxBuf(BANK0[20]), _uSDO1TxBuf(BANK0[8]), RXB0D0(ABS[1]), 

    S2197__TPDO_BUF$buf	PTR unsigned char  size(2) Largest target is 8
		 -> uLocalXmtBuffer(BANK0[8]), 

    _uPDO1.TPDO.buf	PTR unsigned char  size(2) Largest target is 8
		 -> uLocalXmtBuffer(BANK0[8]), 

    S2194__RPDO_BUF$buf	PTR unsigned char  size(2) Largest target is 8
		 -> uLocalRcvBuffer(BANK0[8]), 

    _uPDO1.RPDO.buf	PTR unsigned char  size(2) Largest target is 8
		 -> uLocalRcvBuffer(BANK0[8]), 

    CO_MEMIO_CopyRomToRam@pIn	PTR const unsigned char  size(2) Largest target is 0
		 -> _uSDO1Dict.p(COMRAM[3]), 

    CO_MEMIO_CopyRomToRam@pOut	PTR unsigned char  size(2) Largest target is 20
		 -> _uSDO1RxBuf(BANK0[20]), _uSDO1TxBuf(BANK0[8]), RXB0D0(ABS[1]), 

    CO_MEMIO_CopySram@pIn	PTR unsigned char  size(2) Largest target is 20
		 -> _uSDO1Dict.p(COMRAM[3]), _uSDO1RxBuf(BANK0[20]), _uSDO1TxBuf(BANK0[8]), RXB0D0(ABS[1]), 

    CO_MEMIO_CopySram@pOut	PTR unsigned char  size(2) Largest target is 20
		 -> _uSDO1Dict.p(COMRAM[3]), _uSDO1RxBuf(BANK0[20]), _uSDO1TxBuf(BANK0[8]), RXB0D0(ABS[1]), 

    _pTmpDBase	PTR const unsigned char  size(2) Largest target is 135
		 -> NULL(NULL[0]), _db_standard_g4(CODE[16]), _db_standard_g3(CODE[16]), _db_standard_g2(CODE[16]), 
		 -> _db_standard_g1(CODE[112]), _db_manufacturer_g4(CODE[16]), _db_manufacturer_g3(CODE[16]), _db_manufacturer_g2(CODE[16]), 
		 -> _db_manufacturer_g1(CODE[16]), _db_pdo1_tx_map(CODE[72]), _db_pdo1_tx_comm(CODE[24]), _db_pdo1_rx_map(CODE[72]), 
		 -> _db_pdo1_rx_comm(CODE[16]), _db_sdo(CODE[24]), _db_device(CODE[120]), _db_objects(CODE[56]), 

    S1116DICT_PTRS$pROM	PTR const unsigned char  size(2) Largest target is 0

    uDict.obj.p.pROM	PTR const unsigned char  size(2) Largest target is 0

    S1116DICT_PTRS$pRAM	PTR unsigned char  size(2) Largest target is 0

    uDict.obj.p.pRAM	PTR unsigned char  size(2) Largest target is 0

    S1116DICT_PTRS$pFunc	PTR FTN()void  size(2) Largest target is 0

    uDict.obj.p.pFunc	PTR FTN()void  size(2) Largest target is 0

    S1121_DICTIONARY_EXTENDED_OBJECT$pReqBuf	PTR unsigned char  size(2) Largest target is 20
		 -> _uSDO1RxBuf(BANK0[20]), _uSDO1TxBuf(BANK0[8]), RXB0D0(ABS[1]), 

    uDict.obj.pReqBuf	PTR unsigned char  size(2) Largest target is 20
		 -> _uSDO1RxBuf(BANK0[20]), _uSDO1TxBuf(BANK0[8]), RXB0D0(ABS[1]), 

    _db_standard_g4.pROM	PTR const unsigned char  size(2) Largest target is 25
		 -> uLocalRcvBuffer(BANK0[8]), uIOinIntFall(BANK0[1]), uIOinIntRise(BANK0[1]), uIOinIntChange(BANK0[1]), 
		 -> uIOinIntEnable(BANK0[1]), uIOinFilter(BANK0[1]), uIOinPolarity(BANK0[1]), uLocalXmtBuffer(BANK0[8]), 
		 -> uTPDO1Map(CODE[4]), uDemoTPDO1Len(CODE[1]), uPDO1Dummy(CODE[4]), uRPDO1Map(CODE[4]), 
		 -> rMaxIndex2(CODE[1]), rMaxIndex1(CODE[1]), _uSDO1COMMIndx(CODE[1]), rCO_DevSerialNo(CODE[4]), 
		 -> rCO_DevRevNo(CODE[4]), rCO_DevProductCode(CODE[4]), rCO_DevVendorID(CODE[4]), rCO_DevIdentityIndx(CODE[1]), 
		 -> rCO_DevSoftwareVer(CODE[5]), rCO_DevHardwareVer(CODE[5]), rCO_DevName(CODE[25]), uCO_DevManufacturerStatReg(BANK0[4]), 
		 -> uCO_DevErrReg(BANK0[1]), rCO_DevType(CODE[4]), __dummy(CODE[4]), 

    _db_standard_g3.pROM	PTR const unsigned char  size(2) Largest target is 25
		 -> uLocalRcvBuffer(BANK0[8]), uIOinIntFall(BANK0[1]), uIOinIntRise(BANK0[1]), uIOinIntChange(BANK0[1]), 
		 -> uIOinIntEnable(BANK0[1]), uIOinFilter(BANK0[1]), uIOinPolarity(BANK0[1]), uLocalXmtBuffer(BANK0[8]), 
		 -> uTPDO1Map(CODE[4]), uDemoTPDO1Len(CODE[1]), uPDO1Dummy(CODE[4]), uRPDO1Map(CODE[4]), 
		 -> rMaxIndex2(CODE[1]), rMaxIndex1(CODE[1]), _uSDO1COMMIndx(CODE[1]), rCO_DevSerialNo(CODE[4]), 
		 -> rCO_DevRevNo(CODE[4]), rCO_DevProductCode(CODE[4]), rCO_DevVendorID(CODE[4]), rCO_DevIdentityIndx(CODE[1]), 
		 -> rCO_DevSoftwareVer(CODE[5]), rCO_DevHardwareVer(CODE[5]), rCO_DevName(CODE[25]), uCO_DevManufacturerStatReg(BANK0[4]), 
		 -> uCO_DevErrReg(BANK0[1]), rCO_DevType(CODE[4]), __dummy(CODE[4]), 

    _db_standard_g2.pROM	PTR const unsigned char  size(2) Largest target is 25
		 -> uLocalRcvBuffer(BANK0[8]), uIOinIntFall(BANK0[1]), uIOinIntRise(BANK0[1]), uIOinIntChange(BANK0[1]), 
		 -> uIOinIntEnable(BANK0[1]), uIOinFilter(BANK0[1]), uIOinPolarity(BANK0[1]), uLocalXmtBuffer(BANK0[8]), 
		 -> uTPDO1Map(CODE[4]), uDemoTPDO1Len(CODE[1]), uPDO1Dummy(CODE[4]), uRPDO1Map(CODE[4]), 
		 -> rMaxIndex2(CODE[1]), rMaxIndex1(CODE[1]), _uSDO1COMMIndx(CODE[1]), rCO_DevSerialNo(CODE[4]), 
		 -> rCO_DevRevNo(CODE[4]), rCO_DevProductCode(CODE[4]), rCO_DevVendorID(CODE[4]), rCO_DevIdentityIndx(CODE[1]), 
		 -> rCO_DevSoftwareVer(CODE[5]), rCO_DevHardwareVer(CODE[5]), rCO_DevName(CODE[25]), uCO_DevManufacturerStatReg(BANK0[4]), 
		 -> uCO_DevErrReg(BANK0[1]), rCO_DevType(CODE[4]), __dummy(CODE[4]), 

    _db_standard_g1.pROM	PTR const unsigned char  size(2) Largest target is 25
		 -> uLocalRcvBuffer(BANK0[8]), uIOinIntFall(BANK0[1]), uIOinIntRise(BANK0[1]), uIOinIntChange(BANK0[1]), 
		 -> uIOinIntEnable(BANK0[1]), uIOinFilter(BANK0[1]), uIOinPolarity(BANK0[1]), uLocalXmtBuffer(BANK0[8]), 
		 -> uTPDO1Map(CODE[4]), uDemoTPDO1Len(CODE[1]), uPDO1Dummy(CODE[4]), uRPDO1Map(CODE[4]), 
		 -> rMaxIndex2(CODE[1]), rMaxIndex1(CODE[1]), _uSDO1COMMIndx(CODE[1]), rCO_DevSerialNo(CODE[4]), 
		 -> rCO_DevRevNo(CODE[4]), rCO_DevProductCode(CODE[4]), rCO_DevVendorID(CODE[4]), rCO_DevIdentityIndx(CODE[1]), 
		 -> rCO_DevSoftwareVer(CODE[5]), rCO_DevHardwareVer(CODE[5]), rCO_DevName(CODE[25]), uCO_DevManufacturerStatReg(BANK0[4]), 
		 -> uCO_DevErrReg(BANK0[1]), rCO_DevType(CODE[4]), __dummy(CODE[4]), 

    _db_manufacturer_g4.pROM	PTR const unsigned char  size(2) Largest target is 25
		 -> uLocalRcvBuffer(BANK0[8]), uIOinIntFall(BANK0[1]), uIOinIntRise(BANK0[1]), uIOinIntChange(BANK0[1]), 
		 -> uIOinIntEnable(BANK0[1]), uIOinFilter(BANK0[1]), uIOinPolarity(BANK0[1]), uLocalXmtBuffer(BANK0[8]), 
		 -> uTPDO1Map(CODE[4]), uDemoTPDO1Len(CODE[1]), uPDO1Dummy(CODE[4]), uRPDO1Map(CODE[4]), 
		 -> rMaxIndex2(CODE[1]), rMaxIndex1(CODE[1]), _uSDO1COMMIndx(CODE[1]), rCO_DevSerialNo(CODE[4]), 
		 -> rCO_DevRevNo(CODE[4]), rCO_DevProductCode(CODE[4]), rCO_DevVendorID(CODE[4]), rCO_DevIdentityIndx(CODE[1]), 
		 -> rCO_DevSoftwareVer(CODE[5]), rCO_DevHardwareVer(CODE[5]), rCO_DevName(CODE[25]), uCO_DevManufacturerStatReg(BANK0[4]), 
		 -> uCO_DevErrReg(BANK0[1]), rCO_DevType(CODE[4]), __dummy(CODE[4]), 

    _db_manufacturer_g3.pROM	PTR const unsigned char  size(2) Largest target is 25
		 -> uLocalRcvBuffer(BANK0[8]), uIOinIntFall(BANK0[1]), uIOinIntRise(BANK0[1]), uIOinIntChange(BANK0[1]), 
		 -> uIOinIntEnable(BANK0[1]), uIOinFilter(BANK0[1]), uIOinPolarity(BANK0[1]), uLocalXmtBuffer(BANK0[8]), 
		 -> uTPDO1Map(CODE[4]), uDemoTPDO1Len(CODE[1]), uPDO1Dummy(CODE[4]), uRPDO1Map(CODE[4]), 
		 -> rMaxIndex2(CODE[1]), rMaxIndex1(CODE[1]), _uSDO1COMMIndx(CODE[1]), rCO_DevSerialNo(CODE[4]), 
		 -> rCO_DevRevNo(CODE[4]), rCO_DevProductCode(CODE[4]), rCO_DevVendorID(CODE[4]), rCO_DevIdentityIndx(CODE[1]), 
		 -> rCO_DevSoftwareVer(CODE[5]), rCO_DevHardwareVer(CODE[5]), rCO_DevName(CODE[25]), uCO_DevManufacturerStatReg(BANK0[4]), 
		 -> uCO_DevErrReg(BANK0[1]), rCO_DevType(CODE[4]), __dummy(CODE[4]), 

    _db_manufacturer_g2.pROM	PTR const unsigned char  size(2) Largest target is 25
		 -> uLocalRcvBuffer(BANK0[8]), uIOinIntFall(BANK0[1]), uIOinIntRise(BANK0[1]), uIOinIntChange(BANK0[1]), 
		 -> uIOinIntEnable(BANK0[1]), uIOinFilter(BANK0[1]), uIOinPolarity(BANK0[1]), uLocalXmtBuffer(BANK0[8]), 
		 -> uTPDO1Map(CODE[4]), uDemoTPDO1Len(CODE[1]), uPDO1Dummy(CODE[4]), uRPDO1Map(CODE[4]), 
		 -> rMaxIndex2(CODE[1]), rMaxIndex1(CODE[1]), _uSDO1COMMIndx(CODE[1]), rCO_DevSerialNo(CODE[4]), 
		 -> rCO_DevRevNo(CODE[4]), rCO_DevProductCode(CODE[4]), rCO_DevVendorID(CODE[4]), rCO_DevIdentityIndx(CODE[1]), 
		 -> rCO_DevSoftwareVer(CODE[5]), rCO_DevHardwareVer(CODE[5]), rCO_DevName(CODE[25]), uCO_DevManufacturerStatReg(BANK0[4]), 
		 -> uCO_DevErrReg(BANK0[1]), rCO_DevType(CODE[4]), __dummy(CODE[4]), 

    _db_manufacturer_g1.pROM	PTR const unsigned char  size(2) Largest target is 25
		 -> uLocalRcvBuffer(BANK0[8]), uIOinIntFall(BANK0[1]), uIOinIntRise(BANK0[1]), uIOinIntChange(BANK0[1]), 
		 -> uIOinIntEnable(BANK0[1]), uIOinFilter(BANK0[1]), uIOinPolarity(BANK0[1]), uLocalXmtBuffer(BANK0[8]), 
		 -> uTPDO1Map(CODE[4]), uDemoTPDO1Len(CODE[1]), uPDO1Dummy(CODE[4]), uRPDO1Map(CODE[4]), 
		 -> rMaxIndex2(CODE[1]), rMaxIndex1(CODE[1]), _uSDO1COMMIndx(CODE[1]), rCO_DevSerialNo(CODE[4]), 
		 -> rCO_DevRevNo(CODE[4]), rCO_DevProductCode(CODE[4]), rCO_DevVendorID(CODE[4]), rCO_DevIdentityIndx(CODE[1]), 
		 -> rCO_DevSoftwareVer(CODE[5]), rCO_DevHardwareVer(CODE[5]), rCO_DevName(CODE[25]), uCO_DevManufacturerStatReg(BANK0[4]), 
		 -> uCO_DevErrReg(BANK0[1]), rCO_DevType(CODE[4]), __dummy(CODE[4]), 

    _db_pdo1_tx_map.pROM	PTR const unsigned char  size(2) Largest target is 25
		 -> uLocalRcvBuffer(BANK0[8]), uIOinIntFall(BANK0[1]), uIOinIntRise(BANK0[1]), uIOinIntChange(BANK0[1]), 
		 -> uIOinIntEnable(BANK0[1]), uIOinFilter(BANK0[1]), uIOinPolarity(BANK0[1]), uLocalXmtBuffer(BANK0[8]), 
		 -> uTPDO1Map(CODE[4]), uDemoTPDO1Len(CODE[1]), uPDO1Dummy(CODE[4]), uRPDO1Map(CODE[4]), 
		 -> rMaxIndex2(CODE[1]), rMaxIndex1(CODE[1]), _uSDO1COMMIndx(CODE[1]), rCO_DevSerialNo(CODE[4]), 
		 -> rCO_DevRevNo(CODE[4]), rCO_DevProductCode(CODE[4]), rCO_DevVendorID(CODE[4]), rCO_DevIdentityIndx(CODE[1]), 
		 -> rCO_DevSoftwareVer(CODE[5]), rCO_DevHardwareVer(CODE[5]), rCO_DevName(CODE[25]), uCO_DevManufacturerStatReg(BANK0[4]), 
		 -> uCO_DevErrReg(BANK0[1]), rCO_DevType(CODE[4]), __dummy(CODE[4]), 

    _db_pdo1_tx_comm.pROM	PTR const unsigned char  size(2) Largest target is 25
		 -> uLocalRcvBuffer(BANK0[8]), uIOinIntFall(BANK0[1]), uIOinIntRise(BANK0[1]), uIOinIntChange(BANK0[1]), 
		 -> uIOinIntEnable(BANK0[1]), uIOinFilter(BANK0[1]), uIOinPolarity(BANK0[1]), uLocalXmtBuffer(BANK0[8]), 
		 -> uTPDO1Map(CODE[4]), uDemoTPDO1Len(CODE[1]), uPDO1Dummy(CODE[4]), uRPDO1Map(CODE[4]), 
		 -> rMaxIndex2(CODE[1]), rMaxIndex1(CODE[1]), _uSDO1COMMIndx(CODE[1]), rCO_DevSerialNo(CODE[4]), 
		 -> rCO_DevRevNo(CODE[4]), rCO_DevProductCode(CODE[4]), rCO_DevVendorID(CODE[4]), rCO_DevIdentityIndx(CODE[1]), 
		 -> rCO_DevSoftwareVer(CODE[5]), rCO_DevHardwareVer(CODE[5]), rCO_DevName(CODE[25]), uCO_DevManufacturerStatReg(BANK0[4]), 
		 -> uCO_DevErrReg(BANK0[1]), rCO_DevType(CODE[4]), __dummy(CODE[4]), 

    _db_pdo1_rx_map.pROM	PTR const unsigned char  size(2) Largest target is 25
		 -> uLocalRcvBuffer(BANK0[8]), uIOinIntFall(BANK0[1]), uIOinIntRise(BANK0[1]), uIOinIntChange(BANK0[1]), 
		 -> uIOinIntEnable(BANK0[1]), uIOinFilter(BANK0[1]), uIOinPolarity(BANK0[1]), uLocalXmtBuffer(BANK0[8]), 
		 -> uTPDO1Map(CODE[4]), uDemoTPDO1Len(CODE[1]), uPDO1Dummy(CODE[4]), uRPDO1Map(CODE[4]), 
		 -> rMaxIndex2(CODE[1]), rMaxIndex1(CODE[1]), _uSDO1COMMIndx(CODE[1]), rCO_DevSerialNo(CODE[4]), 
		 -> rCO_DevRevNo(CODE[4]), rCO_DevProductCode(CODE[4]), rCO_DevVendorID(CODE[4]), rCO_DevIdentityIndx(CODE[1]), 
		 -> rCO_DevSoftwareVer(CODE[5]), rCO_DevHardwareVer(CODE[5]), rCO_DevName(CODE[25]), uCO_DevManufacturerStatReg(BANK0[4]), 
		 -> uCO_DevErrReg(BANK0[1]), rCO_DevType(CODE[4]), __dummy(CODE[4]), 

    _db_pdo1_rx_comm.pROM	PTR const unsigned char  size(2) Largest target is 25
		 -> uLocalRcvBuffer(BANK0[8]), uIOinIntFall(BANK0[1]), uIOinIntRise(BANK0[1]), uIOinIntChange(BANK0[1]), 
		 -> uIOinIntEnable(BANK0[1]), uIOinFilter(BANK0[1]), uIOinPolarity(BANK0[1]), uLocalXmtBuffer(BANK0[8]), 
		 -> uTPDO1Map(CODE[4]), uDemoTPDO1Len(CODE[1]), uPDO1Dummy(CODE[4]), uRPDO1Map(CODE[4]), 
		 -> rMaxIndex2(CODE[1]), rMaxIndex1(CODE[1]), _uSDO1COMMIndx(CODE[1]), rCO_DevSerialNo(CODE[4]), 
		 -> rCO_DevRevNo(CODE[4]), rCO_DevProductCode(CODE[4]), rCO_DevVendorID(CODE[4]), rCO_DevIdentityIndx(CODE[1]), 
		 -> rCO_DevSoftwareVer(CODE[5]), rCO_DevHardwareVer(CODE[5]), rCO_DevName(CODE[25]), uCO_DevManufacturerStatReg(BANK0[4]), 
		 -> uCO_DevErrReg(BANK0[1]), rCO_DevType(CODE[4]), __dummy(CODE[4]), 

    _db_sdo.pROM	PTR const unsigned char  size(2) Largest target is 25
		 -> uLocalRcvBuffer(BANK0[8]), uIOinIntFall(BANK0[1]), uIOinIntRise(BANK0[1]), uIOinIntChange(BANK0[1]), 
		 -> uIOinIntEnable(BANK0[1]), uIOinFilter(BANK0[1]), uIOinPolarity(BANK0[1]), uLocalXmtBuffer(BANK0[8]), 
		 -> uTPDO1Map(CODE[4]), uDemoTPDO1Len(CODE[1]), uPDO1Dummy(CODE[4]), uRPDO1Map(CODE[4]), 
		 -> rMaxIndex2(CODE[1]), rMaxIndex1(CODE[1]), _uSDO1COMMIndx(CODE[1]), rCO_DevSerialNo(CODE[4]), 
		 -> rCO_DevRevNo(CODE[4]), rCO_DevProductCode(CODE[4]), rCO_DevVendorID(CODE[4]), rCO_DevIdentityIndx(CODE[1]), 
		 -> rCO_DevSoftwareVer(CODE[5]), rCO_DevHardwareVer(CODE[5]), rCO_DevName(CODE[25]), uCO_DevManufacturerStatReg(BANK0[4]), 
		 -> uCO_DevErrReg(BANK0[1]), rCO_DevType(CODE[4]), __dummy(CODE[4]), 

    _db_device.pROM	PTR const unsigned char  size(2) Largest target is 25
		 -> uLocalRcvBuffer(BANK0[8]), uIOinIntFall(BANK0[1]), uIOinIntRise(BANK0[1]), uIOinIntChange(BANK0[1]), 
		 -> uIOinIntEnable(BANK0[1]), uIOinFilter(BANK0[1]), uIOinPolarity(BANK0[1]), uLocalXmtBuffer(BANK0[8]), 
		 -> uTPDO1Map(CODE[4]), uDemoTPDO1Len(CODE[1]), uPDO1Dummy(CODE[4]), uRPDO1Map(CODE[4]), 
		 -> rMaxIndex2(CODE[1]), rMaxIndex1(CODE[1]), _uSDO1COMMIndx(CODE[1]), rCO_DevSerialNo(CODE[4]), 
		 -> rCO_DevRevNo(CODE[4]), rCO_DevProductCode(CODE[4]), rCO_DevVendorID(CODE[4]), rCO_DevIdentityIndx(CODE[1]), 
		 -> rCO_DevSoftwareVer(CODE[5]), rCO_DevHardwareVer(CODE[5]), rCO_DevName(CODE[25]), uCO_DevManufacturerStatReg(BANK0[4]), 
		 -> uCO_DevErrReg(BANK0[1]), rCO_DevType(CODE[4]), __dummy(CODE[4]), 

    S1159_DICTIONARY_OBJECT_TEMPLATE$pROM	PTR const unsigned char  size(2) Largest target is 25
		 -> uLocalRcvBuffer(BANK0[8]), uIOinIntFall(BANK0[1]), uIOinIntRise(BANK0[1]), uIOinIntChange(BANK0[1]), 
		 -> uIOinIntEnable(BANK0[1]), uIOinFilter(BANK0[1]), uIOinPolarity(BANK0[1]), uLocalXmtBuffer(BANK0[8]), 
		 -> uTPDO1Map(CODE[4]), uDemoTPDO1Len(CODE[1]), uPDO1Dummy(CODE[4]), uRPDO1Map(CODE[4]), 
		 -> rMaxIndex2(CODE[1]), rMaxIndex1(CODE[1]), _uSDO1COMMIndx(CODE[1]), rCO_DevSerialNo(CODE[4]), 
		 -> rCO_DevRevNo(CODE[4]), rCO_DevProductCode(CODE[4]), rCO_DevVendorID(CODE[4]), rCO_DevIdentityIndx(CODE[1]), 
		 -> rCO_DevSoftwareVer(CODE[5]), rCO_DevHardwareVer(CODE[5]), rCO_DevName(CODE[25]), uCO_DevManufacturerStatReg(BANK0[4]), 
		 -> uCO_DevErrReg(BANK0[1]), rCO_DevType(CODE[4]), __dummy(CODE[4]), 

    _db_objects.pROM	PTR const unsigned char  size(2) Largest target is 25
		 -> uLocalRcvBuffer(BANK0[8]), uIOinIntFall(BANK0[1]), uIOinIntRise(BANK0[1]), uIOinIntChange(BANK0[1]), 
		 -> uIOinIntEnable(BANK0[1]), uIOinFilter(BANK0[1]), uIOinPolarity(BANK0[1]), uLocalXmtBuffer(BANK0[8]), 
		 -> uTPDO1Map(CODE[4]), uDemoTPDO1Len(CODE[1]), uPDO1Dummy(CODE[4]), uRPDO1Map(CODE[4]), 
		 -> rMaxIndex2(CODE[1]), rMaxIndex1(CODE[1]), _uSDO1COMMIndx(CODE[1]), rCO_DevSerialNo(CODE[4]), 
		 -> rCO_DevRevNo(CODE[4]), rCO_DevProductCode(CODE[4]), rCO_DevVendorID(CODE[4]), rCO_DevIdentityIndx(CODE[1]), 
		 -> rCO_DevSoftwareVer(CODE[5]), rCO_DevHardwareVer(CODE[5]), rCO_DevName(CODE[25]), uCO_DevManufacturerStatReg(BANK0[4]), 
		 -> uCO_DevErrReg(BANK0[1]), rCO_DevType(CODE[4]), __dummy(CODE[4]), 

    S1134_DICTIONARY_DATA$obj	PTR struct _DICTIONARY_EXTENDED_OBJECT size(2) Largest target is 16
		 -> _uSDO1Dict(COMRAM[15]), 

    uDict.obj	PTR struct _DICTIONARY_EXTENDED_OBJECT size(2) Largest target is 16
		 -> _uSDO1Dict(COMRAM[15]), 


Critical Paths under _main in COMRAM

    _main->_TMR0_SetInterruptHandler
    _UART1_Initialize->_UART1_SetErrorHandler
    _UART1_Initialize->_UART1_SetFramingErrorHandler
    _UART1_Initialize->_UART1_SetOverrunErrorHandler
    _TMR0_Initialize->_TMR0_SetInterruptHandler
    _DemoInit->__CO_COB_CANopen2MCHP
    _CO_ProcessAllEvents->__CO_COMMTXFinEventManager
    __CO_COMMTXRdyEventManager->__CO_COMM_SDO1_TXEvent
    __CO_COMMRXEventManager->__CANIsGetReady
    __CO_COMM_SDO1_RXEvent->__CO_DictObjectDecode
    __CO_COMM_SDO1_RXEvent->__CO_DictObjectRead
    __CO_COMM_SDO1_RXEvent->__CO_DictObjectWrite
    __CO_COMM_SYNC_Open->__CANOpenMessage
    __CO_COMM_SDO1_Open->__CO_COB_CANopen2MCHP
    __CO_COMM_PDO1_Open->__CANOpenMessage
    __CO_COMM_NMT_Open->__CANOpenMessage
    __CO_COMM_NMTE_Open->__CO_COB_CANopen2MCHP
    __CO_COMM_NMTE_Open->___wmul
    __CANReset->__CANSetBitRate
    __CANEventManager->__CANSetBitRate
    __CO_COMM_NMTE_RXEvent->___wmul

Critical Paths under _INTERRUPT_InterruptManager in COMRAM

    _TMR0_ISR->_TMR0_Blink
    __CO_COMMLSTimeEventManager->__CO_COMM_NMTE_LSTimerEvent
    __CO_COMM_NMTE_LSTimerEvent->i2___wmul

Critical Paths under _main in BANK0

    None.

Critical Paths under _INTERRUPT_InterruptManager in BANK0

    None.

Critical Paths under _main in BANK1

    _CO_ProcessAllEvents->__CO_COMMRXEventManager
    __CO_COMMRXEventManager->__CO_COMM_SDO1_RXEvent
    __CO_DictObjectWrite->_CO_MEMIO_CopySram
    __CO_DictObjectRead->_CO_MEMIO_CopyRomToRam
    __CO_DictObjectRead->_CO_MEMIO_CopySram
    __CO_COMM_NMTE_Open->___wmul
    __CO_COMM_NMTE_RXEvent->___wmul

Critical Paths under _INTERRUPT_InterruptManager in BANK1

    None.

Critical Paths under _main in BANK2

    None.

Critical Paths under _INTERRUPT_InterruptManager in BANK2

    None.

Critical Paths under _main in BANK3

    None.

Critical Paths under _INTERRUPT_InterruptManager in BANK3

    None.

Critical Paths under _main in BANK4

    None.

Critical Paths under _INTERRUPT_InterruptManager in BANK4

    None.

Critical Paths under _main in BANK5

    None.

Critical Paths under _INTERRUPT_InterruptManager in BANK5

    None.

Critical Paths under _main in BANK6

    None.

Critical Paths under _INTERRUPT_InterruptManager in BANK6

    None.

Critical Paths under _main in BANK7

    None.

Critical Paths under _INTERRUPT_InterruptManager in BANK7

    None.

Critical Paths under _main in BANK8

    None.

Critical Paths under _INTERRUPT_InterruptManager in BANK8

    None.

Critical Paths under _main in BANK9

    None.

Critical Paths under _INTERRUPT_InterruptManager in BANK9

    None.

Critical Paths under _main in BANK10

    None.

Critical Paths under _INTERRUPT_InterruptManager in BANK10

    None.

Critical Paths under _main in BANK11

    None.

Critical Paths under _INTERRUPT_InterruptManager in BANK11

    None.

Critical Paths under _main in BANK12

    None.

Critical Paths under _INTERRUPT_InterruptManager in BANK12

    None.

Critical Paths under _main in BANK13

    None.

Critical Paths under _INTERRUPT_InterruptManager in BANK13

    None.

Critical Paths under _main in BANK14

    None.

Critical Paths under _INTERRUPT_InterruptManager in BANK14

    None.

Critical Paths under _main in BANK15

    None.

Critical Paths under _INTERRUPT_InterruptManager in BANK15

    None.

Call Graph Tables:

 ---------------------------------------------------------------------------------
 (Depth) Function   	        Calls       Base Space   Used Autos Params    Refs
 ---------------------------------------------------------------------------------
 (0) _main                                                 2     2      0   14975
                                             10 BANK1      2     2      0
                _CO_ProcessAllEvents
                           _DemoInit
                  _SYSTEM_Initialize
           _TMR0_SetInterruptHandler
                    _TMR0_StartTimer
          __CO_COMMResetEventManager
 ---------------------------------------------------------------------------------
 (1) _TMR0_StartTimer                                      0     0      0       0
 ---------------------------------------------------------------------------------
 (1) _SYSTEM_Initialize                                    0     0      0     533
                    _I2C1_Initialize
               _INTERRUPT_Initialize
              _OSCILLATOR_Initialize
             _PIN_MANAGER_Initialize
                     _PMD_Initialize
                    _TMR0_Initialize
                   _UART1_Initialize
 ---------------------------------------------------------------------------------
 (2) _UART1_Initialize                                     0     0      0     333
              _UART1_SetErrorHandler
       _UART1_SetFramingErrorHandler
       _UART1_SetOverrunErrorHandler
 ---------------------------------------------------------------------------------
 (3) _UART1_SetOverrunErrorHandler                         2     0      2     111
                                             12 COMRAM     2     0      2
 ---------------------------------------------------------------------------------
 (3) _UART1_SetFramingErrorHandler                         2     0      2     111
                                             12 COMRAM     2     0      2
 ---------------------------------------------------------------------------------
 (3) _UART1_SetErrorHandler                                2     0      2     111
                                             12 COMRAM     2     0      2
 ---------------------------------------------------------------------------------
 (2) _TMR0_Initialize                                      0     0      0     200
           _TMR0_SetInterruptHandler
 ---------------------------------------------------------------------------------
 (1) _TMR0_SetInterruptHandler                             2     0      2     200
                                             12 COMRAM     2     0      2
 ---------------------------------------------------------------------------------
 (2) _PMD_Initialize                                       0     0      0       0
 ---------------------------------------------------------------------------------
 (2) _PIN_MANAGER_Initialize                               0     0      0       0
 ---------------------------------------------------------------------------------
 (2) _OSCILLATOR_Initialize                                0     0      0       0
 ---------------------------------------------------------------------------------
 (2) _INTERRUPT_Initialize                                 0     0      0       0
 ---------------------------------------------------------------------------------
 (2) _I2C1_Initialize                                      0     0      0       0
 ---------------------------------------------------------------------------------
 (1) _DemoInit                                             0     0      0       0
               __CO_COB_CANopen2MCHP
 ---------------------------------------------------------------------------------
 (1) _CO_ProcessAllEvents                                  0     0      0   10202
                   __CANEventManager
             __CO_COMMRXEventManager
          __CO_COMMTXFinEventManager
          __CO_COMMTXRdyEventManager
 ---------------------------------------------------------------------------------
 (2) __CO_COMMTXRdyEventManager                            0     0      0       0
                     __CANIsPutReady
              __CO_COMM_NMTE_TXEvent
              __CO_COMM_PDO1_TXEvent
              __CO_COMM_SDO1_TXEvent
 ---------------------------------------------------------------------------------
 (3) __CO_COMM_SDO1_TXEvent                                2     2      0       0
                                             12 COMRAM     2     2      0
 ---------------------------------------------------------------------------------
 (3) __CO_COMM_PDO1_TXEvent                                0     0      0       0
 ---------------------------------------------------------------------------------
 (2) __CO_COMMTXFinEventManager                            2     2      0       0
                                             12 COMRAM     2     2      0
                  _CO_PDO1TXFinEvent
                       __CANIsPutFin
 ---------------------------------------------------------------------------------
 (3) __CANIsPutFin                                         0     0      0       0
 ---------------------------------------------------------------------------------
 (3) _CO_PDO1TXFinEvent                                    0     0      0       0
 ---------------------------------------------------------------------------------
 (2) __CO_COMMRXEventManager                               2     2      0   10202
                                              8 BANK1      2     2      0
                     __CANIsGetReady
              __CO_COMM_NMTE_RXEvent
               __CO_COMM_NMT_RXEvent
              __CO_COMM_PDO1_RXEvent
              __CO_COMM_SDO1_RXEvent
              __CO_COMM_SYNC_RXEvent
 ---------------------------------------------------------------------------------
 (3) __CO_COMM_SYNC_RXEvent                                1     1      0       0
                                             12 COMRAM     1     1      0
                   _CO_COMMSyncEvent
 ---------------------------------------------------------------------------------
 (4) _CO_COMMSyncEvent                                     0     0      0       0
 ---------------------------------------------------------------------------------
 (3) __CO_COMM_SDO1_RXEvent                                2     2      0    2682
                                              6 BANK1      2     2      0
               __CO_DictObjectDecode
                 __CO_DictObjectRead
                __CO_DictObjectWrite
 ---------------------------------------------------------------------------------
 (4) __CO_DictObjectWrite                                  2     2      0    1032
                                             12 COMRAM     2     2      0
                  _CO_MEMIO_CopySram
 ---------------------------------------------------------------------------------
 (4) __CO_DictObjectRead                                   2     2      0    1650
                                             12 COMRAM     2     2      0
              _CO_MEMIO_CopyRomToRam
                  _CO_MEMIO_CopySram
 ---------------------------------------------------------------------------------
 (5) _CO_MEMIO_CopySram                                    6     0      6    1032
                                              0 BANK1      6     0      6
 ---------------------------------------------------------------------------------
 (5) _CO_MEMIO_CopyRomToRam                                6     0      6     618
                                              0 BANK1      6     0      6
 ---------------------------------------------------------------------------------
 (4) __CO_DictObjectDecode                                 2     2      0       0
                                             12 COMRAM     2     2      0
 ---------------------------------------------------------------------------------
 (3) __CO_COMM_PDO1_RXEvent                                0     0      0       0
 ---------------------------------------------------------------------------------
 (3) __CO_COMM_NMT_RXEvent                                 2     2      0    4040
                                              4 BANK1      2     2      0
              _CO_NMTAppResetRequest
                   _CO_NMTResetEvent
             _CO_NMTStateChangeEvent
          __CO_COMMResetEventManager
 ---------------------------------------------------------------------------------
 (1) __CO_COMMResetEventManager                            0     0      0    4040
                   __CANEventManager
                     __CANIsPutReady
                          __CANReset
                 __CO_COMM_NMTE_Open
              __CO_COMM_NMTE_TXEvent
                  __CO_COMM_NMT_Open
                 __CO_COMM_PDO1_Open
                 __CO_COMM_SDO1_Open
                 __CO_COMM_SYNC_Open
 ---------------------------------------------------------------------------------
 (2) __CO_COMM_SYNC_Open                                   0     0      0     112
                    __CANOpenMessage
 ---------------------------------------------------------------------------------
 (2) __CO_COMM_SDO1_Open                                   0     0      0     112
                    __CANOpenMessage
               __CO_COB_CANopen2MCHP
 ---------------------------------------------------------------------------------
 (2) __CO_COMM_PDO1_Open                                   0     0      0     112
                    __CANOpenMessage
 ---------------------------------------------------------------------------------
 (2) __CO_COMM_NMT_Open                                    0     0      0     112
                    __CANOpenMessage
 ---------------------------------------------------------------------------------
 (2) __CO_COMM_NMTE_TXEvent                                1     1      0       0
                                             12 COMRAM     1     1      0
 ---------------------------------------------------------------------------------
 (2) __CO_COMM_NMTE_Open                                   0     0      0    3592
                    __CANOpenMessage
               __CO_COB_CANopen2MCHP
                             ___wmul
 ---------------------------------------------------------------------------------
 (3) __CO_COB_CANopen2MCHP                                 2     2      0       0
                                             12 COMRAM     2     2      0
 ---------------------------------------------------------------------------------
 (3) __CANOpenMessage                                      1     1      0     112
                                             12 COMRAM     1     1      0
 ---------------------------------------------------------------------------------
 (2) __CANReset                                            0     0      0       0
                     __CANSetBitRate
 ---------------------------------------------------------------------------------
 (2) __CANIsPutReady                                       0     0      0       0
 ---------------------------------------------------------------------------------
 (2) __CANEventManager                                     2     2      0       0
                                              0 BANK1      2     2      0
                     __CANSetBitRate
 ---------------------------------------------------------------------------------
 (3) __CANSetBitRate                                       2     2      0       0
                                             12 COMRAM     2     2      0
 ---------------------------------------------------------------------------------
 (4) _CO_NMTStateChangeEvent                               0     0      0       0
 ---------------------------------------------------------------------------------
 (4) _CO_NMTResetEvent                                     0     0      0       0
 ---------------------------------------------------------------------------------
 (4) _CO_NMTAppResetRequest                                0     0      0       0
 ---------------------------------------------------------------------------------
 (3) __CO_COMM_NMTE_RXEvent                                0     0      0    3480
                             ___wmul
 ---------------------------------------------------------------------------------
 (3) ___wmul                                               6     2      4    3480
                                             12 COMRAM     2     2      0
                                              0 BANK1      4     0      4
 ---------------------------------------------------------------------------------
 (3) __CANIsGetReady                                       2     2      0       0
                                             12 COMRAM     2     2      0
 ---------------------------------------------------------------------------------
 Estimated maximum stack depth 5
 ---------------------------------------------------------------------------------
 (Depth) Function   	        Calls       Base Space   Used Autos Params    Refs
 ---------------------------------------------------------------------------------
 (7) _INTERRUPT_InterruptManager                           2     2      0     211
                                             10 COMRAM     2     2      0
                      _ECAN_WAKI_ISR
                           _TMR0_ISR
 ---------------------------------------------------------------------------------
 (8) _TMR0_ISR                                             0     0      0     211
                   Absolute function *
                         _TMR0_Blink *
       _TMR0_DefaultInterruptHandler *
 ---------------------------------------------------------------------------------
 (9) _TMR0_DefaultInterruptHandler                         0     0      0       0
 ---------------------------------------------------------------------------------
 (9) _TMR0_Blink                                           1     1      0     211
                                              9 COMRAM     1     1      0
         __CO_COMMLSTimeEventManager
 ---------------------------------------------------------------------------------
 (10) __CO_COMMLSTimeEventManager                          0     0      0     211
                _CO_PDO1LSTimerEvent
         __CO_COMM_NMTE_LSTimerEvent
         __CO_COMM_SDO1_LSTimerEvent
 ---------------------------------------------------------------------------------
 (11) __CO_COMM_SDO1_LSTimerEvent                          0     0      0       0
 ---------------------------------------------------------------------------------
 (11) __CO_COMM_NMTE_LSTimerEvent                          3     3      0     211
                                              6 COMRAM     3     3      0
           _CO_NMTENodeGuardErrEvent
                           i2___wmul
 ---------------------------------------------------------------------------------
 (12) i2___wmul                                            6     2      4     211
                                              0 COMRAM     6     2      4
 ---------------------------------------------------------------------------------
 (12) _CO_NMTENodeGuardErrEvent                            1     1      0       0
                                              0 COMRAM     1     1      0
 ---------------------------------------------------------------------------------
 (11) _CO_PDO1LSTimerEvent                                 0     0      0       0
 ---------------------------------------------------------------------------------
 (8) _ECAN_WAKI_ISR                                        0     0      0       0
                   Absolute function *
      _WakeUpDefaultInterruptHandler *
 ---------------------------------------------------------------------------------
 (9) _WakeUpDefaultInterruptHandler                        0     0      0       0
 ---------------------------------------------------------------------------------
 (9) Absolute function(Fake)                               0     0      0       0
 ---------------------------------------------------------------------------------
 Estimated maximum stack depth 12
 ---------------------------------------------------------------------------------

 Call Graph Graphs:

 _main (ROOT)
   _CO_ProcessAllEvents
     __CANEventManager
       __CANSetBitRate
     __CO_COMMRXEventManager
       __CANIsGetReady
       __CO_COMM_NMTE_RXEvent
         ___wmul
       __CO_COMM_NMT_RXEvent
         _CO_NMTAppResetRequest
         _CO_NMTResetEvent
         _CO_NMTStateChangeEvent
         __CO_COMMResetEventManager
           __CANEventManager
           __CANIsPutReady
           __CANReset
             __CANSetBitRate
           __CO_COMM_NMTE_Open
             __CANOpenMessage
             __CO_COB_CANopen2MCHP
             ___wmul
           __CO_COMM_NMTE_TXEvent
           __CO_COMM_NMT_Open
             __CANOpenMessage
           __CO_COMM_PDO1_Open
             __CANOpenMessage
           __CO_COMM_SDO1_Open
             __CANOpenMessage
             __CO_COB_CANopen2MCHP
           __CO_COMM_SYNC_Open
             __CANOpenMessage
       __CO_COMM_PDO1_RXEvent
       __CO_COMM_SDO1_RXEvent
         __CO_DictObjectDecode
         __CO_DictObjectRead
           _CO_MEMIO_CopyRomToRam
           _CO_MEMIO_CopySram
         __CO_DictObjectWrite
           _CO_MEMIO_CopySram
       __CO_COMM_SYNC_RXEvent
         _CO_COMMSyncEvent
     __CO_COMMTXFinEventManager
       _CO_PDO1TXFinEvent
       __CANIsPutFin
     __CO_COMMTXRdyEventManager
       __CANIsPutReady
       __CO_COMM_NMTE_TXEvent
       __CO_COMM_PDO1_TXEvent
       __CO_COMM_SDO1_TXEvent
   _DemoInit
     __CO_COB_CANopen2MCHP
   _SYSTEM_Initialize
     _I2C1_Initialize
     _INTERRUPT_Initialize
     _OSCILLATOR_Initialize
     _PIN_MANAGER_Initialize
     _PMD_Initialize
     _TMR0_Initialize
       _TMR0_SetInterruptHandler
     _UART1_Initialize
       _UART1_SetErrorHandler
       _UART1_SetFramingErrorHandler
       _UART1_SetOverrunErrorHandler
   _TMR0_SetInterruptHandler
   _TMR0_StartTimer
   __CO_COMMResetEventManager

 _INTERRUPT_InterruptManager (ROOT)
   _ECAN_WAKI_ISR
     Absolute function(Fake) *
     _WakeUpDefaultInterruptHandler *
   _TMR0_ISR
     Absolute function(Fake) *
     _TMR0_Blink *
       __CO_COMMLSTimeEventManager
         _CO_PDO1LSTimerEvent
         __CO_COMM_NMTE_LSTimerEvent
           _CO_NMTENodeGuardErrEvent
           i2___wmul
         __CO_COMM_SDO1_LSTimerEvent
     _TMR0_DefaultInterruptHandler *

 Address spaces:
Name               Size   Autos  Total    Cost      Usage
BIGRAM             FFF      0       0      78        0.0%
EEDATA             400      0       0       0        0.0%
BITBIGSFRlhhhhh    27C      0       0      46        0.0%
BITBIGSFRlhhhhh    194      0       0      64        0.0%
BITBIGSFRlhhhhh    185      0       0      40        0.0%
BITBANK15          100      0       0      34        0.0%
BANK15             100      0       0      35        0.0%
BITBANK14          100      0       0      32        0.0%
BANK14             100      0       0      33        0.0%
BITBANK13          100      0       0      30        0.0%
BANK13             100      0       0      31        0.0%
BITBANK12          100      0       0      28        0.0%
BANK12             100      0       0      29        0.0%
BITBANK11          100      0       0      26        0.0%
BANK11             100      0       0      27        0.0%
BITBANK10          100      0       0      24        0.0%
BANK10             100      0       0      25        0.0%
BITBANK9           100      0       0      22        0.0%
BANK9              100      0       0      23        0.0%
BITBANK8           100      0       0      20        0.0%
BANK8              100      0       0      21        0.0%
BITBANK7           100      0       0      18        0.0%
BANK7              100      0       0      19        0.0%
BITBANK6           100      0       0      16        0.0%
BANK6              100      0       0      17        0.0%
BITBANK5           100      0       0      14        0.0%
BANK5              100      0       0      15        0.0%
BITBANK4           100      0       0      12        0.0%
BANK4              100      0       0      13        0.0%
BITBANK3           100      0       0      10        0.0%
BANK3              100      0       0      11        0.0%
BITBANK2           100      0       0       8        0.0%
BANK2              100      0       0       9        0.0%
BITBANK1           100      0       0       6        0.0%
BANK1              100      C      2C       7       17.2%
BITBANK0            A0      0       0       4        0.0%
BANK0               A0      0      9F       5       99.4%
BITBIGSFRlhhhhh     6C      0       0      43        0.0%
BITCOMRAM           5F      0       0       0        0.0%
COMRAM              5F      E      53       1       87.4%
BITBIGSFRlhhhhh     5E      0       0      49        0.0%
BITBIGSFRhhhh       2D      0       0      36        0.0%
BITBIGSFRlhhhhh     28      0       0      57        0.0%
BITBIGSFRlhhhhh     28      0       0      54        0.0%
BITBIGSFRhhll       24      0       0      39        0.0%
BITBIGSFRllhhhl     23      0       0      74        0.0%
BITBIGSFRlhhhhh     1C      0       0      51        0.0%
BITBIGSFRlhhhhh     1A      0       0      60        0.0%
BITBIGSFRlhhhhh     11      0       0      59        0.0%
BITBIGSFRllhhhh      F      0       0      68        0.0%
BITBIGSFRllhhhh      F      0       0      69        0.0%
BITBIGSFRllhhhh      F      0       0      70        0.0%
BITBIGSFRllhhhh      F      0       0      71        0.0%
BITBIGSFRllhhhh      F      0       0      72        0.0%
BITBIGSFRllhhhh      F      0       0      73        0.0%
BITBIGSFRhhhlh       D      0       0      37        0.0%
BITBIGSFRlhhhhh      C      0       0      62        0.0%
BITBIGSFRlhhhhh      B      0       0      55        0.0%
BITBIGSFRlhhhhh      B      0       0      53        0.0%
BITBIGSFRlhhhhh      B      0       0      52        0.0%
BITBIGSFRlhhhhh      6      0       0      45        0.0%
BITBIGSFRlhhhhh      5      0       0      47        0.0%
BITBIGSFRhhhll       5      0       0      38        0.0%
BITBIGSFRllhhl       3      0       0      75        0.0%
BITBIGSFRlhhhhh      2      0       0      67        0.0%
BITBIGSFRlhhhhh      2      0       0      66        0.0%
BITBIGSFRlhhhhh      2      0       0      65        0.0%
BITBIGSFRlhhhhh      2      0       0      48        0.0%
BITBIGSFRlhhhhh      2      0       0      50        0.0%
BITBIGSFRllll        2      0       0      76        0.0%
BITBIGSFRlhhhhh      1      0       0      44        0.0%
BITBIGSFRlhhhhh      1      0       0      58        0.0%
BITBIGSFRlhhhhh      1      0       0      41        0.0%
BITBIGSFRlhhhhh      1      0       0      42        0.0%
BITBIGSFRlhhhhh      1      0       0      56        0.0%
BITBIGSFRlhhhhh      1      0       0      61        0.0%
BITBIGSFRlhhhhh      1      0       0      63        0.0%
BIGSFR               0      0       0     200        0.0%
BITSFR_9             0      0       0     200        0.0%
SFR_9                0      0       0     200        0.0%
BITSFR_8             0      0       0     200        0.0%
SFR_8                0      0       0     200        0.0%
BITSFR_7             0      0       0     200        0.0%
SFR_7                0      0       0     200        0.0%
BITSFR_6             0      0       0     200        0.0%
SFR_6                0      0       0     200        0.0%
BITSFR_5             0      0       0     200        0.0%
SFR_5                0      0       0     200        0.0%
BITSFR_4             0      0       0     200        0.0%
SFR_4                0      0       0     200        0.0%
BITSFR_3             0      0       0     200        0.0%
SFR_3                0      0       0     200        0.0%
BITSFR_2             0      0       0     200        0.0%
SFR_2                0      0       0     200        0.0%
BITSFR_1             0      0       0     200        0.0%
SFR_1                0      0       0     200        0.0%
BITSFR               0      0       0     200        0.0%
SFR                  0      0       0     200        0.0%
STACK                0      0       0       2        0.0%
NULL                 0      0       0       0        0.0%
ABS                  0      0     11E      77        0.0%
DATA                 0      0     11E       3        0.0%
CODE                 0      0       0       0        0.0%


Microchip Technology PIC18 Macro Assembler V2.40 build 20220703182018 
Symbol Table                                                                                   Sun Jun 11 11:10:46 2023

                         ___wmul@multiplicand 0122                    ??_CO_NMTENodeGuardErrEvent 0046  
                                         l200 20E8                                           l220 1B58  
                                         l141 0C4C                                           l206 1D3E  
                                         l151 0D64                                           l143 0C8C  
                                         l224 1B9A                                           l216 1B2A  
                                         l312 1F6A                                           l320 0E8A  
                                         l161 0E20                                           l153 0D9A  
                                         l145 0CC2                                           l321 0EA0  
                                         l218 1B42                                           l330 0F12  
                                         l155 0DD0                                           l147 0CF8  
                                         l323 0EA4                                           l164 0E62  
                                         l157 0E06                                           l149 0D2E  
                                         l341 0F7E                                           l333 0F24  
                                         l182 1B02                                           l326 0EC8  
                                         l191 1FCC                                           l167 19BA  
                                         l351 1282                                           l185 1F8C  
                                         l337 0F5E                                           l329 0FFE  
                                         l194 20AC                                           l187 1FAA  
                                         l347 1004                                           l196 20C8  
                                         l380 163E                                           l605 0BCC  
                                         l631 1158                                           l641 1384  
                                         l385 1650                                           l369 1282  
                                         l378 163A                                           l394 16DE  
                                         l803 213E                                           l811 1778  
                                         l547 1546                                           l619 249E  
                                         l389 1670                                           l806 1796  
                                         l815 179C                                           l807 1746  
                                         l559 1C2E                                           l808 1748  
                                         l809 1760                                           l681 22CE  
                                         l587 0C36                                           l692 19F6  
                                         l694 1A02                                           l862 23A2  
                                         l695 1A08                                           l856 2298  
                                         l697 1A14                                           l865 21F6  
                                         l794 146E                                           l698 1A64  
                                         l959 1852                                           l999 093C  
               __end_of_CO_MEMIO_CopyRomToRam 1386                      CO_MEMIO_CopyRomToRam@pIn 0120  
                                         prod 003FF3                      CO_MEMIO_CopyRomToRam@len 0124  
                                         tosl 003FFD                                           wreg 003FE8  
                        _I2C1_DO_RX_NACK_STOP 000000                                  __uSYNC_COBID 0092  
                   __CO_COMMTXRdyEventManager 115A                                  __CANIsPutFin 208E  
                                        l1004 0040                                          l1013 012E  
                                        l1022 0256                                          l1014 0286  
                                        l1103 248C                                          l1040 03BE  
                                        l1016 0210                                          l1008 05A2  
                                        l1017 01C6                                          l1122 18F6  
                                        l1034 0396                                          l1027 0290  
                                        l1124 1906                                          l1045 0508  
                                        l1142 24D8                                          l2006 2430  
                                        l1136 24D6                                          l1139 24D2  
                                        l1404 1F02                                          l1096 2262  
                                        l1264 24CE                                          l1338 1E9A  
                                        l1451 24BC                                          l1445 24B2  
                                        l1448 24A8                                          l1800 246E  
                                        l1803 236E                                          l2445 24D4  
                                        l2382 1612                                          l1806 237C  
                                        l2471 232C                                          l1832 23C6  
                                        l1809 23EA                                          l1835 24CA  
                                        l2389 202C                                          l1854 24C6  
                                        l7012 0A62                                          l7020 0AAE  
                                        l7030 0B76                                          l7022 0B1A  
                                        l6400 18B2                                          l7040 0BC8  
                                        l7032 0B7A                                          l7024 0B1E  
                                        l6410 18F4                                          l6402 18D4  
                                        l7042 0BDA                                          l7034 0B8C  
                                        l7026 0B50                                          l7130 20A2  
                                        l6340 1A8E                                          l6500 1932  
                                        l6412 1904                                          l6404 18D8  
                                        l7036 0B9A                                          l7028 0B64  
                                        l7052 0BEE                                          l7140 20D6  
                                        l7132 20A4                                          l7150 1B14  
                                        l6334 1A66                                          l6510 1946  
                                        l6502 1936                                          l6406 18E2  
                                        l7054 0BF6                                          l7038 0BBA  
                                        l7070 1FCE                                          l7142 20DA  
                                        l7134 20BA                                          l7126 208E  
                                        l7160 1B66                                          l7152 1B18  
                                        l6336 1A6A                                          l6520 195A  
                                        l6512 194A                                          l6504 193A  
                                        l6408 18E6                                          l6600 2250  
                                        l7056 0BF8                                          l7048 0BE6  
                                        l7080 2014                                          l7072 1FDE  
                                        l7144 20DC                                          l7136 20BE  
                                        l7128 209E                                          l7162 1B6E  
                                        l7170 1B96                                          l6338 1A7C  
                                        l6530 196E                                          l6522 195E  
                                        l6514 194E                                          l6506 193E  
                                        l6370 1CC0                                          l6610 17CC  
                                        l6602 2260                                          l7058 0C26  
                                        l7082 2016                                          l7074 1FEC  
                                        l7146 20E4                                          l7138 20C0  
                                        l7164 1B72                                          l7156 1B3A  
                                        l7148 1B04                                          l7068 24D0  
                                        l6540 198E                                          l6532 1984  
                                        l6524 1962                                          l6516 1952  
                                        l6508 1942                                          l6372 1CDC  
                                        l6380 1D28                                          l6364 1CBC  
                                        l6700 171E                                          l6620 1820  
                                        l6612 17DC                                          l6604 179E  
                                        l7084 2026                                          l7076 1FF4  
                                        l7158 1B50                                          l6358 1AA0  
                                        l6550 19A2                                          l6542 1992  
                                        l6534 1986                                          l6526 1966  
                                        l6518 1956                                          l6382 1D2A  
                                        l6374 1CF4                                          l6390 188C  
                                        l6710 1798                                          l6702 1756  
                                        l6630 184C                                          l6622 1824  
                                        l6614 17F6                                          l6606 17B8  
                                        l7078 2004                                          l7510 21D4  
                                        l7502 085A                                          _BIE0 00373E  
                                        l7168 1B7A                                          l6560 19B6  
                                        l6552 19A6                                          l6544 1996  
                                        l6536 198A                                          l6528 196A  
                                        l6384 1D3A                                          l6376 1D20  
                                        l6392 1890                                          l6704 176E  
                                        l6632 184E                                          l6624 1834  
                                        l6616 180A                                          l6608 17C8  
                                        l7432 237E                                          l7512 21F0  
                                        l7440 05D0                                          l9210 2324  
                                        l6570 1F9E                                          l6562 1F6C  
                                        l6554 19AA                                          l6546 1998  
                                        l6538 198C                                          l6490 191E  
                                        l6394 18A2                                          l6386 1854  
                                        l6706 1786                                          l6626 1838  
                                        l6618 181A                                          l7434 239A  
                                        l7450 0602                                          l7442 05E8  
                                        l9220 0C6C                                          l6572 1FB8  
                                        l6564 1F7C                                          l6556 19AE  
                                        l6548 199E                                          l6492 1922  
                                        l6484 1908                                          l6396 18A6  
                                        l6388 1862                                          l9300 141A  
                                        l6708 178C                                          l6580 22A0  
                                        l6628 183C                                          l7196 2470  
                                        l7508 21BC                                          l7460 067A  
                                        l7452 061A                                          l7444 05EC  
                                        l7436 05A4                                          l7700 120A  
                                        l7540 24BE                                          l9230 0CFC  
                                        l9222 0C90                                          l9214 0C38  
                                        l6574 1FBC                                          l6566 1F80  
                                        l6558 19B2                                          l6494 1926  
                                        l6486 1914                                          l6398 18AA  
                                        l9310 1444                                          l9302 142A  
                                        l6582 22B4                                          l6590 222E  
                                        l7198 2488                                          l7470 06F2  
                                        l7462 0692                                          l7454 0632  
                                        l7446 05F2                                          l7438 05BC  
                                        l7710 122E                                          l7702 120E  
                                        l7534 24AA                                          l9208 2302  
                                        l9240 0D7A                                          l9232 0D0E  
                                        l9224 0CA2                                          l6576 1FC8  
                                        l6568 1F9A                                          l6496 192A  
                                        l6488 1918                                          l9312 1448  
                                        l9304 142E                                          l6584 22B8  
                                        l6680 226E                                          l6592 2234  
                                        l9400 1F3E                                          l6920 093E  
                                        l9320 1288                                          l7480 076A  
                                        l7472 070A                                          l7464 06AA  
                                        l7456 064A                                          l7448 05F8  
                                        l7720 126A                                          l7712 123C  
                                        l7704 1210                                          l7800 242E  
                                        l7536 24A0                                          l9250 0E0A  
                                        l9242 0D9E                                          l9234 0D32  
                                        l9226 0CC6                                          l9218 0C5A  
                                        l6498 192E                                          l9314 144A  
                                        l9306 1432                                          l6690 16E0  
                                        l6586 22BC                                          l6578 229A  
                                        l6682 227E                                          l6594 2238  
                                        l9410 1F50                                          l9402 1F42  
                                        l6930 096E                                          l6922 094E  
                                        l9322 129E                                          l9330 12CE  
                                        l7730 1614                                          l7490 07E2  
                                        l7482 0782                                          l7474 0722  
                                        l7466 06C2                                          l7458 0662  
                                        l7722 126E                                          l7714 124A  
                                        l7706 1216                                          l7810 23B4  
                                        l7538 24B4                                          l9252 0E0E  
                                        l9244 0DB0                                          l9236 0D44  
                                        l9228 0CD8                                          l9316 144C  
                                        l9308 1442                                          l6692 16F8  
                                        l6588 22CC                                          l6684 2282  
                                        l6676 2264                                          l6596 2248  
                                        l9420 1F62                                          l9412 1F54  
                                        l9404 1F46                                          l6924 0956  
                                        l9332 12E4                                          l9340 1330  
                                        l9324 12BC                                          l7732 1618  
                                        l7492 07FA                                          l7484 079A  
                                        l7476 073A                                          l7468 06DA  
                                        l7724 1272                                          l7716 1258  
                                        l7708 121E                                          l7804 2358  
                                        l7812 23B6                                          l7900 2462  
                                        l9510 20EA                                          l9246 0DD4  
                                        l9238 0D68                                          l9254 0E18  
                                        l6694 16FC                                          l6686 2286  
                                        l6678 226A                                          l6598 224C  
                                        l9422 1F66                                          l9414 1F58  
                                        l9406 1F4A                                          l9502 1A20  
                                        l6950 09AE                                          l6942 0992  
                                        l6934 097A                                          l6926 095E  
                                        l9342 1354                                          l9334 1314  
                                        l9326 12C0                                          l9318 1284  
                                        l9350 1006                                          l9430 148E  
                                        l7734 1626                                          l7494 0812  
                                        l7486 07B2                                          l7478 0752  
                                        l7718 1266                                          l7726 1274  
                                        l7670 1180                                          l7662 115A  
                                        l7814 23C2                                          l7806 23A4  
                                        l7902 2466                                          l9512 20F8  
                                        l9256 0E2E                                          l9248 0DE6  
                                        l9280 13B0                                          l6696 170A  
                                        l6688 2296                                          l9424 1F68  
                                        l9416 1F5A                                          l9408 1F4E  
                                        l6960 09CE                                          l6944 099A  
                                        l6928 0966                                          l9344 135C  
                                        l9336 131C                                          l9328 12C4  
                                        l9360 1046                                          l9352 100A  
                                        l9440 1506                                          l9520 001E  
                                        l7752 1686                                          l7744 165E  
                                        l7496 082A                                          l7488 07CA  
                                        l7728 127A                                          l7680 11B4  
                                        l7672 1190                                          l7664 115E  
                                        l7808 23B0                                          l7904 246A  
                                        l9514 2106                                          l9266 0E36  
                                        l9290 13DE                                          l9282 13B4  
                                        l6698 1710                                          l9418 1F5E  
                                        l6962 09D6                                          l6954 09BA  
                                        l6946 09A2                                          l6938 0986  
                                        l9346 1364                                          l9338 1324  
                                        l9370 10A6                                          l9354 1020  
                                        l9362 1050                                          l9426 1470  
                                        l9530 0070                                          l9522 0032  
                                        l7498 0842                                          l7690 11D8  
                                        l7682 11B8                                          l7674 119E  
                                        l7666 1162                                          l7770 1E38  
                                        l7906 24C8                                          l9516 211A  
                                        l9292 13EE                                          l9284 13C4  
                                        l9276 1386                                          l6980 0A22  
                                        l6972 0A02                                          l6964 09DE  
                                        l9348 1370                                          l9380 10FC  
                                        l9364 1066                                          l9372 10B2  
                                        l9356 103E                                          l9436 149A  
                                        l9428 1480                                          l9460 1BBA  
                                        l9700 0490                                          l9540 00B2  
                                        l9532 0078                                          l9524 0036  
                                        l7748 167E                                          l7756 16AA  
                                        l7692 11E6                                          l7676 11AC  
                                        l7684 11BA                                          l7668 1170  
                                        l7780 1E70                                          l7772 1E4C  
                                        l9518 211C                                          l9294 1400  
                                        l9286 13C8                                          l9278 13A0  
                                        l6966 09E6                                          l6958 09C6  
                                        l9374 10C8                                          l9382 1108  
                                        l9366 1096                                          l9358 1042  
                                        l9390 1144                                          l9438 14D0  
                                        l9446 150E                                          l9710 0514  
                                        l9702 04A2                                          l9630 02DE  
                                        l9622 02B0                                          l9614 0264  
                                        l9606 0236                                          l9550 0100  
                                        l9542 00C8                                          l9534 007E  
                                        l9526 004E                                          l7694 11F4  
                                        l7678 11B0                                          l7686 11C0  
                                        l7766 24CC                                          l7782 1E72  
                                        l7774 1E6A                                          l7790 1EE6  
                                        l9296 1410                                          l9288 13DA  
                                        l9392 1F04                                          l6976 0A0A  
                                        l6968 09F6                                          l9384 112C  
                                        l9376 10EC                                          l9368 109E  
                                        l9448 1542                                          l9456 1B9C  
                                        l9720 054C                                          l9712 0518  
                                        l9640 031A                                          l9632 02EC  
                                        l9624 02C2                                          l9552 010E  
                                        l9536 0082                                          l9528 005C  
                                        l7696 1202                                          l7688 11C8  
                                        l7784 1E74                                          l7776 1E6C  
                                        l7768 1E2C                                          l7792 1EF2  
                                        l9298 1416                                          l9394 1F32  
                                        l9490 19FA                                          l6986 0A2A  
                                        l6978 0A1A                                          l9386 1134  
                                        l9378 10F4                                          l9466 1BC6  
                                        l9474 1BFE                                          l9458 1BAC  
                                        l9722 0554                                          l9714 0524  
                                        l9706 04B4                                          l9650 0332  
                                        l9642 0322                                          l9634 02F8  
                                        l9626 02CA                                          l9618 027E  
                                        l9570 017C                                          l9562 014E  
                                        l9554 011E                                          l9538 009E  
                                        l7698 1206                                          l7970 15BC  
                                        l7778 1E6E                                          l7794 1EFE  
                                        l7786 1E9C                                          l9396 1F36  
                                        l9484 19BC                                          l6996 0A46  
                                        l6988 0A3A                                          l9388 113C  
                                        l9468 1BF6                                          l9476 1C2A  
                                        l9708 050C                                          l9652 033C  
                                        l9644 0326                                          l9636 030E  
                                        l9660 035A                                          l9628 02CE  
                                        l9580 01E6                                          l9572 018A  
                                        l9564 0160                                          l9556 0122  
                                        l9548 00D4                                          l7980 15FC  
                                        l7972 15C0                                          l7964 1548  
                                        l7796 23C8                                          l7788 1EDA  
                                        l7892 2452                                          l9398 1F3A  
                                        l9486 19D0                                          l6998 0A56  
                                        l9662 039E                                          l9654 0346  
                                        l9646 032A                                          l9638 0318  
                                        l9670 03B6                                          l9582 01EA  
                                        l9574 0198                                          l9566 0168  
                                        l9558 0126                                          l7982 1606  
                                        l7974 15D0                                          l7966 154A  
                                        l7798 2410                                          l7894 2456  
                                        l9496 1A10                                          l9488 19E2  
                                        l9664 03AE                                          l9656 0350  
                                        l9584 01F2                                          l9576 01A6  
                                        l9568 016C                                          l9728 055C  
                                        l9832 248E                                          l7976 15E8  
                                        l7968 15A4                                          l7896 245A  
                                        l9498 1A18                                          l9690 0436  
                                        l9674 03CC                                          l9586 01FA  
                                        l9594 0208                                          l9578 01CE  
                                        l9762 0E98                                          l9754 0E64  
                                        l9834 2492                                          l7978 15EC  
                                        l7898 245E                                          l9692 0448  
                                        l9684 03F2                                          l9676 03DA  
                                        l9588 01FE                                          l9780 0F3A  
                                        l9772 0EDE                                          l9764 0EB2  
                                        l9756 0E68                                          l9836 2496  
                                        l9694 045A                                          l9686 041E  
                                        l9598 021E                                          l9790 0F9C  
                                        l9782 0F6C                                          l9766 0EC0  
                                        l9758 0E76                                          l9838 249A  
                                        l9950 1D68                                          l9942 1D40  
                                        l9696 046C                                          l9688 042E  
                                        l9776 0F32                                          l9768 0ED6  
                                        l9960 1D84                                          l9952 1D6C  
                                        l9944 1D44                                          l9698 047E  
                                        l9786 0F8C                                          l9794 0FA4  
                                        l9970 1D92                                          l9962 1D88  
                                        l9954 1D70                                          l9946 1D52  
                                        l9788 0F9A                                          l9972 1D96  
                                        l9964 1D8C                                          l9956 1D78  
                                        l9948 1D56                                          l9798 0FC8  
                                        l9966 1D8E                                          l9958 1D80  
                                        l9968 1D90                                          u3010 1F7C  
                                        u3011 1F78                                          u3020 1F9A  
                                        u3021 1F96                                          _LATA 003FBA  
                                        u3030 1FB8                                          u3110 2296  
                                        _LATB 003FBB                                          u3031 1FB4  
                                        u3111 2292                                          _LATC 003FBC  
                                        u3120 170A                                          u3040 22CC  
                                        u3121 1706                                          u3041 22C8  
                                        u3130 171E                                          u3050 2260  
                                        u3131 171A                                          u3051 225C  
                                        u3140 172E                                          u3060 184C  
                                        u3141 1728                                          u3061 1848  
                                        u3150 1756                                          u3151 1752  
                                        u3160 176E                                          u3400 0A1A  
                                        u3161 176A                                          u3401 0A16  
                                        u3170 1786                                          u3146 1730  
                                        u3410 0A3A                                          u3171 1782  
                                        u3411 0A36                                          u3500 0C36  
                                        u3420 0A56                                          u4300 1202  
                                        u4220 1170                                          u3501 0C32  
                                        u3421 0A52                                          u4301 11FE  
                                        u4221 116C                                          u3430 0B64  
                                        u3510 1FDE                                          u4310 122E  
                                        u4230 1180                                          u3431 0B60  
                                        u3511 1FDA                                          u4311 122A  
                                        u4231 117C                                          u3600 1B26  
                                        u3440 0B76                                          u3520 1FEC  
                                        u6000 0E98                                          u4400 166C  
                                        u4320 123C                                          u4240 1190  
                                        u3601 1B22                                          u3441 0B72  
                                        u3521 1FE8                                          u6001 0E94  
                                        u4401 1668                                          u4321 1238  
                                        u4241 118C                                          u3610 1B3A  
                                        u3450 0B8C                                          u3530 2004  
                                        u6010 0EB2                                          u4410 167E  
                                        u4330 124A                                          u4250 119E  
                                        u3611 1B36                                          u3451 0B88  
                                        u3531 2000                                          u6011 0EAE  
                                        u4411 167A                                          u4331 1246  
                                        u4251 119A                                          u3620 1B50  
                                        u3460 0B9A                                          u3540 2014  
                                        u6020 0EC0                                          u4340 1258  
                                        u4260 11AC                                          u4420 237C  
                                        u3621 1B4C                                          u3461 0B96  
                                        u3541 2010                                          u6021 0EBC  
                                        u4341 1254                                          u4261 11A8  
                                        u4421 2378                                          u3630 1B66  
                                        u2830 1CDC                                          u3470 0BAE  
                                        u3390 09F6                                          u3550 2026  
                                        u6030 0ED6                                          u4350 1266  
                                        u4270 11D8                                          u3631 1B62  
                                        u2831 1CD8                                          u3391 09F2  
                                        u3551 2022                                          u6031 0ED2  
                                        u4351 1262                                          u4271 11D4  
                                        u5400 0C5A                                          u2840 1D3A  
                                        u3480 0BC8                                          u6040 0F20  
                                        u3560 209E                                          u4360 1626  
                                        u4280 11E6                                          u5401 0C56  
                                        u2841 1D36                                          u3481 0BC4  
                                        u6041 0F1C                                          u3561 209A  
                                        u4361 1622                                          u4281 11E2  
                                        u5410 0C6C                                          u2850 1862  
                                        u3490 0BDA                                          u6050 0F32  
                                        u3570 20BA                                          u4370 1636  
                                        u4290 11F4                                          u5411 0C68  
                                        u2851 185E                                          u3491 0BD6  
                                        u6051 0F2E                                          u3571 20B6  
                                        u4371 1632                                          u4291 11F0  
                                        u5420 0CA2                                          u5500 13DA  
                                        u6060 0F6C                                          u3580 20D6  
                                        u4380 164C                                          _PMD0 0039C0  
                                        u5421 0C9E                                          u5501 13D6  
                                        u6061 0F68                                          u3581 20D2  
                                        u4381 1648                                          _PMD1 0039C1  
                                        u3590 1B14                                          u5430 0CD8  
                                        u2870 18F4                                          u5510 1400  
                                        u3670 2488                                          u6070 0F7A  
                                        u4390 165E                                          _PMD2 0039C2  
                                        u3591 1B10                                          u5431 0CD4  
                                        u2871 18F0                                          u5511 13FC  
                                        u3671 2484                                          u6071 0F76  
                                        u4391 165A                                          _PMD3 0039C3  
                                        u5440 0D0E                                          u2880 1904  
                                        u5520 1410                                          u5600 10C8  
                                        u6080 0F8C                                          _PMD4 0039C4  
                                        u5441 0D0A                                          u2881 1900  
                                        u2865 18BC                                          u5521 140C  
                                        u5601 10C4                                          u6081 0F88  
                                        _PMD5 0039C5                                          u5450 0D44  
                                        u5530 1442                                          u6090 0F9A  
                                        _PMD6 0039C6                                          u5451 0D40  
                                        u5531 143E                                          u5611 10E2  
                                        u6091 0F96                                          _PMD7 0039C7  
                                        u5460 0D7A                                          u5700 19F2  
                                        u5540 129E                                          u5461 0D76  
                                        u5701 19EE                                          u5541 129A  
                                        u5621 1122                                          u5710 20F8  
                                        u5470 0DB0                                          u5390 0C48  
                                        u5550 12E4                                          u5630 1158  
                                        u5711 20F4                                          u5471 0DAC  
                                        u5391 0C44                                          u3951 2390  
                                        u5551 12E0                                          u5631 1154  
                                        u5720 2106                                          u5480 0DE6  
                                        u5640 1480                                          u5800 00E4  
                                        u3960 05D0                                          u5721 2102  
                                        u5481 0DE2                                          u5561 134A  
                                        u5641 147C                                          u5801 00DE  
                                        u3961 05CC                   __end_of_rCO_DevIdentityIndx FFFF  
                                        u5730 211A                                          u5490 0E2E  
                                        u5570 1384                                          u5650 148E  
                                        u5810 010E                                          u5731 2116  
                                        u5491 0E2A                                          u5571 1380  
                                        u5651 148A                                          u5811 010A  
                                        u3971 05DA                                          u5580 1020  
                                        u5660 1BAC                                          u5900 02DE  
                                        u5820 017C                                          u5740 0032  
                                        u5581 101C                                          u5661 1BA8  
                                        u5901 02DA                                          u5821 0178  
                                        u5741 002E                                          u3981 21E6  
                                        u6197 1DA2                                          u5590 1066  
                                        u5670 1BBA                                          u5910 02EC  
                                        u5830 018A                                          u5806 00E6  
                                        u5750 004E                                          u5591 1062  
                                        u5671 1BB6                                          u5911 02E8  
                                        u5831 0186                                          u5751 004A  
                                        u5680 19D0                                          u5920 030E  
                                        u5840 0198                                          u5760 005C  
                                        u5681 19CC                                          u5921 030A  
                                        u5841 0194                                          u5761 0058  
                                        u5690 19E2                                          u5930 03CC  
                                        u5850 01A6                                          u5770 0070  
                                        u5691 19DE                                          u5931 03C8  
                                        u5851 01A2                                          u5771 006C  
                                        u5940 03DA                                          u5860 01E6  
                                        u5941 03D6                                          u5861 01E2  
                                        u5781 0094                                          u5950 03EE  
                                        u5870 021E                                          u5790 00C8  
                                        u5951 03EA                                          u5871 021A  
                                        u5791 00C4                                          u5960 041E  
                                        u5880 0232                                          u5961 041A  
                                        u5881 022E                                          u5970 0534  
                                        u5890 0252                                          u5971 052E  
                                        u5891 024E                                          u5980 0E76  
                                        u5981 0E72                                          u5990 0E86  
                                        u5991 0E82                                          u5976 0536  
                                        _PLLR 01CEE0                                          _WPUA 003A41  
                                        _WPUB 003A51                                          _WPUC 003A61  
                                        _WPUE 003A81                                          _main 1D40  
                             _TMR0_StartTimer 24C8                                          fsr1h 003FE2  
                                        fsr2h 003FDA                                          indf1 003FE7  
                                        indf2 003FDF                                          fsr1l 003FE1  
                                        fsr2l 003FD9                         __end_of_uDemoTPDO1Len FFFB  
                                        prodh 003FF4                                          prodl 003FF3  
                                        start 001A                            _rCO_DevProductCode FFEE  
                                ___param_bank 000000                _CO_COMM_RPDO1_COBIDAccessEvent 000000  
                     __end_of_TMR0_Initialize 23C8                ??_TMR0_DefaultInterruptHandler 0046  
               __end_of_OSCILLATOR_Initialize 237E                                         l10500 04CA  
                                       l10510 0AC4                                         l10502 0574  
                                       l10512 1A36                                         l10504 1C14  
                                       _B0CON 003740                                         l10514 0E4C  
                                       l10506 1524                                         l10516 1AB4  
                                       l10508 0A78                                         _B1CON 003750  
                                       l10490 0EF4                                         l10492 0F50  
                                       l10484 086E                                         l10494 0FBA  
                                       l10486 169C                                         l10496 0FE0  
                                       l10488 16C0                                         _B2CON 003760  
                                       l10498 0370                                         _B3CON 003770  
                                       _B4CON 003780                                         _B5CON 003790  
                     ?_CO_NMTStateChangeEvent 0046                                         ?_main 0046  
                             __end_of__db_sdo FF4C                                         _BSEL0 00373D  
                             __end_of___dummy FFDA                                         _U1P1H 003DED  
                                       _U1P2H 003DEF                                         _U1P3H 003DF1  
                                       _U1P1L 003DEC                                         _U1P2L 003DEE  
                                       _U1P3L 003DF0                   ?__CO_COMM_NMTE_LSTimerEvent 0046  
                                       _U1UIR 003DF8                                         _U1RXB 003DE8  
                                       _U1TXB 003DEA                                         i2l404 1E2A  
               __end_of__CO_COMM_NMTE_RXEvent 2140                                         i2l822 1CBA  
                                       _SDFLC 003730                                         _MSEL0 003739  
                                       _MSEL1 00373A                                         _MSEL2 00373B  
                                       i2l967 21BA                                         _MSEL3 00373C  
                          _rCO_DevSoftwareVer FFCC                    __end_of_i2c1_fsmStateTable FD53  
                                       _OSCEN 0039DD                                         _TMR0H 003FB7  
                                       _TMR0L 003FB6                 __end_of__CO_COMM_NMTE_TXEvent 179E  
                                       _TRISA 003FC2                                         _TRISB 003FC3  
                                       _TRISC 003FC4                                         _TXBIE 00373F  
                   ?_TMR0_SetInterruptHandler 0052                                   ?_TMR0_Blink 0046  
                                       __hNMT 0023                             ??_I2C1_Initialize 0052  
                            __end_of_TMR0_ISR 2302                                         _uDict 0009  
                ??__CO_COMM_SDO1_LSTimerEvent 0046                    __end_of__CO_COMM_PDO1_Open 229A  
                                       pclath 003FFA                                         pclatu 003FFB  
                                       tablat 003FF5                              __end_ofi2___wmul 2358  
                                       plusw1 003FE3                                         plusw2 003FDB  
                             __db_pdo1_rx_map FE83                          __CO_DictObjectDecode 093E  
                                       status 003FD8                               __db_pdo1_tx_map FE3B  
                              __CANIsGetReady 1B04              _UART1_DefaultFramingErrorHandler 000000  
                            __end_of_DemoInit 1614                    __end_of__CO_COMM_SDO1_Open 1854  
                     ??__CO_COMM_SYNC_RXEvent 0052                               __initialization 21F8  
                         _CO_PDO1LSTimerEvent 24DC                                  __end_of_main 1DB6  
                  __end_of__CO_COMM_NMTE_Open 1470                __end_of_CO_NMTStateChangeEvent 24D8  
                 ?_INTERRUPT_InterruptManager 0046                   ?__CO_COMMLSTimeEventManager 0046  
                                      ??_main 012A                                 __activetblptr 000003  
                     ??_CO_NMTAppResetRequest 0052                                __CANIsPutReady 1F6C  
                                _uIOinIntFall 00F8                              _UART1_Initialize 1E9C  
             ??_WakeUpDefaultInterruptHandler 0046                                  _uIOinIntRise 00F9  
                        ?_CO_PDO1LSTimerEvent 0046                       __end_of_TMR0_StartTimer 24CC  
                                      _CANCON 003F8F                                        _CIOCON 003700  
                                      _ANSELA 003A40                                        _ANSELB 003A50  
                                      _ANSELC 003A60                                        _T0CON0 003FB8  
                                      _T0CON1 003FB9                    __end_of__CO_COMM_SYNC_Open 2264  
                                      _U1CON0 003DF2                                        _U1CON1 003DF3  
                                      _U1CON2 003DF4                                        _U1BRGH 003DF6  
                                      _U1FIFO 003DF7                                        _U1BRGL 003DF5  
                                      _RB0PPS 003A08                                        _RB2PPS 003A0A  
                                      _ODCONA 003A42                                        _ODCONB 003A52  
                                      _RC6PPS 003A16                                        _ODCONC 003A62  
                                      _RC7PPS 003A17                                        i2l1145 240E  
                                      i2l1273 2080                                        i2l1269 2060  
                                      i2l2442 24DC                                        i2l2451 217C  
                                      i2l2471 2356                                        i2l1755 2450  
                                      i2l1851 2300                                        i2l1688 24DE  
                                      i2l1857 24DA                                        _INLVLA 003A44  
                                      _INLVLB 003A54                                        _INLVLC 003A64  
                                      _INLVLE 003A84                                        i2l6800 234E  
                                      i2l7520 1DE2                                        i2l7530 1E18  
                                      i2l7522 1DE6                                        i2l7514 1DB6  
                                      i2l8330 204A                                        i2l7532 1E26  
                                      i2l7524 1DF6                                        i2l7516 1DC4  
                                      i2l8332 2058                                        i2l7526 1E04  
                                      i2l7518 1DD4                                        i2l8334 206E  
                                      i2l6840 1C3E                                        i2l7528 1E08  
                                      i2l8336 207C                                        i2l8328 203A  
                                      i2l6850 1C98                                        i2l6842 1C4C  
                                      i2l6852 1CB6                                        i2l6844 1C68  
                                      i2l6860 21B8                                        i2l6846 1C76  
                                      i2l6838 1C30                                        i2l6854 217E  
                                      i2l7830 214E                                        i2l6848 1C92  
                                      i2l6856 218C                                        i2l7832 2152  
                                      i2l6786 23EC                                        i2l6858 21B0  
                                      i2l7834 2154                                        i2l7836 2156  
                                      i2l7828 2140                                        i2l6798 232E  
                                      i2l7838 2178                                        i2l7882 2432  
                                      i2l7890 22E8                                        i2l7884 244C  
                                      i2l7886 22D0                                        i2l7888 22D4  
                      __end_of__CANIsGetReady 1B9C                         ?__CO_DictObjectDecode 0046  
                                      _OSCFRQ 0039DF                                        _RXB0D0 003F86  
                                      _RXB0D1 003F87                                        _RXB0D2 003F88  
                                      _RXB0D3 003F89                                        _RXB1D0 0037F6  
                                      _RXB0D4 003F8A                                        _RXB1D1 0037F7  
                                      _RXB0D5 003F8B                                        _RXB1D2 0037F8  
                                      _RXB0D6 003F8C                                        _RXB1D3 0037F9  
                                      _RXB0D7 003F8D                                        _RXB1D4 0037FA  
                                      _RXB1D5 0037FB                                        _RXB1D6 0037FC  
                                      _RXB1D7 0037FD                                        _TXB0D0 0037E6  
                                      _TXB0D1 0037E7                                        _TXB0D2 0037E8  
                                      _TXB0D3 0037E9                                        _TXB1D0 0037D6  
                                      _TXB0D4 0037EA                                        _TXB1D1 0037D7  
                                      _TXB0D5 0037EB                                        _TXB1D2 0037D8  
                                      _TXB0D6 0037EC                                        _TXB1D3 0037D9  
                                      _TXB0D7 0037ED                                        _TXB2D0 0037C6  
                                      _TXB1D4 0037DA                                        _TXB2D1 0037C7  
                                      _TXB1D5 0037DB                                        _TXB2D2 0037C8  
                                      _TXB1D6 0037DC                                        _TXB2D3 0037C9  
                                      _TXB1D7 0037DD                                        _TXB2D4 0037CA  
                                      _TXB2D5 0037CB                                        _TXB2D6 0037CC  
                                      _TXB2D7 0037CD                         _UART1_SetErrorHandler 24B4  
                            _I2C1_DO_RX_EMPTY 000000                              _I2C1_DO_TX_EMPTY 000000  
                                      __hSDO1 001E                                        __hNMTE 0020  
                           ??__CANOpenMessage 0052                                        __hSYNC 001A  
                           ?__CANEventManager 0046                                        __uPDO1 008C  
                 __end_of_CO_ProcessAllEvents 24A0                                _uDemoSyncCount 0017  
                                      ___wmul 2302                                __CANSetBitRate 1A66  
                          ??__CANEventManager 0120                              ?_TMR0_Initialize 0046  
                                      clear_0 21FE                                        clear_1 220A  
                                      clear_2 2216                                        isa$std 000001  
                      __end_of__CANIsPutReady 1FCE                         __CO_COMM_PDO1_RXEvent 237E  
                           __CO_COMM_NMT_Open 229A                         __CO_COMM_PDO1_TXEvent 21BC  
                                  __tDBaseLen 0024                         _I2C1_DO_SEND_ADR_READ 000000  
                              _PMD_Initialize 23C8                             __end_of__CANReset 19BC  
                          ?__CO_COMM_NMT_Open 0046                                  __mediumconst FD2C  
                                  __uSDO1Dict 0037                                        tblptrh 003FF7  
                                      tblptrl 003FF6                                        tblptru 003FF8  
                       ??_CO_PDO1LSTimerEvent 0046                       __end_of__db_pdo1_rx_map FECB  
                            __db_pdo1_rx_comm FFBC                       __end_of__db_pdo1_tx_map FE83  
                                  _uPDO1Dummy FFDE                              __db_pdo1_tx_comm FF1C  
    TMR0_SetInterruptHandler@InterruptHandler 0052          __end_of_UART1_SetOverrunErrorHandler 24AA  
                _UART1_SetOverrunErrorHandler 24A0                     _UART1_DefaultErrorHandler 000000  
                                  __uCO_state 002E                       _I2C1_DO_RX_NACK_RESTART 000000  
                         ??__CO_COMM_NMT_Open 0053                             _SYSTEM_Initialize 2452  
                             ?__CANIsGetReady 0046                                    __accesstop 0060  
                     __end_of__initialization 2228                                    __db_device FD53  
                          ?_SYSTEM_Initialize 0046                                 ___rparam_used 000001  
                    ??__CO_COMMRXEventManager 0128                       _rdBlkRegCompleteHandler 000000  
                      __end_of__CANSetBitRate 1B04                                __pcstackCOMRAM 0046  
                 __end_of__db_manufacturer_g1 FFBC                   __end_of__db_manufacturer_g2 FFAC  
                 __end_of__db_manufacturer_g3 FF9C                   __end_of__db_manufacturer_g4 FF8C  
                                  __uDictTemp 00AA                           ??_SYSTEM_Initialize 0054  
                                   ?_TMR0_ISR 0046                                    _uRPDOComm1 00A2  
                  ?__CO_COMMResetEventManager 0046                                    __pTmpDBase 0014  
                   __end_of__CO_COMM_NMT_Open 22D0                                    _uTPDOComm1 009E  
                      __end_of_PMD_Initialize 23EC                               ?__CANIsPutReady 0046  
                                   ?i2___wmul 0046                                     ?_DemoInit 0046  
                   _UART1_FramingErrorHandler 00BC            __end_of__CO_COMM_SDO1_LSTimerEvent 21BC  
                  __CO_COMM_SDO1_LSTimerEvent 217E                                  _uDemoSyncSet 0016  
                               _ECAN_WAKI_ISR 2432                             _I2C1_DO_BUS_ERROR 000000  
                            ?_TMR0_StartTimer 0046                     __end_of_SYSTEM_Initialize 2470  
               _CO_COMM_TPDO1_TypeAccessEvent 000000                        ??__CO_DictObjectDecode 0052  
                         __end_of_rCO_DevName FF1C                                    __pbssBANK0 0060  
                                  __pbssBANK1 0100         __end_of_WakeUpDefaultInterruptHandler 24E0  
               _WakeUpDefaultInterruptHandler 24DE                 ?_UART1_SetOverrunErrorHandler 0052  
                         __end_of_rCO_DevType FFFA                        ?_UART1_SetErrorHandler 0052  
                       __CO_COMM_SDO1_RXEvent 001E                                    _uDemoState 0018  
                       __CO_COMM_SDO1_TXEvent 05A4                                    _rMaxIndex1 FFFC  
                                  _rMaxIndex2 FFFB                         _rd1RegCompleteHandler 000000  
                                     IVTBASEH 003FD6                                       IVTBASEL 003FD5  
                                     IVTBASEU 003FD7                  __end_of__CO_COB_CANopen2MCHP 1908  
                           _I2C1_DO_SEND_STOP 000000                         _wr1RegCompleteHandler 000000  
                             ?__CANSetBitRate 0046                             _CO_MEMIO_CopySram 1006  
            __end_of_TMR0_SetInterruptHandler 24C8                             _CO_PDO1TXFinEvent 24D4  
                                     _I2C1CLK 003D7B                                       _I2C1CNT 003D6C  
                                     _I2C1ERR 003D76                                       _I2C1PIE 003D7A  
                                     ?___wmul 0120                                       _I2C1PIR 003D79  
                                     _I2C1RXB 003D6A                                    ??_TMR0_ISR 0050  
                                     _I2C1TXB 003D6B                            ?_CO_MEMIO_CopySram 0120  
                             _I2C1_Initialize 2410                                     _B0CONbits 003740  
                          ?_CO_PDO1TXFinEvent 0046                                       _ECANCON 003F91  
                                   _B1CONbits 003750                                       _CANSTAT 003F8E  
                               _uIOinPolarity 00FD             __end_of__CO_COMMResetEventManager 1F6C  
                      ?__CO_COMM_PDO1_RXEvent 0046                    ?__CO_COMMTXFinEventManager 0046  
                      ?__CO_COMM_PDO1_TXEvent 0046                               ?_PMD_Initialize 0046  
                                     _BRGCON1 003703                                       _BRGCON2 003704  
                                     _BRGCON3 003705                             __end_of_uRPDO1Map FFE6  
                                  ??i2___wmul 004A                                       _U1ERRIE 003DFA  
                                     _U1ERRIR 003DF9                              __uNMTELifeFactor 0021  
                           __end_of_uTPDO1Map FFDE                           ??_CO_MEMIO_CopySram 0052  
                                     _U1RXPPS 003AE7           __CO_COMM_NMTE_LifeFactorAccessEvent 000000  
                         ??_CO_PDO1TXFinEvent 0052                                    ??_DemoInit 0054  
                                ??_TMR0_Blink 004F                              _CO_NMTResetEvent 24D0  
                                     _OSCCON1 0039D9                                       _OSCCON3 0039DB  
                              ?_ECAN_WAKI_ISR 0046                                       _RXB0DLC 003F85  
                                     _RXB1DLC 0037F5                               __db_standard_g1 FDCB  
                             __db_standard_g2 FF6C                               __db_standard_g3 FF5C  
                             __db_standard_g4 FF4C                                       _RXB0CON 003F80  
                                     _RXB1CON 0037F0                                       _OSCTUNE 0039DE  
                       _CO_MEMIO_CopyRomToRam 1284                                       _TXB0DLC 0037E5  
                                     _SLRCONA 003A43                                       _SLRCONB 003A53  
                                     _TXB1DLC 0037D5                                       _SLRCONC 003A63  
                                     _TXB2DLC 0037C5                                       _RXFCON0 003706  
                                     _RXFCON1 003707                     ?_CO_NMTENodeGuardErrEvent 0046  
                          _i2c1_fsmStateTable FD2D                              __uNMTELocalState 0022  
                         __end_of__db_objects FF03                     __end_of_CO_MEMIO_CopySram 115A  
                                     __Hparam 0000                     __end_of_CO_PDO1TXFinEvent 24D6  
                                     __Lparam 0000                      __end_of_UART1_Initialize 1F04  
               __end_of__CO_COMM_SYNC_RXEvent 248E                            __CO_COMM_PDO1_Open 2264  
                          __end_of_TMR0_Blink 217E                                       __db_sdo FF34  
                                     ___dummy FFD6                                       __tMplex 000D  
              _CO_COMM_TPDO1_COBIDAccessEvent 000000                                       __net_en 002C  
                                     __pcinit 21F8                                       __sdo_en 002B  
                                     __ramtop 1000                            __CO_COMM_SDO1_Open 179E  
                                     __ptext0 1D40                                       __ptext1 24C8  
                                     __ptext2 2452                                       __ptext3 1E9C  
                                     __ptext4 24A0                                       __ptext5 24AA  
                                     __ptext6 24B4                                       __ptext7 23A4  
                                     __ptext8 24BE                                       __ptext9 23C8  
                         ?__CO_COMM_PDO1_Open 0046             __end_of__CO_COMMTXFinEventManager 16E0  
                       _OSCILLATOR_Initialize 2358                                   __uCOB_ID_in 0005  
                             __uSDO1_CS_COBID 009A                                   _I2C1ERRbits 003D76  
                                 _rCO_DevName FF03                      ??_PIN_MANAGER_Initialize 0052  
                                 _rCO_DevType FFF6                                   _I2C1PIEbits 003D7A  
                          __CO_COMM_NMTE_Open 1386                 __end_of_CO_NMTAppResetRequest 24DA  
                       __CO_COMM_NMTE_RXEvent 20EA                           ?__CO_COMM_SDO1_Open 0046  
                                 _I2C1PIRbits 003D79                         __CO_COMM_NMTE_TXEvent 16E0  
                        end_of_initialization 2228                               __CANOpenMessage 1CBC  
                      _WakeUpInterruptHandler 00B6                               __uSDO1_SC_COBID 0096  
                         ?__CO_COMM_NMTE_Open 0046                        ?__CO_COMM_SDO1_RXEvent 0046  
                        ??__CO_COMM_PDO1_Open 0053                        ?__CO_COMM_SDO1_TXEvent 0046  
                         i2___wmul@multiplier 0046                        _I2C1_DO_SEND_ADR_WRITE 000000  
                                 __uSDO1ACode 001C              fp__WakeUpDefaultInterruptHandler 0000  
              ?_WakeUpDefaultInterruptHandler 0046                ??_UART1_SetOverrunErrorHandler 0054  
                     __end_of_I2C1_Initialize 2432                              _CO_COMMSyncEvent 1FCE  
                        ??__CO_COMM_SDO1_Open 0054                                   _I2C1_Status 0060  
                                 __uSDO1RxBuf 00C8                                   __uSDO1TxBuf 00DC  
                                 __uSDO1Timer 00C0                                   __uSDO1State 001D  
                          __CO_COMM_SYNC_Open 222E                      __end_of__db_pdo1_rx_comm FFCC  
                                     postdec2 003FDD                      __end_of__db_pdo1_tx_comm FF34  
                                     postinc0 003FEE                                       postinc1 003FE6  
                                     postinc2 003FDE                               __uSDO1BytesLeft 00BE  
                                 __uCO_nodeID 002F                          ??__CO_COMM_NMTE_Open 0054  
                  _I2C1_DO_SEND_RESTART_WRITE 000000                                   __uNMTETimer 00AE  
                                 __uNMTEState 0030                       __end_of__db_standard_g1 FE3B  
                     __end_of__db_standard_g2 FF7C                       __end_of__db_standard_g3 FF6C  
                     __end_of__db_standard_g4 FF5C                      _TMR0_SetInterruptHandler 24BE  
                         ?__CO_COMM_SYNC_Open 0046                    __end_of__CO_DictObjectRead 1548  
                             ??_ECAN_WAKI_ISR 0046                        __CO_COMMRXEventManager 0E64  
                      ?_CO_MEMIO_CopyRomToRam 0120                          __CO_COB_CANopen2MCHP 1854  
                            ??__CANIsGetReady 0052            __CO_COMM_NMTE_GuardTimeAccessEvent 000000  
                                   __CANReset 1908                    __end_of_rCO_DevHardwareVer FFD6  
                                 __db_objects FECB                          ??__CO_COMM_SYNC_Open 0053  
                               _uDemoTPDO1Len FFFA                              ??__CANIsPutReady 0052  
                __end_of_INTERRUPT_Initialize 24D0                                __end_of___wmul 232E  
                 ??__CO_COMMResetEventManager 0054                                _I2C1_DO_RX_ACK 000000  
                              _I2C1_DO_TX_ACK 000000                   __end_of_CO_PDO1LSTimerEvent 24DE  
                      ?_OSCILLATOR_Initialize 0046                              i2___wmul@product 004A  
                      ?__CO_COMM_NMTE_RXEvent 0046                       __end_of__CANOpenMessage 1D40  
                       ?__CO_COB_CANopen2MCHP 0046                           start_initialization 21F8  
                      ?__CO_COMM_NMTE_TXEvent 0046                           __CO_DictObjectWrite 1B9C  
                 ?__CO_COMM_SDO1_LSTimerEvent 0046                       ??_UART1_SetErrorHandler 0054  
                               ?__CANIsPutFin 0046                                    ?__CANReset 0046  
                                  ivt0x8_base 0008                                 fp__TMR0_Blink 0000  
                                 _CANSTATbits 003F8E                                   _uIOinFilter 00FC  
                            ??__CANSetBitRate 0052                  __end_of__CO_COMM_NMT_RXEvent 1A66  
                            ?_I2C1_Initialize 0046                      ??_CO_NMTStateChangeEvent 0052  
                        ?__CO_DictObjectWrite 0046                      __end_of_CO_NMTResetEvent 24D4  
                            ??_PMD_Initialize 0052                       ??__CO_COMM_PDO1_RXEvent 0052  
                                    ??___wmul 0052                                     __uCAN_ret 0034  
                     ??__CO_COMM_PDO1_TXEvent 0052                                     __uSDO1Ctl 001B  
                                   __uCO_baud 002D                   ??__CO_COMMTXFinEventManager 0052  
                              _uIOinDigiInOld 00C2             __CO_COMM_SDO1_SC_COBIDAccessEvent 000000  
            __end_of_CO_NMTENodeGuardErrEvent 2410                          __end_of_rCO_DevRevNo FFEE  
                ??__CO_COMM_NMTE_LSTimerEvent 004C                                   __pbssCOMRAM 0001  
                        _I2C1_DO_SEND_RESTART 000000                           _rCO_DevIdentityIndx FFFE  
                          _UART1_ErrorHandler 00B8                                 __pcstackBANK1 0120  
                                   _uRPDO1Map FFE2                                ??__CANIsPutFin 0052  
                                   _uTPDO1Map FFDA                               _uLocalRcvBuffer 00E4  
                   __CO_COMMResetEventManager 1F04                     CO_MEMIO_CopyRomToRam@pOut 0122  
                              _uIOinIntChange 00FA                                _uIOinIntEnable 00FB  
                       _TMR0_InterruptHandler 00B4                                 __uCAN_Bitrate 0033  
                       _rd2RegCompleteHandler 000000                               __uNMTEHeartBeat 0012  
                       ??__CO_DictObjectWrite 0052                                __uSDO1COMMIndx FFFD  
                      _PIN_MANAGER_Initialize 1E2C                         _wr2RegCompleteHandler 000000  
                           ?_UART1_Initialize 0046                    ?__CO_COMMTXRdyEventManager 0046  
        __end_of_UART1_SetFramingErrorHandler 24B4                  _UART1_SetFramingErrorHandler 24AA  
                               __pmediumconst FD2C                            ??_UART1_Initialize 0054  
                                    _I2C1CON0 003D73                                      _I2C1CON1 003D74  
                                    _I2C1CON2 003D75                            __end_of_uPDO1Dummy FFE2  
                            _uart1RxLastError 0019                               _uLocalXmtBuffer 00EC  
                ??_INTERRUPT_InterruptManager 0050                  ??__CO_COMMLSTimeEventManager 004F  
                      ??__CO_COB_CANopen2MCHP 0052                               __uNMTEGuardTime 0010  
                          __end_of__db_device FDCB                                   _COMSTATbits 003F90  
            _UART1_DefaultOverrunErrorHandler 000000                              ?__CANOpenMessage 0046  
                            __CANEventManager 0C38                      __end_of_CO_COMMSyncEvent 202E  
                                    _CANRXPPS 003AED                       ??__CO_COMM_SDO1_RXEvent 0126  
                                 ??__CANReset 0054                       ??__CO_COMM_SDO1_TXEvent 0052  
                                 _U1ERRIRbits 003DF9                          _INTERRUPT_Initialize 24CC  
                                  _I2C1SDAPPS 003AE4                                    _I2C1SCLPPS 003AE3  
                   __CO_COMMTXFinEventManager 1614                             ??_TMR0_Initialize 0054  
                              ___wmul@product 0052         UART1_SetErrorHandler@interruptHandler 0052  
                                    _LATBbits 003FBB                                    _I2C1_DO_RX 000000  
                                  _I2C1_DO_TX 000000                        __end_of__uSDO1COMMIndx FFFE  
                                 __rx_net_flg 00C4                                   __rx_pdo_flg 0025  
                                    _PIE2bits 003992                                      _PIE3bits 003993  
                                    _PIE5bits 003995                                   __rx_sdo_flg 00C3  
                                    i2u400_40 1DD4                                      i2u400_41 1DD0  
                                    i2u401_40 1DE2                                      i2u401_41 1DDE  
                                    i2u330_40 1C3E                                      i2u402_40 1DF6  
                                    i2u330_41 1C3A                                      i2u402_41 1DF2  
                                    i2u331_40 1C68                                      i2u403_40 1E04  
                                    i2u331_41 1C64                                      i2u403_41 1E00  
                                    i2u332_40 1C76                                      i2u404_40 1E18  
                                    i2u332_41 1C72                                      i2u404_41 1E14  
                                    i2u333_40 218C                                      i2u405_40 1E26  
                  ??_TMR0_SetInterruptHandler 0054                                      i2u333_41 2188  
                                    i2u405_41 1E22                                      i2u334_40 21B0  
                                    i2u334_41 21AC                                 _I2C1STAT1bits 003D78  
                                    i2u328_40 23FC                                      i2u328_41 23F6  
                                    i2u328_46 23FE                                      i2u450_48 2438  
                                    i2u451_40 22E8                                      i2u450_49 244C  
                                    i2u451_41 22E4                                      _PIR2bits 0039A2  
                                    i2u444_40 214E                                      i2u444_41 214A  
                                    i2u445_40 2166                                      i2u452_48 22EE  
                                    i2u445_41 2160                                      i2u452_49 2300  
                                    _PIR3bits 0039A3                                      i2u445_46 2168  
                                    i2u481_40 204A                                      i2u481_41 2046  
                                    _PIR5bits 0039A5                                      i2u482_40 2058  
                                    i2u482_41 2054                                      i2u483_40 206E  
                                    i2u483_41 206A                                      i2u484_40 207C  
                                    i2u484_41 2078                                      i2u399_40 1DC4  
                                    i2u399_41 1DC0                                      _RXB0EIDH 003F83  
                                    _RXB0EIDL 003F84                                      _RXB1EIDH 0037F3  
                                    _RXB1EIDL 0037F4                                      _RXB0SIDH 003F81  
                                    _RXB0SIDL 003F82                                      _RXF0EIDH 0037A2  
                                    _RXB1SIDH 0037F1                                      _RXF0EIDL 0037A3  
                                    _RXB1SIDL 0037F2                                      _RXF1EIDH 0037A6  
                                    _RXF1EIDL 0037A7                                      _RXF2EIDH 0037AA  
                                    _RXF2EIDL 0037AB                                      _RXF3EIDH 0037AE  
                   _I2C1_DO_SEND_RESTART_READ 000000                                      _RXF3EIDL 0037AF  
                                    _RXF4EIDH 0037B2                                      _RXF4EIDL 0037B3  
                                    _RXF5EIDH 0037B6                                      _RXF5EIDL 0037B7  
                                    _RXF0SIDH 0037A0                                      _RXF0SIDL 0037A1  
           __end_of__CO_COMMTXRdyEventManager 1284                                      _RXF1SIDH 0037A4  
                                    _TXB0EIDH 0037E3                                      _TXB0EIDL 0037E4  
                                    _RXF1SIDL 0037A5                                      _RXF2SIDH 0037A8  
                                    _TXB1EIDH 0037D3                                      _TXB1EIDL 0037D4  
                                    _RXF2SIDL 0037A9                                      _RXF3SIDH 0037AC  
                                    _TXB2EIDH 0037C3                                      _TXB2EIDL 0037C4  
                                    _RXF3SIDL 0037AD                                      _RXF4SIDH 0037B0  
                                    _RXF4SIDL 0037B1                                      _TMR0_ISR 22D0  
                                    _RXF5SIDH 0037B4                                      _RXF5SIDL 0037B5  
                                    _RXF6SIDH 003708                                      _RXF7SIDH 00370C  
                                    _RXM0EIDH 0037BA                                      _RXM0EIDL 0037BB  
                                    _RXM1EIDH 0037BE                                      _TXB0SIDH 0037E1  
                                    _RXM1EIDL 0037BF                                      _TXB0SIDL 0037E2  
                                    _TXB1SIDH 0037D1                                      _TXB1SIDL 0037D2  
                                    _TXB2SIDH 0037C1                                      _TXB2SIDL 0037C2  
                                    _RXFBCON0 003731                                      _RXFBCON1 003732  
                                    _RXFBCON2 003733                                      _RXFBCON3 003734  
                                    _RXFBCON4 003735                                      _RXFBCON5 003736  
                                    _RXFBCON6 003737                                      _RXFBCON7 003738  
                                 __tx_net_que 0028                                      _RXM0SIDH 0037B8  
                                 __tx_pdo_que 0026                                      _RXM0SIDL 0037B9  
                                    _RXM1SIDH 0037BC                                      _RXM1SIDL 0037BD  
               ?_UART1_SetFramingErrorHandler 0052                                   __tx_sdo_que 0027  
                       __CO_COMM_SYNC_RXEvent 2470                       ?__CO_COMMRXEventManager 0046  
                     ??_CO_MEMIO_CopyRomToRam 0052                             ___wmul@multiplier 0120  
                                    i2___wmul 232E                          __CO_COMM_NMT_RXEvent 19BC  
                                    _DemoInit 1548                            __end_of_rMaxIndex1 FFFD  
                          __end_of_rMaxIndex2 FFFC                      _CO_NMTENodeGuardErrEvent 23EC  
                               _I2C1_DO_RESET 000000                    __end_of_rCO_DevProductCode FFF2  
                                 _INTCON0bits 003FD2                             __CANOpenMessage@i 0052  
                       _CO_NMTAppResetRequest 24D8                         ?_INTERRUPT_Initialize 0046  
                                  _CANCONbits 003F8F            __CO_COMM_NMTE_HeartBeatAccessEvent 000000  
                          __CO_DictObjectRead 1470                           _CO_ProcessAllEvents 248E  
                                    __Hrparam 0000                           ?__CO_DictObjectRead 0046  
                  __end_of_rCO_DevSoftwareVer FFD1                                      __Lrparam 0000  
                                    __uCANReq 0032                            _rCO_DevHardwareVer FFD1  
                        __end_of__CANIsPutFin 20EA                       ??_OSCILLATOR_Initialize 0052  
              __end_of__CO_COMMRXEventManager 1006                             ??_TMR0_StartTimer 0052  
                       i2___wmul@multiplicand 0048                       ??__CO_COMM_NMTE_RXEvent 0054  
                     ??__CO_COMM_NMTE_TXEvent 0052                          ?_CO_ProcessAllEvents 0046  
          __end_of__CO_COMM_NMTE_LSTimerEvent 1CBC                    __CO_COMM_NMTE_LSTimerEvent 1C30  
                       ?__CO_COMM_NMT_RXEvent 0046                                  __uCANRxIDRes 0100  
                                __uCANOldMode 0031                                  __uCAN_Handle 0036  
                                  _T0CON0bits 003FB8                          ??__CO_DictObjectRead 0052  
                      _CO_NMTStateChangeEvent 24D6                                  _I2C1CON0bits 003D73  
                                _I2C1CON1bits 003D74                         __end_of_ECAN_WAKI_ISR 2452  
                                __uCAN_Param1 0035                                  __uCAN_Param2 00C7  
                                __uCAN_Param3 00C6                                  __uCAN_Param4 00C5  
                                    __pivt0x8 0008                                  __uCANRxHndls 0084  
                                __uCANTxHndls 00B1                                      __rpdo_en 002A  
                                    __ptext10 1E2C                                      __ptext11 2358  
                                    __ptext20 208E                                      __ptext12 24CC  
                                    __ptext21 24D4                                      __ptext13 2410  
                                    __ptext30 093E                                      __ptext22 0E64  
                                    __ptext14 1548                                      __ptext31 237E  
                                    __ptext23 2470                                      __ptext15 248E  
                                    __ptext40 1854                                      __ptext32 19BC  
                                    __ptext24 1FCE                                      __ptext16 115A  
                                    __ptext41 1CBC                                      __ptext33 1F04  
                                    __ptext25 001E                                      __ptext17 05A4  
                                    __ptext50 2302                                      __ptext42 1908  
                                    __ptext34 222E                                      __ptext26 1B9C  
                                    __ptext18 21BC                                      __ptext51 1B04  
                                    __ptext43 1F6C                                      __ptext35 179E  
                                    __ptext27 1470                                      __ptext19 1614  
                                    __ptext60 23EC                                      __ptext52 202E  
                                    __ptext44 0C38                                      __ptext36 2264  
                                    __ptext28 1006                                      __ptext61 24DC  
                                    __ptext53 22D0                                      __ptext45 1A66  
                                    __ptext37 229A                                      __ptext29 1284  
                                    __ptext62 2432                                      __ptext54 2140  
                                    __ptext46 24D6                                      __ptext38 16E0  
                                    __ptext63 24DE                                      __ptext55 24DA  
                                    __ptext47 24D0                                      __ptext39 1386  
                                    __ptext64 0000                                      __ptext56 1DB6  
                                    __ptext48 24D8                                      __ptext57 217E  
                                    __ptext49 20EA                                      __ptext58 1C30  
                                    __ptext59 232E                                      __tpdo_en 0029  
                       _I2C1_DO_BUS_COLLISION 000000                                    _U1CON0bits 003DF2  
               __end_of_UART1_SetErrorHandler 24BE                      _I2C1_CallbackReturnReset 000000  
                                __uCOB_ID_out 0001                           __db_manufacturer_g1 FFAC  
                         __db_manufacturer_g2 FF9C                           __db_manufacturer_g3 FF8C  
                         __db_manufacturer_g4 FF7C                                  _rCO_DevRevNo FFEA  
        __end_of_TMR0_DefaultInterruptHandler 24DC                  _TMR0_DefaultInterruptHandler 24DA  
                   _UART1_OverrunErrorHandler 00BA  UART1_SetOverrunErrorHandler@interruptHandler 0052  
                           ?_CO_NMTResetEvent 0046                                      isa$xinst 000000  
                      ?__CO_COMM_SYNC_RXEvent 0046                               _rCO_DevSerialNo FFE6  
                          ??_CO_NMTResetEvent 0052            __end_of_INTERRUPT_InterruptManager 208E  
                  _INTERRUPT_InterruptManager 202E                 __end_of__CO_COMM_PDO1_RXEvent 23A4  
                             _rCO_DevVendorID FFF2                         CO_MEMIO_CopySram@pOut 0122  
               __end_of__CO_COMM_PDO1_TXEvent 21F8            __end_of__CO_COMMLSTimeEventManager 1E2C  
                  __CO_COMMLSTimeEventManager 1DB6                                  _I2C1_DO_IDLE 000000  
                       ??_CO_ProcessAllEvents 0054                                   _RXB0DLCbits 003F85  
                               __uPDOHandles1 001F                                   _RXB0CONbits 003F80  
              ??_UART1_SetFramingErrorHandler 0054                                   _RXB1CONbits 0037F0  
                      ?_CO_NMTAppResetRequest 0046                        ??_INTERRUPT_Initialize 0052  
                                    intlevel2 0000                                 _uCO_DevErrReg 00FE  
                     ?_PIN_MANAGER_Initialize 0046                                   _TXB0CONbits 0037E0  
                                 _TXB1CONbits 0037D0                       _I2C1_CallbackReturnStop 000000  
                                 _TXB2CONbits 0037C0                      __end_of__CANEventManager 0E64  
             fp__TMR0_DefaultInterruptHandler 0000                 ?_TMR0_DefaultInterruptHandler 0046  
                        _I2C1_DO_ADDRESS_NACK 000000                   ??__CO_COMMTXRdyEventManager 0054  
                        CO_MEMIO_CopySram@pIn 0120                          CO_MEMIO_CopySram@len 0124  
UART1_SetFramingErrorHandler@interruptHandler 0052                  __end_of__CO_DictObjectDecode 0C38  
                                 _RXFCON0bits 003706                        ??__CO_COMM_NMT_RXEvent 0124  
                                __uNMTE_COBID 00A6             __CO_COMM_SDO1_CS_COBIDAccessEvent 000000  
                             _TMR0_Initialize 23A4                                    _TMR0_Blink 2140  
                           ?_CO_COMMSyncEvent 0046                    _uCO_DevManufacturerStatReg 00F4  
                          ??_CO_COMMSyncEvent 0052                __CO_COMM_SYNC_COBIDAccessEvent 000000  
              __end_of_PIN_MANAGER_Initialize 1E9C                 __end_of__CO_COMM_SDO1_RXEvent 05A4  
                 __end_of__CO_DictObjectWrite 1C30                 __end_of__CO_COMM_SDO1_TXEvent 093E  
                     __end_of_rCO_DevSerialNo FFEA                       __end_of_rCO_DevVendorID FFF6  
